---
triple:          'arm64-apple-darwin'
binary-path:     '/Users/nikitamuzycenko/Documents/GitHub/Atomica/Binaries/macosx-ARM64/Debug/Atomica-Interface/Atomica-Interface'
relocations:
  - { offsetInCU: 0x57, offset: 0x57, size: 0x8, addend: 0x0, symName: __ZN7Atomica6apiKeyE, symObjAddr: 0x3B340, symBinAddr: 0x1001BD810, symSize: 0x0 }
  - { offsetInCU: 0x70, offset: 0x70, size: 0x8, addend: 0x0, symName: __ZN7Atomica2ioE, symObjAddr: 0x3B360, symBinAddr: 0x1001BD830, symSize: 0x0 }
  - { offsetInCU: 0x7D, offset: 0x7D, size: 0x8, addend: 0x0, symName: __ZN7Atomica10AtomWindowEv, symObjAddr: 0x36D8, symBinAddr: 0x100006794, symSize: 0x56C }
  - { offsetInCU: 0xA2, offset: 0xA2, size: 0x8, addend: 0x0, symName: __ZZN7Atomica10AtomWindowEvE15showDescription, symObjAddr: 0x3B368, symBinAddr: 0x1001BD838, symSize: 0x0 }
  - { offsetInCU: 0x1FA, offset: 0x1FA, size: 0x8, addend: 0x0, symName: __ZN7Atomica10ChatWindowEv, symObjAddr: 0x3C44, symBinAddr: 0x100006D00, symSize: 0x90C }
  - { offsetInCU: 0x21F, offset: 0x21F, size: 0x8, addend: 0x0, symName: __ZZN7Atomica10ChatWindowEvE7chatLog, symObjAddr: 0x3B370, symBinAddr: 0x1001BD840, symSize: 0x0 }
  - { offsetInCU: 0x234, offset: 0x234, size: 0x8, addend: 0x0, symName: __ZZN7Atomica10ChatWindowEvE9chatMutex, symObjAddr: 0x3B390, symBinAddr: 0x1001BD860, symSize: 0x0 }
  - { offsetInCU: 0x249, offset: 0x249, size: 0x8, addend: 0x0, symName: __ZZN7Atomica10ChatWindowEvE8inputBuf, symObjAddr: 0x3B3D8, symBinAddr: 0x1001BD8A8, symSize: 0x0 }
  - { offsetInCU: 0x25E, offset: 0x25E, size: 0x8, addend: 0x0, symName: __ZZN7Atomica10ChatWindowEvE9isLoading, symObjAddr: 0x3B5D8, symBinAddr: 0x1001BDAA8, symSize: 0x0 }
  - { offsetInCU: 0x273, offset: 0x273, size: 0x8, addend: 0x0, symName: __ZZN7Atomica10ChatWindowEvE6eCount, symObjAddr: 0x3B5DC, symBinAddr: 0x1001BDAAC, symSize: 0x0 }
  - { offsetInCU: 0x288, offset: 0x288, size: 0x8, addend: 0x0, symName: __ZZN7Atomica10ChatWindowEvE16lastMessageCount, symObjAddr: 0x3B5F8, symBinAddr: 0x1001BDAC8, symSize: 0x0 }
  - { offsetInCU: 0x29D, offset: 0x29D, size: 0x8, addend: 0x0, symName: __ZZN7Atomica10ChatWindowEvE14scrollToBottom, symObjAddr: 0x3B600, symBinAddr: 0x1001BDAD0, symSize: 0x0 }
  - { offsetInCU: 0x491, offset: 0x491, size: 0x8, addend: 0x0, symName: __ZN7Atomica17ConstructorWindowEv, symObjAddr: 0x4550, symBinAddr: 0x10000760C, symSize: 0x1530 }
  - { offsetInCU: 0x4B7, offset: 0x4B7, size: 0x8, addend: 0x0, symName: __ZZN7Atomica17ConstructorWindowEvE15protonPositions, symObjAddr: 0x3B608, symBinAddr: 0x1001BDAD8, symSize: 0x0 }
  - { offsetInCU: 0x4CD, offset: 0x4CD, size: 0x8, addend: 0x0, symName: __ZZN7Atomica17ConstructorWindowEvE16neutronPositions, symObjAddr: 0x3B628, symBinAddr: 0x1001BDAF8, symSize: 0x0 }
  - { offsetInCU: 0x4E3, offset: 0x4E3, size: 0x8, addend: 0x0, symName: __ZZN7Atomica17ConstructorWindowEvE12draggingType, symObjAddr: 0x3B648, symBinAddr: 0x1001BDB18, symSize: 0x0 }
  - { offsetInCU: 0x4F9, offset: 0x4F9, size: 0x8, addend: 0x0, symName: __ZZN7Atomica17ConstructorWindowEvE10sourceRing, symObjAddr: 0x3B64C, symBinAddr: 0x1001BDB1C, symSize: 0x0 }
  - { offsetInCU: 0x50F, offset: 0x50F, size: 0x8, addend: 0x0, symName: __ZZN7Atomica17ConstructorWindowEvE13draggingIndex, symObjAddr: 0x3B650, symBinAddr: 0x1001BDB20, symSize: 0x0 }
  - { offsetInCU: 0x9DA, offset: 0x9DA, size: 0x8, addend: 0x0, symName: __ZN7Atomica9askGeminiERKNSt3__112basic_stringIcNS0_11char_traitsIcEENS0_9allocatorIcEEEES8_S8_, symObjAddr: 0x34, symBinAddr: 0x1000030F0, symSize: 0x1280 }
  - { offsetInCU: 0xAD7, offset: 0xAD7, size: 0x8, addend: 0x0, symName: __ZN7AtomicaL13WriteCallbackEPvmmPNSt3__112basic_stringIcNS1_11char_traitsIcEENS1_9allocatorIcEEEE, symObjAddr: 0x1708, symBinAddr: 0x1000047C4, symSize: 0x4C }
  - { offsetInCU: 0xB3B, offset: 0xB3B, size: 0x8, addend: 0x0, symName: __ZN7Atomica17InitiateInterfaceEv, symObjAddr: 0x1F48, symBinAddr: 0x100005004, symSize: 0xC0 }
  - { offsetInCU: 0xB55, offset: 0xB55, size: 0x8, addend: 0x0, symName: __ZN7Atomica15RenderInterfaceEv, symObjAddr: 0x2008, symBinAddr: 0x1000050C4, symSize: 0x48 }
  - { offsetInCU: 0xB6F, offset: 0xB6F, size: 0x8, addend: 0x0, symName: __ZN7Atomica14CleanInterfaceEv, symObjAddr: 0x2050, symBinAddr: 0x10000510C, symSize: 0x64 }
  - { offsetInCU: 0xBA7, offset: 0xBA7, size: 0x8, addend: 0x0, symName: __ZN7Atomica16DestroyInterfaceEv, symObjAddr: 0x20B4, symBinAddr: 0x100005170, symSize: 0x20 }
  - { offsetInCU: 0x11A6A, offset: 0x11A6A, size: 0x8, addend: 0x0, symName: __ZNSt3__119piecewise_constructE, symObjAddr: 0x3DE96, symBinAddr: 0x100175B06, symSize: 0x0 }
  - { offsetInCU: 0x120A4, offset: 0x120A4, size: 0x8, addend: 0x0, symName: __ZNSt3__17advanceB8ue170006IPNS_4pairINS_12basic_stringIcNS_11char_traitsIcEENS_9allocatorIcEEEEbEEllvEEvRT_T0_, symObjAddr: 0x7A50, symBinAddr: 0x10000AB0C, symSize: 0x38 }
  - { offsetInCU: 0x12324, offset: 0x12324, size: 0x8, addend: 0x0, symName: __ZNSt3__17advanceB8ue170006INS_16reverse_iteratorIPNS_4pairINS_12basic_stringIcNS_11char_traitsIcEENS_9allocatorIcEEEEbEEEEllvEEvRT_T0_, symObjAddr: 0x7E1C, symBinAddr: 0x10000AED8, symSize: 0x38 }
  - { offsetInCU: 0x13B67, offset: 0x13B67, size: 0x8, addend: 0x0, symName: __ZNSt3__17advanceB8ue170006IPN8nlohmann16json_abi_v3_12_010basic_jsonINS_3mapENS_6vectorENS_12basic_stringIcNS_11char_traitsIcEENS_9allocatorIcEEEEbxydS9_NS2_14adl_serializerENS5_IhNS9_IhEEEEvEEllvEEvRT_T0_, symObjAddr: 0xD7F8, symBinAddr: 0x1000108B4, symSize: 0x38 }
  - { offsetInCU: 0x13DE7, offset: 0x13DE7, size: 0x8, addend: 0x0, symName: __ZNSt3__17advanceB8ue170006INS_16reverse_iteratorIPN8nlohmann16json_abi_v3_12_010basic_jsonINS_3mapENS_6vectorENS_12basic_stringIcNS_11char_traitsIcEENS_9allocatorIcEEEEbxydSA_NS3_14adl_serializerENS6_IhNSA_IhEEEEvEEEEllvEEvRT_T0_, symObjAddr: 0xDC20, symBinAddr: 0x100010CDC, symSize: 0x38 }
  - { offsetInCU: 0x140E1, offset: 0x140E1, size: 0x8, addend: 0x0, symName: __ZNSt3__17advanceB8ue170006INS_21__tree_const_iteratorINS_12__value_typeINS_12basic_stringIcNS_11char_traitsIcEENS_9allocatorIcEEEEN8nlohmann16json_abi_v3_12_010basic_jsonINS_3mapENS_6vectorES8_bxydS6_NSA_14adl_serializerENSD_IhNS6_IhEEEEvEEEEPNS_11__tree_nodeISI_PvEElEEllvEEvRT_T0_, symObjAddr: 0x165C8, symBinAddr: 0x100019684, symSize: 0x38 }
  - { offsetInCU: 0x14818, offset: 0x14818, size: 0x8, addend: 0x0, symName: __ZNSt3__17advanceB8ue170006INS_20__map_const_iteratorINS_21__tree_const_iteratorINS_12__value_typeINS_12basic_stringIcNS_11char_traitsIcEENS_9allocatorIcEEEEN8nlohmann16json_abi_v3_12_010basic_jsonINS_3mapENS_6vectorES9_bxydS7_NSB_14adl_serializerENSE_IhNS7_IhEEEEvEEEEPNS_11__tree_nodeISJ_PvEElEEEEllvEEvRT_T0_, symObjAddr: 0x1F090, symBinAddr: 0x10002214C, symSize: 0x38 }
  - { offsetInCU: 0x15BCF, offset: 0x15BCF, size: 0x8, addend: 0x0, symName: __ZNSt3__17advanceB8ue170006INS_11__wrap_iterIPKcEEiivEEvRT_T0_, symObjAddr: 0x24564, symBinAddr: 0x100027620, symSize: 0x40 }
  - { offsetInCU: 0x1881E, offset: 0x1881E, size: 0x8, addend: 0x0, symName: __ZNSt3__17advanceB8ue170006INS_14__map_iteratorINS_15__tree_iteratorINS_12__value_typeINS_12basic_stringIcNS_11char_traitsIcEENS_9allocatorIcEEEEN8nlohmann16json_abi_v3_12_010basic_jsonINS_3mapENS_6vectorES9_bxydS7_NSB_14adl_serializerENSE_IhNS7_IhEEEEvEEEEPNS_11__tree_nodeISJ_PvEElEEEEiivEEvRT_T0_, symObjAddr: 0x31D20, symBinAddr: 0x100034DDC, symSize: 0x40 }
  - { offsetInCU: 0x188A5, offset: 0x188A5, size: 0x8, addend: 0x0, symName: __ZNSt3__17advanceB8ue170006INS_11__wrap_iterIPN8nlohmann16json_abi_v3_12_010basic_jsonINS_3mapENS_6vectorENS_12basic_stringIcNS_11char_traitsIcEENS_9allocatorIcEEEEbxydSA_NS3_14adl_serializerENS6_IhNSA_IhEEEEvEEEEiivEEvRT_T0_, symObjAddr: 0x31D60, symBinAddr: 0x100034E1C, symSize: 0x40 }
  - { offsetInCU: 0x1A0B3, offset: 0x1A0B3, size: 0x8, addend: 0x0, symName: __ZNSt3__1plB8ue170006IcNS_11char_traitsIcEENS_9allocatorIcEEEENS_12basic_stringIT_T0_T1_EEOS9_RKS9_, symObjAddr: 0x12E0, symBinAddr: 0x10000439C, symSize: 0x40 }
  - { offsetInCU: 0x1A10E, offset: 0x1A10E, size: 0x8, addend: 0x0, symName: __ZNSt3__1plB8ue170006IcNS_11char_traitsIcEENS_9allocatorIcEEEENS_12basic_stringIT_T0_T1_EEOS9_PKS6_, symObjAddr: 0x1320, symBinAddr: 0x1000043DC, symSize: 0x40 }
  - { offsetInCU: 0x1A169, offset: 0x1A169, size: 0x8, addend: 0x0, symName: __ZNSt3__1plB8ue170006IcNS_11char_traitsIcEENS_9allocatorIcEEEENS_12basic_stringIT_T0_T1_EEPKS6_OS9_, symObjAddr: 0x1754, symBinAddr: 0x100004810, symSize: 0x44 }
  - { offsetInCU: 0x1A1C3, offset: 0x1A1C3, size: 0x8, addend: 0x0, symName: __ZNSt3__118__constexpr_strlenB8ue170006EPKc, symObjAddr: 0x22A0, symBinAddr: 0x10000535C, symSize: 0x24 }
  - { offsetInCU: 0x1A1F0, offset: 0x1A1F0, size: 0x8, addend: 0x0, symName: __ZNSt3__112__to_addressB8ue170006IKcEEPT_S3_, symObjAddr: 0x2480, symBinAddr: 0x10000553C, symSize: 0x14 }
  - { offsetInCU: 0x1A258, offset: 0x1A258, size: 0x8, addend: 0x0, symName: __ZNSt3__13maxB8ue170006IfEERKT_S3_S3_, symObjAddr: 0x5B70, symBinAddr: 0x100008C2C, symSize: 0x2C }
  - { offsetInCU: 0x1A29B, offset: 0x1A29B, size: 0x8, addend: 0x0, symName: __ZNSt3__13maxB8ue170006IfNS_6__lessIvvEEEERKT_S5_S5_T0_, symObjAddr: 0x5C38, symBinAddr: 0x100008CF4, symSize: 0x54 }
  - { offsetInCU: 0x1A42C, offset: 0x1A42C, size: 0x8, addend: 0x0, symName: __ZNSt3__1neB8ue170006IPNS_4pairINS_12basic_stringIcNS_11char_traitsIcEENS_9allocatorIcEEEEbEEEEbRKNS_11__wrap_iterIT_EESE_, symObjAddr: 0x5D80, symBinAddr: 0x100008E3C, symSize: 0x34 }
  - { offsetInCU: 0x1A470, offset: 0x1A470, size: 0x8, addend: 0x0, symName: __ZNSt3__13getB8ue170006ILm0ENS_12basic_stringIcNS_11char_traitsIcEENS_9allocatorIcEEEEbEERKNS_13tuple_elementIXT_ENS_4pairIT0_T1_EEE4typeERKSB_, symObjAddr: 0x5DCC, symBinAddr: 0x100008E88, symSize: 0x24 }
  - { offsetInCU: 0x1A4BC, offset: 0x1A4BC, size: 0x8, addend: 0x0, symName: __ZNSt3__13getB8ue170006ILm1ENS_12basic_stringIcNS_11char_traitsIcEENS_9allocatorIcEEEEbEERKNS_13tuple_elementIXT_ENS_4pairIT0_T1_EEE4typeERKSB_, symObjAddr: 0x5DF0, symBinAddr: 0x100008EAC, symSize: 0x24 }
  - { offsetInCU: 0x1A508, offset: 0x1A508, size: 0x8, addend: 0x0, symName: __ZNSt3__112__to_addressB8ue170006INS_4pairINS_12basic_stringIcNS_11char_traitsIcEENS_9allocatorIcEEEEbEEEEPT_SA_, symObjAddr: 0x62C0, symBinAddr: 0x10000937C, symSize: 0x14 }
  - { offsetInCU: 0x1A53D, offset: 0x1A53D, size: 0x8, addend: 0x0, symName: __ZNSt3__110destroy_atB8ue170006INS_4pairINS_12basic_stringIcNS_11char_traitsIcEENS_9allocatorIcEEEEbEELi0EEEvPT_, symObjAddr: 0x62D4, symBinAddr: 0x100009390, symSize: 0x24 }
  - { offsetInCU: 0x1A574, offset: 0x1A574, size: 0x8, addend: 0x0, symName: __ZNSt3__112__destroy_atB8ue170006INS_4pairINS_12basic_stringIcNS_11char_traitsIcEENS_9allocatorIcEEEEbEELi0EEEvPT_, symObjAddr: 0x62F8, symBinAddr: 0x1000093B4, symSize: 0x24 }
  - { offsetInCU: 0x1A5AB, offset: 0x1A5AB, size: 0x8, addend: 0x0, symName: __ZNSt3__119__libcpp_deallocateB8ue170006EPvmm, symObjAddr: 0x63FC, symBinAddr: 0x1000094B8, symSize: 0x60 }
  - { offsetInCU: 0x1A614, offset: 0x1A614, size: 0x8, addend: 0x0, symName: __ZNSt3__124__is_overaligned_for_newB8ue170006Em, symObjAddr: 0x645C, symBinAddr: 0x100009518, symSize: 0x20 }
  - { offsetInCU: 0x1A643, offset: 0x1A643, size: 0x8, addend: 0x0, symName: __ZNSt3__127__do_deallocate_handle_sizeB8ue170006IJSt11align_val_tEEEvPvmDpT_, symObjAddr: 0x647C, symBinAddr: 0x100009538, symSize: 0x30 }
  - { offsetInCU: 0x1A699, offset: 0x1A699, size: 0x8, addend: 0x0, symName: __ZNSt3__127__do_deallocate_handle_sizeB8ue170006IJEEEvPvmDpT_, symObjAddr: 0x64AC, symBinAddr: 0x100009568, symSize: 0x28 }
  - { offsetInCU: 0x1A6D9, offset: 0x1A6D9, size: 0x8, addend: 0x0, symName: __ZNSt3__124__libcpp_operator_deleteB8ue170006IJPvSt11align_val_tEEEvDpT_, symObjAddr: 0x64D4, symBinAddr: 0x100009590, symSize: 0x2C }
  - { offsetInCU: 0x1A724, offset: 0x1A724, size: 0x8, addend: 0x0, symName: __ZNSt3__124__libcpp_operator_deleteB8ue170006IJPvEEEvDpT_, symObjAddr: 0x6500, symBinAddr: 0x1000095BC, symSize: 0x24 }
  - { offsetInCU: 0x1A75A, offset: 0x1A75A, size: 0x8, addend: 0x0, symName: __ZNSt3__1eqB8ue170006IPNS_4pairINS_12basic_stringIcNS_11char_traitsIcEENS_9allocatorIcEEEEbEEEEbRKNS_11__wrap_iterIT_EESE_, symObjAddr: 0x667C, symBinAddr: 0x100009738, symSize: 0x48 }
  - { offsetInCU: 0x1A83E, offset: 0x1A83E, size: 0x8, addend: 0x0, symName: __ZNSt3__112construct_atB8ue170006INS_4pairINS_12basic_stringIcNS_11char_traitsIcEENS_9allocatorIcEEEEbEEJRS7_bEPS8_EEPT_SC_DpOT0_, symObjAddr: 0x6A10, symBinAddr: 0x100009ACC, symSize: 0x44 }
  - { offsetInCU: 0x1A8C3, offset: 0x1A8C3, size: 0x8, addend: 0x0, symName: __ZNSt3__13maxB8ue170006ImEERKT_S3_S3_, symObjAddr: 0x6DA8, symBinAddr: 0x100009E64, symSize: 0x2C }
  - { offsetInCU: 0x1A906, offset: 0x1A906, size: 0x8, addend: 0x0, symName: __ZNSt3__13minB8ue170006ImEERKT_S3_S3_, symObjAddr: 0x6DD4, symBinAddr: 0x100009E90, symSize: 0x2C }
  - { offsetInCU: 0x1AB33, offset: 0x1AB33, size: 0x8, addend: 0x0, symName: __ZNSt3__13minB8ue170006ImNS_6__lessIvvEEEERKT_S5_S5_T0_, symObjAddr: 0x6E64, symBinAddr: 0x100009F20, symSize: 0x54 }
  - { offsetInCU: 0x1AD7A, offset: 0x1AD7A, size: 0x8, addend: 0x0, symName: __ZNSt3__120__throw_length_errorB8ue170006EPKc, symObjAddr: 0x6F48, symBinAddr: 0x10000A004, symSize: 0x64 }
  - { offsetInCU: 0x1ADA5, offset: 0x1ADA5, size: 0x8, addend: 0x0, symName: __ZNSt3__13maxB8ue170006ImNS_6__lessIvvEEEERKT_S5_S5_T0_, symObjAddr: 0x702C, symBinAddr: 0x10000A0E8, symSize: 0x54 }
  - { offsetInCU: 0x1ADFF, offset: 0x1ADFF, size: 0x8, addend: 0x0, symName: __ZNSt3__119__allocate_at_leastB8ue170006INS_9allocatorINS_4pairINS_12basic_stringIcNS_11char_traitsIcEENS1_IcEEEEbEEEEEENS_19__allocation_resultINS_16allocator_traitsIT_E7pointerEEERSC_m, symObjAddr: 0x7190, symBinAddr: 0x10000A24C, symSize: 0x40 }
  - { offsetInCU: 0x1AE43, offset: 0x1AE43, size: 0x8, addend: 0x0, symName: __ZNSt3__117__libcpp_allocateB8ue170006Emm, symObjAddr: 0x7330, symBinAddr: 0x10000A3EC, symSize: 0x60 }
  - { offsetInCU: 0x1AEA0, offset: 0x1AEA0, size: 0x8, addend: 0x0, symName: __ZNSt3__121__libcpp_operator_newB8ue170006IJmSt11align_val_tEEEPvDpT_, symObjAddr: 0x7390, symBinAddr: 0x10000A44C, symSize: 0x2C }
  - { offsetInCU: 0x1AEF0, offset: 0x1AEF0, size: 0x8, addend: 0x0, symName: __ZNSt3__121__libcpp_operator_newB8ue170006IJmEEEPvDpT_, symObjAddr: 0x73BC, symBinAddr: 0x10000A478, symSize: 0x24 }
  - { offsetInCU: 0x1AF2B, offset: 0x1AF2B, size: 0x8, addend: 0x0, symName: __ZNSt3__142__uninitialized_allocator_move_if_noexceptB8ue170006INS_9allocatorINS_4pairINS_12basic_stringIcNS_11char_traitsIcEENS1_IcEEEEbEEEENS_16reverse_iteratorIPS8_EESC_SC_EET2_RT_T0_T1_SD_, symObjAddr: 0x7444, symBinAddr: 0x10000A500, symSize: 0x12C }
  - { offsetInCU: 0x1AFD0, offset: 0x1AFD0, size: 0x8, addend: 0x0, symName: __ZNSt3__14swapB8ue170006IPNS_4pairINS_12basic_stringIcNS_11char_traitsIcEENS_9allocatorIcEEEEbEEEENS_9enable_ifIXaasr21is_move_constructibleIT_EE5valuesr18is_move_assignableISB_EE5valueEvE4typeERSB_SE_, symObjAddr: 0x75BC, symBinAddr: 0x10000A678, symSize: 0x3C }
  - { offsetInCU: 0x1B021, offset: 0x1B021, size: 0x8, addend: 0x0, symName: __ZNSt3__122__make_exception_guardB8ue170006INS_29_AllocatorDestroyRangeReverseINS_9allocatorINS_4pairINS_12basic_stringIcNS_11char_traitsIcEENS2_IcEEEEbEEEENS_16reverse_iteratorIPS9_EEEEEENS_28__exception_guard_exceptionsIT_EESG_, symObjAddr: 0x76A4, symBinAddr: 0x10000A760, symSize: 0x4C }
  - { offsetInCU: 0x1B057, offset: 0x1B057, size: 0x8, addend: 0x0, symName: __ZNSt3__1neB8ue170006IPNS_4pairINS_12basic_stringIcNS_11char_traitsIcEENS_9allocatorIcEEEEbEES9_EEbRKNS_16reverse_iteratorIT_EERKNSA_IT0_EE, symObjAddr: 0x7734, symBinAddr: 0x10000A7F0, symSize: 0x48 }
  - { offsetInCU: 0x1B0A3, offset: 0x1B0A3, size: 0x8, addend: 0x0, symName: __ZNSt3__112__to_addressB8ue170006INS_16reverse_iteratorIPNS_4pairINS_12basic_stringIcNS_11char_traitsIcEENS_9allocatorIcEEEEbEEEEvEEu7__decayIDTclsr19__to_address_helperIT_EE6__callclsr3stdE7declvalIRKSC_EEEEESE_, symObjAddr: 0x77AC, symBinAddr: 0x10000A868, symSize: 0x24 }
  - { offsetInCU: 0x1B0D9, offset: 0x1B0D9, size: 0x8, addend: 0x0, symName: __ZNSt3__112construct_atB8ue170006INS_4pairINS_12basic_stringIcNS_11char_traitsIcEENS_9allocatorIcEEEEbEEJS8_EPS8_EEPT_SB_DpOT0_, symObjAddr: 0x78FC, symBinAddr: 0x10000A9B8, symSize: 0x3C }
  - { offsetInCU: 0x1B175, offset: 0x1B175, size: 0x8, addend: 0x0, symName: __ZNSt3__14prevB8ue170006IPNS_4pairINS_12basic_stringIcNS_11char_traitsIcEENS_9allocatorIcEEEEbEEEENS_9enable_ifIXsr29__has_input_iterator_categoryIT_EE5valueESB_E4typeESB_NS_15iterator_traitsISB_E15difference_typeE, symObjAddr: 0x7A14, symBinAddr: 0x10000AAD0, symSize: 0x3C }
  - { offsetInCU: 0x1B1B9, offset: 0x1B1B9, size: 0x8, addend: 0x0, symName: __ZNSt3__121__convert_to_integralB8ue170006El, symObjAddr: 0x7A88, symBinAddr: 0x10000AB44, symSize: 0x14 }
  - { offsetInCU: 0x1B1E6, offset: 0x1B1E6, size: 0x8, addend: 0x0, symName: __ZNSt3__19__advanceB8ue170006IPNS_4pairINS_12basic_stringIcNS_11char_traitsIcEENS_9allocatorIcEEEEbEEEEvRT_NS_15iterator_traitsISA_E15difference_typeENS_26random_access_iterator_tagE, symObjAddr: 0x7A9C, symBinAddr: 0x10000AB58, symSize: 0x28 }
  - { offsetInCU: 0x1B230, offset: 0x1B230, size: 0x8, addend: 0x0, symName: __ZNSt3__119__allocator_destroyB8ue170006INS_9allocatorINS_4pairINS_12basic_stringIcNS_11char_traitsIcEENS1_IcEEEEbEEEENS_16reverse_iteratorINSA_IPS8_EEEESD_EEvRT_T0_T1_, symObjAddr: 0x7BC8, symBinAddr: 0x10000AC84, symSize: 0x70 }
  - { offsetInCU: 0x1B298, offset: 0x1B298, size: 0x8, addend: 0x0, symName: __ZNSt3__1neB8ue170006INS_16reverse_iteratorIPNS_4pairINS_12basic_stringIcNS_11char_traitsIcEENS_9allocatorIcEEEEbEEEESB_EEbRKNS1_IT_EERKNS1_IT0_EE, symObjAddr: 0x7C74, symBinAddr: 0x10000AD30, symSize: 0x60 }
  - { offsetInCU: 0x1B2E4, offset: 0x1B2E4, size: 0x8, addend: 0x0, symName: __ZNSt3__112__to_addressB8ue170006INS_16reverse_iteratorINS1_IPNS_4pairINS_12basic_stringIcNS_11char_traitsIcEENS_9allocatorIcEEEEbEEEEEEvEEu7__decayIDTclsr19__to_address_helperIT_EE6__callclsr3stdE7declvalIRKSD_EEEEESF_, symObjAddr: 0x7CD4, symBinAddr: 0x10000AD90, symSize: 0x24 }
  - { offsetInCU: 0x1B344, offset: 0x1B344, size: 0x8, addend: 0x0, symName: __ZNSt3__14prevB8ue170006INS_16reverse_iteratorIPNS_4pairINS_12basic_stringIcNS_11char_traitsIcEENS_9allocatorIcEEEEbEEEEEENS_9enable_ifIXsr29__has_input_iterator_categoryIT_EE5valueESD_E4typeESD_NS_15iterator_traitsISD_E15difference_typeE, symObjAddr: 0x7DD0, symBinAddr: 0x10000AE8C, symSize: 0x4C }
  - { offsetInCU: 0x1B387, offset: 0x1B387, size: 0x8, addend: 0x0, symName: __ZNSt3__19__advanceB8ue170006INS_16reverse_iteratorIPNS_4pairINS_12basic_stringIcNS_11char_traitsIcEENS_9allocatorIcEEEEbEEEEEEvRT_NS_15iterator_traitsISC_E15difference_typeENS_26random_access_iterator_tagE, symObjAddr: 0x7E54, symBinAddr: 0x10000AF10, symSize: 0x2C }
  - { offsetInCU: 0x1B7CF, offset: 0x1B7CF, size: 0x8, addend: 0x0, symName: __ZNSt3__122__libcpp_thread_createB8ue170006EPP17_opaque_pthread_tPFPvS3_ES3_, symObjAddr: 0x82FC, symBinAddr: 0x10000B3B8, symSize: 0x38 }
  - { offsetInCU: 0x1B81E, offset: 0x1B81E, size: 0x8, addend: 0x0, symName: __ZNSt3__114__thread_proxyB8ue170006INS_5tupleIJNS_10unique_ptrINS_15__thread_structENS_14default_deleteIS3_EEEEZN7Atomica10ChatWindowEvEUlvE_EEEEEPvSA_, symObjAddr: 0x8334, symBinAddr: 0x10000B3F0, symSize: 0x90 }
  - { offsetInCU: 0x1B97E, offset: 0x1B97E, size: 0x8, addend: 0x0, symName: __ZNSt3__13getB8ue170006ILm0EJNS_10unique_ptrINS_15__thread_structENS_14default_deleteIS2_EEEEZN7Atomica10ChatWindowEvEUlvE_EEERNS_13tuple_elementIXT_ENS_5tupleIJDpT0_EEEE4typeERSC_, symObjAddr: 0x8A98, symBinAddr: 0x10000BB54, symSize: 0x24 }
  - { offsetInCU: 0x1B9C7, offset: 0x1B9C7, size: 0x8, addend: 0x0, symName: __ZNSt3__116__thread_executeB8ue170006INS_10unique_ptrINS_15__thread_structENS_14default_deleteIS2_EEEEZN7Atomica10ChatWindowEvEUlvE_JEJEEEvRNS_5tupleIJT_T0_DpT1_EEENS_15__tuple_indicesIJXspT2_EEEE, symObjAddr: 0x8ABC, symBinAddr: 0x10000BB78, symSize: 0x28 }
  - { offsetInCU: 0x1BA17, offset: 0x1BA17, size: 0x8, addend: 0x0, symName: __ZNSt3__116__libcpp_tls_setB8ue170006EmPv, symObjAddr: 0x8AE4, symBinAddr: 0x10000BBA0, symSize: 0x2C }
  - { offsetInCU: 0x1BA56, offset: 0x1BA56, size: 0x8, addend: 0x0, symName: __ZNSt3__18__invokeB8ue170006IZN7Atomica10ChatWindowEvEUlvE_JEEEDTclclsr3stdE7declvalIT_EEspclsr3stdE7declvalIT0_EEEEOS3_DpOS4_, symObjAddr: 0x8B24, symBinAddr: 0x10000BBE0, symSize: 0x24 }
  - { offsetInCU: 0x1BA90, offset: 0x1BA90, size: 0x8, addend: 0x0, symName: __ZNSt3__13getB8ue170006ILm1EJNS_10unique_ptrINS_15__thread_structENS_14default_deleteIS2_EEEEZN7Atomica10ChatWindowEvEUlvE_EEERNS_13tuple_elementIXT_ENS_5tupleIJDpT0_EEEE4typeERSC_, symObjAddr: 0x8B48, symBinAddr: 0x10000BC04, symSize: 0x28 }
  - { offsetInCU: 0x1BAD9, offset: 0x1BAD9, size: 0x8, addend: 0x0, symName: __ZNSt3__13minB8ue170006IfEERKT_S3_S3_, symObjAddr: 0x9068, symBinAddr: 0x10000C124, symSize: 0x2C }
  - { offsetInCU: 0x1BB1C, offset: 0x1BB1C, size: 0x8, addend: 0x0, symName: __ZNSt3__13maxB8ue170006IiEERKT_S3_S3_, symObjAddr: 0x917C, symBinAddr: 0x10000C238, symSize: 0x2C }
  - { offsetInCU: 0x1BB7C, offset: 0x1BB7C, size: 0x8, addend: 0x0, symName: __ZNSt3__13minB8ue170006IfNS_6__lessIvvEEEERKT_S5_S5_T0_, symObjAddr: 0x9468, symBinAddr: 0x10000C524, symSize: 0x54 }
  - { offsetInCU: 0x1BBD7, offset: 0x1BBD7, size: 0x8, addend: 0x0, symName: __ZNSt3__112__to_addressB8ue170006I6ImVec2EEPT_S3_, symObjAddr: 0x9814, symBinAddr: 0x10000C8D0, symSize: 0x14 }
  - { offsetInCU: 0x1BC0C, offset: 0x1BC0C, size: 0x8, addend: 0x0, symName: __ZNSt3__110destroy_atB8ue170006I6ImVec2Li0EEEvPT_, symObjAddr: 0x9828, symBinAddr: 0x10000C8E4, symSize: 0x24 }
  - { offsetInCU: 0x1BC44, offset: 0x1BC44, size: 0x8, addend: 0x0, symName: __ZNSt3__112__destroy_atB8ue170006I6ImVec2Li0EEEvPT_, symObjAddr: 0x984C, symBinAddr: 0x10000C908, symSize: 0x10 }
  - { offsetInCU: 0x1BCA2, offset: 0x1BCA2, size: 0x8, addend: 0x0, symName: __ZNSt3__112construct_atB8ue170006I6ImVec2JEPS1_EEPT_S4_DpOT0_, symObjAddr: 0x9FB4, symBinAddr: 0x10000D070, symSize: 0x34 }
  - { offsetInCU: 0x1BD00, offset: 0x1BD00, size: 0x8, addend: 0x0, symName: __ZNSt3__119__allocate_at_leastB8ue170006INS_9allocatorI6ImVec2EEEENS_19__allocation_resultINS_16allocator_traitsIT_E7pointerEEERS6_m, symObjAddr: 0xA268, symBinAddr: 0x10000D324, symSize: 0x40 }
  - { offsetInCU: 0x1BD44, offset: 0x1BD44, size: 0x8, addend: 0x0, symName: __ZNSt3__142__uninitialized_allocator_move_if_noexceptB8ue170006INS_9allocatorI6ImVec2EENS_16reverse_iteratorIPS2_EES6_S2_vEET1_RT_T0_SA_S7_, symObjAddr: 0xA504, symBinAddr: 0x10000D5C0, symSize: 0x78 }
  - { offsetInCU: 0x1BDC6, offset: 0x1BDC6, size: 0x8, addend: 0x0, symName: __ZNSt3__14swapB8ue170006IP6ImVec2EENS_9enable_ifIXaasr21is_move_constructibleIT_EE5valuesr18is_move_assignableIS4_EE5valueEvE4typeERS4_S7_, symObjAddr: 0xA5C8, symBinAddr: 0x10000D684, symSize: 0x3C }
  - { offsetInCU: 0x1BE17, offset: 0x1BE17, size: 0x8, addend: 0x0, symName: __ZNSt3__14moveB8ue170006INS_16reverse_iteratorIP6ImVec2EES4_EET0_T_S6_S5_, symObjAddr: 0xA6B0, symBinAddr: 0x10000D76C, symSize: 0x78 }
  - { offsetInCU: 0x1BE71, offset: 0x1BE71, size: 0x8, addend: 0x0, symName: __ZNSt3__16__moveB8ue170006INS_17_ClassicAlgPolicyENS_16reverse_iteratorIP6ImVec2EES5_S5_EENS_4pairIT0_T2_EES7_T1_S8_, symObjAddr: 0xA728, symBinAddr: 0x10000D7E4, symSize: 0x64 }
  - { offsetInCU: 0x1BEDD, offset: 0x1BEDD, size: 0x8, addend: 0x0, symName: __ZNSt3__123__dispatch_copy_or_moveB8ue170006INS_17_ClassicAlgPolicyENS_11__move_loopIS1_EENS_14__move_trivialENS_16reverse_iteratorIP6ImVec2EES8_S8_EENS_4pairIT2_T4_EESA_T3_SB_, symObjAddr: 0xA78C, symBinAddr: 0x10000D848, symSize: 0x64 }
  - { offsetInCU: 0x1BF5B, offset: 0x1BF5B, size: 0x8, addend: 0x0, symName: __ZNSt3__121__unwrap_and_dispatchB8ue170006INS_10__overloadINS_11__move_loopINS_17_ClassicAlgPolicyEEENS_14__move_trivialEEENS_16reverse_iteratorIP6ImVec2EESA_SA_Li0EEENS_4pairIT0_T2_EESC_T1_SD_, symObjAddr: 0xA7F0, symBinAddr: 0x10000D8AC, symSize: 0x12C }
  - { offsetInCU: 0x1BFEB, offset: 0x1BFEB, size: 0x8, addend: 0x0, symName: __ZNSt3__114__unwrap_rangeB8ue170006INS_16reverse_iteratorIP6ImVec2EES4_EEDaT_T0_, symObjAddr: 0xA91C, symBinAddr: 0x10000D9D8, symSize: 0x4C }
  - { offsetInCU: 0x1C262, offset: 0x1C262, size: 0x8, addend: 0x0, symName: __ZNSt3__113__unwrap_iterB8ue170006INS_16reverse_iteratorIP6ImVec2EENS_18__unwrap_iter_implIS4_Lb0EEELi0EEEDTclsrT0_8__unwrapclsr3stdE7declvalIT_EEEES8_, symObjAddr: 0xAA08, symBinAddr: 0x10000DAC4, symSize: 0x44 }
  - { offsetInCU: 0x1C2A7, offset: 0x1C2A7, size: 0x8, addend: 0x0, symName: __ZNSt3__19make_pairB8ue170006INS_16reverse_iteratorIP6ImVec2EES4_EENS_4pairINS_18__unwrap_ref_decayIT_E4typeENS6_IT0_E4typeEEEOS7_OSA_, symObjAddr: 0xAA4C, symBinAddr: 0x10000DB08, symSize: 0x38 }
  - { offsetInCU: 0x1C2F8, offset: 0x1C2F8, size: 0x8, addend: 0x0, symName: __ZNSt3__114__rewrap_rangeB8ue170006INS_16reverse_iteratorIP6ImVec2EES4_S4_EET0_S5_T1_, symObjAddr: 0xAA84, symBinAddr: 0x10000DB40, symSize: 0x5C }
  - { offsetInCU: 0x1C34D, offset: 0x1C34D, size: 0x8, addend: 0x0, symName: __ZNSt3__113__rewrap_iterB8ue170006INS_16reverse_iteratorIP6ImVec2EES4_NS_18__unwrap_iter_implIS4_Lb0EEEEET_S7_T0_, symObjAddr: 0xAAE0, symBinAddr: 0x10000DB9C, symSize: 0x74 }
  - { offsetInCU: 0x1C3F2, offset: 0x1C3F2, size: 0x8, addend: 0x0, symName: __ZNSt3__1neB8ue170006IP6ImVec2S2_EEbRKNS_16reverse_iteratorIT_EERKNS3_IT0_EE, symObjAddr: 0xAC48, symBinAddr: 0x10000DD04, symSize: 0x48 }
  - { offsetInCU: 0x1C589, offset: 0x1C589, size: 0x8, addend: 0x0, symName: __ZNSt3__13maxB8ue170006IiNS_6__lessIvvEEEERKT_S5_S5_T0_, symObjAddr: 0xB078, symBinAddr: 0x10000E134, symSize: 0x54 }
  - { offsetInCU: 0x1C5E3, offset: 0x1C5E3, size: 0x8, addend: 0x0, symName: __ZNSt3__1miB8ue170006IPK6ImVec2S3_EEDTmicldtfp_4baseEcldtfp0_4baseEERKNS_11__wrap_iterIT_EERKNS5_IT0_EE, symObjAddr: 0xB100, symBinAddr: 0x10000E1BC, symSize: 0x48 }
  - { offsetInCU: 0x1C62F, offset: 0x1C62F, size: 0x8, addend: 0x0, symName: __ZNSt3__14moveB8ue170006IP6ImVec2S2_EET0_T_S4_S3_, symObjAddr: 0xB174, symBinAddr: 0x10000E230, symSize: 0x40 }
  - { offsetInCU: 0x1C689, offset: 0x1C689, size: 0x8, addend: 0x0, symName: __ZNSt3__16__moveB8ue170006INS_17_ClassicAlgPolicyEP6ImVec2S3_S3_EENS_4pairIT0_T2_EES5_T1_S6_, symObjAddr: 0xB2B0, symBinAddr: 0x10000E36C, symSize: 0x44 }
  - { offsetInCU: 0x1C6F5, offset: 0x1C6F5, size: 0x8, addend: 0x0, symName: __ZNSt3__123__dispatch_copy_or_moveB8ue170006INS_17_ClassicAlgPolicyENS_11__move_loopIS1_EENS_14__move_trivialEP6ImVec2S6_S6_EENS_4pairIT2_T4_EES8_T3_S9_, symObjAddr: 0xB2F4, symBinAddr: 0x10000E3B0, symSize: 0x44 }
  - { offsetInCU: 0x1C773, offset: 0x1C773, size: 0x8, addend: 0x0, symName: __ZNSt3__121__unwrap_and_dispatchB8ue170006INS_10__overloadINS_11__move_loopINS_17_ClassicAlgPolicyEEENS_14__move_trivialEEEP6ImVec2S8_S8_Li0EEENS_4pairIT0_T2_EESA_T1_SB_, symObjAddr: 0xB338, symBinAddr: 0x10000E3F4, symSize: 0xB4 }
  - { offsetInCU: 0x1C801, offset: 0x1C801, size: 0x8, addend: 0x0, symName: __ZNSt3__114__unwrap_rangeB8ue170006IP6ImVec2S2_EEDaT_T0_, symObjAddr: 0xB3EC, symBinAddr: 0x10000E4A8, symSize: 0x3C }
  - { offsetInCU: 0x1C996, offset: 0x1C996, size: 0x8, addend: 0x0, symName: __ZNSt3__113__unwrap_iterB8ue170006IP6ImVec2NS_18__unwrap_iter_implIS2_Lb1EEELi0EEEDTclsrT0_8__unwrapclsr3stdE7declvalIT_EEEES6_, symObjAddr: 0xB470, symBinAddr: 0x10000E52C, symSize: 0x24 }
  - { offsetInCU: 0x1C9DB, offset: 0x1C9DB, size: 0x8, addend: 0x0, symName: __ZNSt3__19make_pairB8ue170006IP6ImVec2S2_EENS_4pairINS_18__unwrap_ref_decayIT_E4typeENS4_IT0_E4typeEEEOS5_OS8_, symObjAddr: 0xB494, symBinAddr: 0x10000E550, symSize: 0x38 }
  - { offsetInCU: 0x1CA2C, offset: 0x1CA2C, size: 0x8, addend: 0x0, symName: __ZNSt3__114__rewrap_rangeB8ue170006IP6ImVec2S2_S2_EET0_S3_T1_, symObjAddr: 0xB4CC, symBinAddr: 0x10000E588, symSize: 0x2C }
  - { offsetInCU: 0x1CA81, offset: 0x1CA81, size: 0x8, addend: 0x0, symName: __ZNSt3__113__rewrap_iterB8ue170006IP6ImVec2S2_NS_18__unwrap_iter_implIS2_Lb1EEEEET_S5_T0_, symObjAddr: 0xB4F8, symBinAddr: 0x10000E5B4, symSize: 0x3C }
  - { offsetInCU: 0x1CB26, offset: 0x1CB26, size: 0x8, addend: 0x0, symName: __ZNSt3__119__copy_trivial_implB8ue170006I6ImVec2S1_EENS_4pairIPT_PT0_EES4_S4_S6_, symObjAddr: 0xB5FC, symBinAddr: 0x10000E6B8, symSize: 0x80 }
  - { offsetInCU: 0x1CB8E, offset: 0x1CB8E, size: 0x8, addend: 0x0, symName: __ZNSt3__119__constexpr_memmoveB8ue170006I6ImVec2S1_Li0EEEPT_S3_PT0_NS_15__element_countE, symObjAddr: 0xB67C, symBinAddr: 0x10000E738, symSize: 0x64 }
  - { offsetInCU: 0x1CBFD, offset: 0x1CBFD, size: 0x8, addend: 0x0, symName: __ZNSt3__19make_pairB8ue170006IRP6ImVec2S2_EENS_4pairINS_18__unwrap_ref_decayIT_E4typeENS5_IT0_E4typeEEEOS6_OS9_, symObjAddr: 0xB6E0, symBinAddr: 0x10000E79C, symSize: 0x38 }
  - { offsetInCU: 0x1CCA1, offset: 0x1CCA1, size: 0x8, addend: 0x0, symName: __ZNSt3__14moveB8ue170006INS_11__wrap_iterIPN8nlohmann16json_abi_v3_12_010basic_jsonINS_3mapENS_6vectorENS_12basic_stringIcNS_11char_traitsIcEENS_9allocatorIcEEEEbxydSA_NS3_14adl_serializerENS6_IhNSA_IhEEEEvEEEENS_20back_insert_iteratorINS6_ISG_NSA_ISG_EEEEEEEET0_T_SO_SN_, symObjAddr: 0xC368, symBinAddr: 0x10000F424, symSize: 0x60 }
  - { offsetInCU: 0x1CCFB, offset: 0x1CCFB, size: 0x8, addend: 0x0, symName: __ZNSt3__113back_inserterB8ue170006INS_6vectorIN8nlohmann16json_abi_v3_12_010basic_jsonINS_3mapES1_NS_12basic_stringIcNS_11char_traitsIcEENS_9allocatorIcEEEEbxydS9_NS3_14adl_serializerENS1_IhNS9_IhEEEEvEENS9_ISF_EEEEEENS_20back_insert_iteratorIT_EERSJ_, symObjAddr: 0xC428, symBinAddr: 0x10000F4E4, symSize: 0x2C }
  - { offsetInCU: 0x1CD31, offset: 0x1CD31, size: 0x8, addend: 0x0, symName: __ZNSt3__1neB8ue170006ERKNS_14__map_iteratorINS_15__tree_iteratorINS_12__value_typeINS_12basic_stringIcNS_11char_traitsIcEENS_9allocatorIcEEEEN8nlohmann16json_abi_v3_12_010basic_jsonINS_3mapENS_6vectorES8_bxydS6_NSA_14adl_serializerENSD_IhNS6_IhEEEEvEEEEPNS_11__tree_nodeISI_PvEElEEEESQ_, symObjAddr: 0xC4EC, symBinAddr: 0x10000F5A8, symSize: 0x30 }
  - { offsetInCU: 0x1D27D, offset: 0x1D27D, size: 0x8, addend: 0x0, symName: __ZNSt3__119__allocate_at_leastB8ue170006INS_9allocatorIN8nlohmann16json_abi_v3_12_010basic_jsonINS_3mapENS_6vectorENS_12basic_stringIcNS_11char_traitsIcEENS1_IcEEEEbxydS1_NS3_14adl_serializerENS6_IhNS1_IhEEEEvEEEEEENS_19__allocation_resultINS_16allocator_traitsIT_E7pointerEEERSJ_m, symObjAddr: 0xCF60, symBinAddr: 0x10001001C, symSize: 0x40 }
  - { offsetInCU: 0x1D2C1, offset: 0x1D2C1, size: 0x8, addend: 0x0, symName: __ZNSt3__142__uninitialized_allocator_move_if_noexceptB8ue170006INS_9allocatorIN8nlohmann16json_abi_v3_12_010basic_jsonINS_3mapENS_6vectorENS_12basic_stringIcNS_11char_traitsIcEENS1_IcEEEEbxydS1_NS3_14adl_serializerENS6_IhNS1_IhEEEEvEEEENS_16reverse_iteratorIPSF_EESJ_SJ_EET2_RT_T0_T1_SK_, symObjAddr: 0xD1E0, symBinAddr: 0x10001029C, symSize: 0x12C }
  - { offsetInCU: 0x1D366, offset: 0x1D366, size: 0x8, addend: 0x0, symName: __ZNSt3__14swapB8ue170006IPN8nlohmann16json_abi_v3_12_010basic_jsonINS_3mapENS_6vectorENS_12basic_stringIcNS_11char_traitsIcEENS_9allocatorIcEEEEbxydS9_NS2_14adl_serializerENS5_IhNS9_IhEEEEvEEEENS_9enable_ifIXaasr21is_move_constructibleIT_EE5valuesr18is_move_assignableISI_EE5valueEvE4typeERSI_SL_, symObjAddr: 0xD358, symBinAddr: 0x100010414, symSize: 0x3C }
  - { offsetInCU: 0x1D3B8, offset: 0x1D3B8, size: 0x8, addend: 0x0, symName: __ZNSt3__112__to_addressB8ue170006IN8nlohmann16json_abi_v3_12_010basic_jsonINS_3mapENS_6vectorENS_12basic_stringIcNS_11char_traitsIcEENS_9allocatorIcEEEEbxydS9_NS2_14adl_serializerENS5_IhNS9_IhEEEEvEEEEPT_SH_, symObjAddr: 0xD4B0, symBinAddr: 0x10001056C, symSize: 0x14 }
  - { offsetInCU: 0x1D3ED, offset: 0x1D3ED, size: 0x8, addend: 0x0, symName: __ZNSt3__122__make_exception_guardB8ue170006INS_29_AllocatorDestroyRangeReverseINS_9allocatorIN8nlohmann16json_abi_v3_12_010basic_jsonINS_3mapENS_6vectorENS_12basic_stringIcNS_11char_traitsIcEENS2_IcEEEEbxydS2_NS4_14adl_serializerENS7_IhNS2_IhEEEEvEEEENS_16reverse_iteratorIPSG_EEEEEENS_28__exception_guard_exceptionsIT_EESN_, symObjAddr: 0xD4C4, symBinAddr: 0x100010580, symSize: 0x4C }
  - { offsetInCU: 0x1D423, offset: 0x1D423, size: 0x8, addend: 0x0, symName: __ZNSt3__1neB8ue170006IPN8nlohmann16json_abi_v3_12_010basic_jsonINS_3mapENS_6vectorENS_12basic_stringIcNS_11char_traitsIcEENS_9allocatorIcEEEEbxydS9_NS2_14adl_serializerENS5_IhNS9_IhEEEEvEESG_EEbRKNS_16reverse_iteratorIT_EERKNSH_IT0_EE, symObjAddr: 0xD554, symBinAddr: 0x100010610, symSize: 0x48 }
  - { offsetInCU: 0x1D46F, offset: 0x1D46F, size: 0x8, addend: 0x0, symName: __ZNSt3__112__to_addressB8ue170006INS_16reverse_iteratorIPN8nlohmann16json_abi_v3_12_010basic_jsonINS_3mapENS_6vectorENS_12basic_stringIcNS_11char_traitsIcEENS_9allocatorIcEEEEbxydSA_NS3_14adl_serializerENS6_IhNSA_IhEEEEvEEEEvEEu7__decayIDTclsr19__to_address_helperIT_EE6__callclsr3stdE7declvalIRKSJ_EEEEESL_, symObjAddr: 0xD5CC, symBinAddr: 0x100010688, symSize: 0x24 }
  - { offsetInCU: 0x1D4CC, offset: 0x1D4CC, size: 0x8, addend: 0x0, symName: __ZNSt3__112construct_atB8ue170006IN8nlohmann16json_abi_v3_12_010basic_jsonINS_3mapENS_6vectorENS_12basic_stringIcNS_11char_traitsIcEENS_9allocatorIcEEEEbxydS9_NS2_14adl_serializerENS5_IhNS9_IhEEEEvEEJSF_EPSF_EEPT_SI_DpOT0_, symObjAddr: 0xD71C, symBinAddr: 0x1000107D8, symSize: 0x3C }
  - { offsetInCU: 0x1D568, offset: 0x1D568, size: 0x8, addend: 0x0, symName: __ZNSt3__14prevB8ue170006IPN8nlohmann16json_abi_v3_12_010basic_jsonINS_3mapENS_6vectorENS_12basic_stringIcNS_11char_traitsIcEENS_9allocatorIcEEEEbxydS9_NS2_14adl_serializerENS5_IhNS9_IhEEEEvEEEENS_9enable_ifIXsr29__has_input_iterator_categoryIT_EE5valueESI_E4typeESI_NS_15iterator_traitsISI_E15difference_typeE, symObjAddr: 0xD7BC, symBinAddr: 0x100010878, symSize: 0x3C }
  - { offsetInCU: 0x1D5AC, offset: 0x1D5AC, size: 0x8, addend: 0x0, symName: __ZNSt3__19__advanceB8ue170006IPN8nlohmann16json_abi_v3_12_010basic_jsonINS_3mapENS_6vectorENS_12basic_stringIcNS_11char_traitsIcEENS_9allocatorIcEEEEbxydS9_NS2_14adl_serializerENS5_IhNS9_IhEEEEvEEEEvRT_NS_15iterator_traitsISH_E15difference_typeENS_26random_access_iterator_tagE, symObjAddr: 0xD830, symBinAddr: 0x1000108EC, symSize: 0x28 }
  - { offsetInCU: 0x1D5F6, offset: 0x1D5F6, size: 0x8, addend: 0x0, symName: __ZNSt3__119__allocator_destroyB8ue170006INS_9allocatorIN8nlohmann16json_abi_v3_12_010basic_jsonINS_3mapENS_6vectorENS_12basic_stringIcNS_11char_traitsIcEENS1_IcEEEEbxydS1_NS3_14adl_serializerENS6_IhNS1_IhEEEEvEEEENS_16reverse_iteratorINSH_IPSF_EEEESK_EEvRT_T0_T1_, symObjAddr: 0xD95C, symBinAddr: 0x100010A18, symSize: 0x70 }
  - { offsetInCU: 0x1D65E, offset: 0x1D65E, size: 0x8, addend: 0x0, symName: __ZNSt3__1neB8ue170006INS_16reverse_iteratorIPN8nlohmann16json_abi_v3_12_010basic_jsonINS_3mapENS_6vectorENS_12basic_stringIcNS_11char_traitsIcEENS_9allocatorIcEEEEbxydSA_NS3_14adl_serializerENS6_IhNSA_IhEEEEvEEEESI_EEbRKNS1_IT_EERKNS1_IT0_EE, symObjAddr: 0xDA08, symBinAddr: 0x100010AC4, symSize: 0x60 }
  - { offsetInCU: 0x1D6AA, offset: 0x1D6AA, size: 0x8, addend: 0x0, symName: __ZNSt3__112__to_addressB8ue170006INS_16reverse_iteratorINS1_IPN8nlohmann16json_abi_v3_12_010basic_jsonINS_3mapENS_6vectorENS_12basic_stringIcNS_11char_traitsIcEENS_9allocatorIcEEEEbxydSA_NS3_14adl_serializerENS6_IhNSA_IhEEEEvEEEEEEvEEu7__decayIDTclsr19__to_address_helperIT_EE6__callclsr3stdE7declvalIRKSK_EEEEESM_, symObjAddr: 0xDA90, symBinAddr: 0x100010B4C, symSize: 0x24 }
  - { offsetInCU: 0x1D6E0, offset: 0x1D6E0, size: 0x8, addend: 0x0, symName: __ZNSt3__110destroy_atB8ue170006IN8nlohmann16json_abi_v3_12_010basic_jsonINS_3mapENS_6vectorENS_12basic_stringIcNS_11char_traitsIcEENS_9allocatorIcEEEEbxydS9_NS2_14adl_serializerENS5_IhNS9_IhEEEEvEELi0EEEvPT_, symObjAddr: 0xDB08, symBinAddr: 0x100010BC4, symSize: 0x24 }
  - { offsetInCU: 0x1D717, offset: 0x1D717, size: 0x8, addend: 0x0, symName: __ZNSt3__112__destroy_atB8ue170006IN8nlohmann16json_abi_v3_12_010basic_jsonINS_3mapENS_6vectorENS_12basic_stringIcNS_11char_traitsIcEENS_9allocatorIcEEEEbxydS9_NS2_14adl_serializerENS5_IhNS9_IhEEEEvEELi0EEEvPT_, symObjAddr: 0xDB2C, symBinAddr: 0x100010BE8, symSize: 0x24 }
  - { offsetInCU: 0x1D778, offset: 0x1D778, size: 0x8, addend: 0x0, symName: __ZNSt3__14prevB8ue170006INS_16reverse_iteratorIPN8nlohmann16json_abi_v3_12_010basic_jsonINS_3mapENS_6vectorENS_12basic_stringIcNS_11char_traitsIcEENS_9allocatorIcEEEEbxydSA_NS3_14adl_serializerENS6_IhNSA_IhEEEEvEEEEEENS_9enable_ifIXsr29__has_input_iterator_categoryIT_EE5valueESK_E4typeESK_NS_15iterator_traitsISK_E15difference_typeE, symObjAddr: 0xDBD4, symBinAddr: 0x100010C90, symSize: 0x4C }
  - { offsetInCU: 0x1D7BB, offset: 0x1D7BB, size: 0x8, addend: 0x0, symName: __ZNSt3__19__advanceB8ue170006INS_16reverse_iteratorIPN8nlohmann16json_abi_v3_12_010basic_jsonINS_3mapENS_6vectorENS_12basic_stringIcNS_11char_traitsIcEENS_9allocatorIcEEEEbxydSA_NS3_14adl_serializerENS6_IhNSA_IhEEEEvEEEEEEvRT_NS_15iterator_traitsISJ_E15difference_typeENS_26random_access_iterator_tagE, symObjAddr: 0xDC58, symBinAddr: 0x100010D14, symSize: 0x2C }
  - { offsetInCU: 0x1D805, offset: 0x1D805, size: 0x8, addend: 0x0, symName: __ZNSt3__16__moveB8ue170006INS_17_ClassicAlgPolicyENS_11__wrap_iterIPN8nlohmann16json_abi_v3_12_010basic_jsonINS_3mapENS_6vectorENS_12basic_stringIcNS_11char_traitsIcEENS_9allocatorIcEEEEbxydSB_NS4_14adl_serializerENS7_IhNSB_IhEEEEvEEEESJ_NS_20back_insert_iteratorINS7_ISH_NSB_ISH_EEEEEEEENS_4pairIT0_T2_EESP_T1_SQ_, symObjAddr: 0xDFAC, symBinAddr: 0x100011068, symSize: 0x5C }
  - { offsetInCU: 0x1D871, offset: 0x1D871, size: 0x8, addend: 0x0, symName: __ZNSt3__123__dispatch_copy_or_moveB8ue170006INS_17_ClassicAlgPolicyENS_11__move_loopIS1_EENS_14__move_trivialENS_11__wrap_iterIPN8nlohmann16json_abi_v3_12_010basic_jsonINS_3mapENS_6vectorENS_12basic_stringIcNS_11char_traitsIcEENS_9allocatorIcEEEEbxydSE_NS7_14adl_serializerENSA_IhNSE_IhEEEEvEEEESM_NS_20back_insert_iteratorINSA_ISK_NSE_ISK_EEEEEEEENS_4pairIT2_T4_EESS_T3_ST_, symObjAddr: 0xE008, symBinAddr: 0x1000110C4, symSize: 0x5C }
  - { offsetInCU: 0x1D8EF, offset: 0x1D8EF, size: 0x8, addend: 0x0, symName: __ZNSt3__121__unwrap_and_dispatchB8ue170006INS_10__overloadINS_11__move_loopINS_17_ClassicAlgPolicyEEENS_14__move_trivialEEENS_11__wrap_iterIPN8nlohmann16json_abi_v3_12_010basic_jsonINS_3mapENS_6vectorENS_12basic_stringIcNS_11char_traitsIcEENS_9allocatorIcEEEEbxydSG_NS9_14adl_serializerENSC_IhNSG_IhEEEEvEEEESO_NS_20back_insert_iteratorINSC_ISM_NSG_ISM_EEEEEELi0EEENS_4pairIT0_T2_EESU_T1_SV_, symObjAddr: 0xE064, symBinAddr: 0x100011120, symSize: 0xE8 }
  - { offsetInCU: 0x1D97E, offset: 0x1D97E, size: 0x8, addend: 0x0, symName: __ZNSt3__114__unwrap_rangeB8ue170006INS_11__wrap_iterIPN8nlohmann16json_abi_v3_12_010basic_jsonINS_3mapENS_6vectorENS_12basic_stringIcNS_11char_traitsIcEENS_9allocatorIcEEEEbxydSA_NS3_14adl_serializerENS6_IhNSA_IhEEEEvEEEESI_EEDaT_T0_, symObjAddr: 0xE14C, symBinAddr: 0x100011208, symSize: 0x4C }
  - { offsetInCU: 0x1DA9E, offset: 0x1DA9E, size: 0x8, addend: 0x0, symName: __ZNSt3__113__unwrap_iterB8ue170006INS_20back_insert_iteratorINS_6vectorIN8nlohmann16json_abi_v3_12_010basic_jsonINS_3mapES2_NS_12basic_stringIcNS_11char_traitsIcEENS_9allocatorIcEEEEbxydSA_NS4_14adl_serializerENS2_IhNSA_IhEEEEvEENSA_ISG_EEEEEENS_18__unwrap_iter_implISJ_Lb0EEELi0EEEDTclsrT0_8__unwrapclsr3stdE7declvalIT_EEEESN_, symObjAddr: 0xE230, symBinAddr: 0x1000112EC, symSize: 0x34 }
  - { offsetInCU: 0x1DAE3, offset: 0x1DAE3, size: 0x8, addend: 0x0, symName: __ZNSt3__19make_pairB8ue170006INS_11__wrap_iterIPN8nlohmann16json_abi_v3_12_010basic_jsonINS_3mapENS_6vectorENS_12basic_stringIcNS_11char_traitsIcEENS_9allocatorIcEEEEbxydSA_NS3_14adl_serializerENS6_IhNSA_IhEEEEvEEEENS_20back_insert_iteratorINS6_ISG_NSA_ISG_EEEEEEEENS_4pairINS_18__unwrap_ref_decayIT_E4typeENSO_IT0_E4typeEEEOSP_OSS_, symObjAddr: 0xE264, symBinAddr: 0x100011320, symSize: 0x38 }
  - { offsetInCU: 0x1DB34, offset: 0x1DB34, size: 0x8, addend: 0x0, symName: __ZNSt3__114__rewrap_rangeB8ue170006INS_11__wrap_iterIPN8nlohmann16json_abi_v3_12_010basic_jsonINS_3mapENS_6vectorENS_12basic_stringIcNS_11char_traitsIcEENS_9allocatorIcEEEEbxydSA_NS3_14adl_serializerENS6_IhNSA_IhEEEEvEEEESI_SH_EET0_SJ_T1_, symObjAddr: 0xE29C, symBinAddr: 0x100011358, symSize: 0x3C }
  - { offsetInCU: 0x1DB89, offset: 0x1DB89, size: 0x8, addend: 0x0, symName: __ZNSt3__113__rewrap_iterB8ue170006INS_20back_insert_iteratorINS_6vectorIN8nlohmann16json_abi_v3_12_010basic_jsonINS_3mapES2_NS_12basic_stringIcNS_11char_traitsIcEENS_9allocatorIcEEEEbxydSA_NS4_14adl_serializerENS2_IhNSA_IhEEEEvEENSA_ISG_EEEEEESJ_NS_18__unwrap_iter_implISJ_Lb0EEEEET_SM_T0_, symObjAddr: 0xE2D8, symBinAddr: 0x100011394, symSize: 0x54 }
  - { offsetInCU: 0x1DCFA, offset: 0x1DCFA, size: 0x8, addend: 0x0, symName: __ZNSt3__113__unwrap_iterB8ue170006INS_11__wrap_iterIPN8nlohmann16json_abi_v3_12_010basic_jsonINS_3mapENS_6vectorENS_12basic_stringIcNS_11char_traitsIcEENS_9allocatorIcEEEEbxydSA_NS3_14adl_serializerENS6_IhNSA_IhEEEEvEEEENS_18__unwrap_iter_implISI_Lb1EEELi0EEEDTclsrT0_8__unwrapclsr3stdE7declvalIT_EEEESM_, symObjAddr: 0xE394, symBinAddr: 0x100011450, symSize: 0x2C }
  - { offsetInCU: 0x1DD91, offset: 0x1DD91, size: 0x8, addend: 0x0, symName: __ZNSt3__112__to_addressB8ue170006INS_11__wrap_iterIPN8nlohmann16json_abi_v3_12_010basic_jsonINS_3mapENS_6vectorENS_12basic_stringIcNS_11char_traitsIcEENS_9allocatorIcEEEEbxydSA_NS3_14adl_serializerENS6_IhNSA_IhEEEEvEEEEvEEu7__decayIDTclsr19__to_address_helperIT_EE6__callclsr3stdE7declvalIRKSJ_EEEEESL_, symObjAddr: 0xE424, symBinAddr: 0x1000114E0, symSize: 0x24 }
  - { offsetInCU: 0x1DE54, offset: 0x1DE54, size: 0x8, addend: 0x0, symName: __ZNSt3__19make_pairB8ue170006IPN8nlohmann16json_abi_v3_12_010basic_jsonINS_3mapENS_6vectorENS_12basic_stringIcNS_11char_traitsIcEENS_9allocatorIcEEEEbxydS9_NS2_14adl_serializerENS5_IhNS9_IhEEEEvEENS_20back_insert_iteratorINS5_ISF_NS9_ISF_EEEEEEEENS_4pairINS_18__unwrap_ref_decayIT_E4typeENSM_IT0_E4typeEEEOSN_OSQ_, symObjAddr: 0xE578, symBinAddr: 0x100011634, symSize: 0x38 }
  - { offsetInCU: 0x1DFC1, offset: 0x1DFC1, size: 0x8, addend: 0x0, symName: __ZNSt3__113__rewrap_iterB8ue170006INS_11__wrap_iterIPN8nlohmann16json_abi_v3_12_010basic_jsonINS_3mapENS_6vectorENS_12basic_stringIcNS_11char_traitsIcEENS_9allocatorIcEEEEbxydSA_NS3_14adl_serializerENS6_IhNSA_IhEEEEvEEEESH_NS_18__unwrap_iter_implISI_Lb1EEEEET_SL_T0_, symObjAddr: 0xE6EC, symBinAddr: 0x1000117A8, symSize: 0x4C }
  - { offsetInCU: 0x1E04A, offset: 0x1E04A, size: 0x8, addend: 0x0, symName: __ZNSt3__1neB8ue170006ERKNS_15__tree_iteratorINS_12__value_typeINS_12basic_stringIcNS_11char_traitsIcEENS_9allocatorIcEEEEN8nlohmann16json_abi_v3_12_010basic_jsonINS_3mapENS_6vectorES7_bxydS5_NS9_14adl_serializerENSC_IhNS5_IhEEEEvEEEEPNS_11__tree_nodeISH_PvEElEESO_, symObjAddr: 0xEAEC, symBinAddr: 0x100011BA8, symSize: 0x34 }
  - { offsetInCU: 0x1E08A, offset: 0x1E08A, size: 0x8, addend: 0x0, symName: __ZNSt3__1eqB8ue170006ERKNS_15__tree_iteratorINS_12__value_typeINS_12basic_stringIcNS_11char_traitsIcEENS_9allocatorIcEEEEN8nlohmann16json_abi_v3_12_010basic_jsonINS_3mapENS_6vectorES7_bxydS5_NS9_14adl_serializerENSC_IhNS5_IhEEEEvEEEEPNS_11__tree_nodeISH_PvEElEESO_, symObjAddr: 0xEB20, symBinAddr: 0x100011BDC, symSize: 0x30 }
  - { offsetInCU: 0x1E0FD, offset: 0x1E0FD, size: 0x8, addend: 0x0, symName: __ZNSt3__17launderB8ue170006INS_4pairIKNS_12basic_stringIcNS_11char_traitsIcEENS_9allocatorIcEEEEN8nlohmann16json_abi_v3_12_010basic_jsonINS_3mapENS_6vectorES7_bxydS5_NSA_14adl_serializerENSD_IhNS5_IhEEEEvEEEEEEPT_SK_, symObjAddr: 0xEBCC, symBinAddr: 0x100011C88, symSize: 0x24 }
  - { offsetInCU: 0x1E136, offset: 0x1E136, size: 0x8, addend: 0x0, symName: __ZNSt3__19__launderB8ue170006INS_4pairIKNS_12basic_stringIcNS_11char_traitsIcEENS_9allocatorIcEEEEN8nlohmann16json_abi_v3_12_010basic_jsonINS_3mapENS_6vectorES7_bxydS5_NSA_14adl_serializerENSD_IhNS5_IhEEEEvEEEEEEPT_SK_, symObjAddr: 0xEBF0, symBinAddr: 0x100011CAC, symSize: 0x14 }
  - { offsetInCU: 0x1E16E, offset: 0x1E16E, size: 0x8, addend: 0x0, symName: __ZNSt3__116__tree_next_iterB8ue170006IPNS_15__tree_end_nodeIPNS_16__tree_node_baseIPvEEEES5_EET_T0_, symObjAddr: 0xEF24, symBinAddr: 0x100011FE0, symSize: 0x90 }
  - { offsetInCU: 0x1E1AD, offset: 0x1E1AD, size: 0x8, addend: 0x0, symName: __ZNSt3__110__tree_minB8ue170006IPNS_16__tree_node_baseIPvEEEET_S5_, symObjAddr: 0xEFB4, symBinAddr: 0x100012070, symSize: 0x40 }
  - { offsetInCU: 0x1E1E3, offset: 0x1E1E3, size: 0x8, addend: 0x0, symName: __ZNSt3__120__tree_is_left_childB8ue170006IPNS_16__tree_node_baseIPvEEEEbT_, symObjAddr: 0xEFF4, symBinAddr: 0x1000120B0, symSize: 0x2C }
  - { offsetInCU: 0x1E218, offset: 0x1E218, size: 0x8, addend: 0x0, symName: __ZNSt3__110destroy_atB8ue170006INS_4pairIKNS_12basic_stringIcNS_11char_traitsIcEENS_9allocatorIcEEEEN8nlohmann16json_abi_v3_12_010basic_jsonINS_3mapENS_6vectorES7_bxydS5_NSA_14adl_serializerENSD_IhNS5_IhEEEEvEEEELi0EEEvPT_, symObjAddr: 0xF4CC, symBinAddr: 0x100012588, symSize: 0x24 }
  - { offsetInCU: 0x1E24F, offset: 0x1E24F, size: 0x8, addend: 0x0, symName: __ZNSt3__112__destroy_atB8ue170006INS_4pairIKNS_12basic_stringIcNS_11char_traitsIcEENS_9allocatorIcEEEEN8nlohmann16json_abi_v3_12_010basic_jsonINS_3mapENS_6vectorES7_bxydS5_NSA_14adl_serializerENSD_IhNS5_IhEEEEvEEEELi0EEEvPT_, symObjAddr: 0xF4F0, symBinAddr: 0x1000125AC, symSize: 0x24 }
  - { offsetInCU: 0x1E286, offset: 0x1E286, size: 0x8, addend: 0x0, symName: __ZNSt3__110destroy_atB8ue170006INS_3mapINS_12basic_stringIcNS_11char_traitsIcEENS_9allocatorIcEEEEN8nlohmann16json_abi_v3_12_010basic_jsonIS1_NS_6vectorES7_bxydS5_NS9_14adl_serializerENSB_IhNS5_IhEEEEvEENS_4lessIvEENS5_INS_4pairIKS7_SF_EEEEEELi0EEEvPT_, symObjAddr: 0xF7C0, symBinAddr: 0x10001287C, symSize: 0x24 }
  - { offsetInCU: 0x1E2BD, offset: 0x1E2BD, size: 0x8, addend: 0x0, symName: __ZNSt3__112__destroy_atB8ue170006INS_3mapINS_12basic_stringIcNS_11char_traitsIcEENS_9allocatorIcEEEEN8nlohmann16json_abi_v3_12_010basic_jsonIS1_NS_6vectorES7_bxydS5_NS9_14adl_serializerENSB_IhNS5_IhEEEEvEENS_4lessIvEENS5_INS_4pairIKS7_SF_EEEEEELi0EEEvPT_, symObjAddr: 0xF7E4, symBinAddr: 0x1000128A0, symSize: 0x24 }
  - { offsetInCU: 0x1E2F4, offset: 0x1E2F4, size: 0x8, addend: 0x0, symName: __ZNSt3__110destroy_atB8ue170006INS_6vectorIN8nlohmann16json_abi_v3_12_010basic_jsonINS_3mapES1_NS_12basic_stringIcNS_11char_traitsIcEENS_9allocatorIcEEEEbxydS9_NS3_14adl_serializerENS1_IhNS9_IhEEEEvEENS9_ISF_EEEELi0EEEvPT_, symObjAddr: 0xF948, symBinAddr: 0x100012A04, symSize: 0x24 }
  - { offsetInCU: 0x1E32B, offset: 0x1E32B, size: 0x8, addend: 0x0, symName: __ZNSt3__112__destroy_atB8ue170006INS_6vectorIN8nlohmann16json_abi_v3_12_010basic_jsonINS_3mapES1_NS_12basic_stringIcNS_11char_traitsIcEENS_9allocatorIcEEEEbxydS9_NS3_14adl_serializerENS1_IhNS9_IhEEEEvEENS9_ISF_EEEELi0EEEvPT_, symObjAddr: 0xF96C, symBinAddr: 0x100012A28, symSize: 0x24 }
  - { offsetInCU: 0x1E362, offset: 0x1E362, size: 0x8, addend: 0x0, symName: __ZNSt3__110destroy_atB8ue170006INS_12basic_stringIcNS_11char_traitsIcEENS_9allocatorIcEEEELi0EEEvPT_, symObjAddr: 0xFA14, symBinAddr: 0x100012AD0, symSize: 0x24 }
  - { offsetInCU: 0x1E399, offset: 0x1E399, size: 0x8, addend: 0x0, symName: __ZNSt3__112__destroy_atB8ue170006INS_12basic_stringIcNS_11char_traitsIcEENS_9allocatorIcEEEELi0EEEvPT_, symObjAddr: 0xFA38, symBinAddr: 0x100012AF4, symSize: 0x24 }
  - { offsetInCU: 0x1E3D0, offset: 0x1E3D0, size: 0x8, addend: 0x0, symName: __ZNSt3__110destroy_atB8ue170006IN8nlohmann16json_abi_v3_12_027byte_container_with_subtypeINS_6vectorIhNS_9allocatorIhEEEEEELi0EEEvPT_, symObjAddr: 0xFAE0, symBinAddr: 0x100012B9C, symSize: 0x24 }
  - { offsetInCU: 0x1E407, offset: 0x1E407, size: 0x8, addend: 0x0, symName: __ZNSt3__112__destroy_atB8ue170006IN8nlohmann16json_abi_v3_12_027byte_container_with_subtypeINS_6vectorIhNS_9allocatorIhEEEEEELi0EEEvPT_, symObjAddr: 0xFB04, symBinAddr: 0x100012BC0, symSize: 0x24 }
  - { offsetInCU: 0x1E43F, offset: 0x1E43F, size: 0x8, addend: 0x0, symName: __ZNSt3__112__to_addressB8ue170006IhEEPT_S2_, symObjAddr: 0xFED0, symBinAddr: 0x100012F8C, symSize: 0x14 }
  - { offsetInCU: 0x1E474, offset: 0x1E474, size: 0x8, addend: 0x0, symName: __ZNSt3__110destroy_atB8ue170006IhLi0EEEvPT_, symObjAddr: 0xFEE4, symBinAddr: 0x100012FA0, symSize: 0x24 }
  - { offsetInCU: 0x1E4AC, offset: 0x1E4AC, size: 0x8, addend: 0x0, symName: __ZNSt3__112__destroy_atB8ue170006IhLi0EEEvPT_, symObjAddr: 0xFF08, symBinAddr: 0x100012FC4, symSize: 0x10 }
  - { offsetInCU: 0x1E82F, offset: 0x1E82F, size: 0x8, addend: 0x0, symName: __ZNSt3__1eqB8ue170006INS_12basic_stringIcNS_11char_traitsIcEENS_9allocatorIcEEEEZN8nlohmann16json_abi_v3_12_010basic_jsonINS_3mapENS_6vectorES6_bxydS4_NS8_14adl_serializerENSB_IhNS4_IhEEEEvE6createIS6_JRA9_KcEEEPT_DpOT0_EUlPS6_E_EEbRKNS_10unique_ptrISK_T0_EEDn, symObjAddr: 0x10478, symBinAddr: 0x100013534, symSize: 0x30 }
  - { offsetInCU: 0x1E8A3, offset: 0x1E8A3, size: 0x8, addend: 0x0, symName: __ZNSt3__112construct_atB8ue170006INS_12basic_stringIcNS_11char_traitsIcEENS_9allocatorIcEEEEJRA9_KcEPS6_EEPT_SC_DpOT0_, symObjAddr: 0x106B0, symBinAddr: 0x10001376C, symSize: 0x3C }
  - { offsetInCU: 0x1EC56, offset: 0x1EC56, size: 0x8, addend: 0x0, symName: __ZNSt3__1eqB8ue170006INS_12basic_stringIcNS_11char_traitsIcEENS_9allocatorIcEEEEZN8nlohmann16json_abi_v3_12_010basic_jsonINS_3mapENS_6vectorES6_bxydS4_NS8_14adl_serializerENSB_IhNS4_IhEEEEvE6createIS6_JRA6_KcEEEPT_DpOT0_EUlPS6_E_EEbRKNS_10unique_ptrISK_T0_EEDn, symObjAddr: 0x10C18, symBinAddr: 0x100013CD4, symSize: 0x30 }
  - { offsetInCU: 0x1ECA3, offset: 0x1ECA3, size: 0x8, addend: 0x0, symName: __ZNSt3__112construct_atB8ue170006INS_12basic_stringIcNS_11char_traitsIcEENS_9allocatorIcEEEEJRA6_KcEPS6_EEPT_SC_DpOT0_, symObjAddr: 0x10DA8, symBinAddr: 0x100013E64, symSize: 0x3C }
  - { offsetInCU: 0x1F056, offset: 0x1F056, size: 0x8, addend: 0x0, symName: __ZNSt3__1eqB8ue170006INS_12basic_stringIcNS_11char_traitsIcEENS_9allocatorIcEEEEZN8nlohmann16json_abi_v3_12_010basic_jsonINS_3mapENS_6vectorES6_bxydS4_NS8_14adl_serializerENSB_IhNS4_IhEEEEvE6createIS6_JRA5_KcEEEPT_DpOT0_EUlPS6_E_EEbRKNS_10unique_ptrISK_T0_EEDn, symObjAddr: 0x112E8, symBinAddr: 0x1000143A4, symSize: 0x30 }
  - { offsetInCU: 0x1F0A3, offset: 0x1F0A3, size: 0x8, addend: 0x0, symName: __ZNSt3__112construct_atB8ue170006INS_12basic_stringIcNS_11char_traitsIcEENS_9allocatorIcEEEEJRA5_KcEPS6_EEPT_SC_DpOT0_, symObjAddr: 0x11478, symBinAddr: 0x100014534, symSize: 0x3C }
  - { offsetInCU: 0x1F456, offset: 0x1F456, size: 0x8, addend: 0x0, symName: __ZNSt3__1eqB8ue170006INS_12basic_stringIcNS_11char_traitsIcEENS_9allocatorIcEEEEZN8nlohmann16json_abi_v3_12_010basic_jsonINS_3mapENS_6vectorES6_bxydS4_NS8_14adl_serializerENSB_IhNS4_IhEEEEvE6createIS6_JS6_EEEPT_DpOT0_EUlPS6_E_EEbRKNS_10unique_ptrISH_T0_EEDn, symObjAddr: 0x11A30, symBinAddr: 0x100014AEC, symSize: 0x30 }
  - { offsetInCU: 0x1F4A3, offset: 0x1F4A3, size: 0x8, addend: 0x0, symName: __ZNSt3__112construct_atB8ue170006INS_12basic_stringIcNS_11char_traitsIcEENS_9allocatorIcEEEEJS6_EPS6_EEPT_S9_DpOT0_, symObjAddr: 0x11BC0, symBinAddr: 0x100014C7C, symSize: 0x3C }
  - { offsetInCU: 0x1F515, offset: 0x1F515, size: 0x8, addend: 0x0, symName: __ZNSt3__16all_ofB8ue170006IPKN8nlohmann16json_abi_v3_12_06detail8json_refINS2_10basic_jsonINS_3mapENS_6vectorENS_12basic_stringIcNS_11char_traitsIcEENS_9allocatorIcEEEEbxydSB_NS2_14adl_serializerENS7_IhNSB_IhEEEEvEEEEZNSH_C1ESt16initializer_listISI_EbNS3_7value_tEEUlRSJ_E_EEbT_SQ_T0_, symObjAddr: 0x12158, symBinAddr: 0x100015214, symSize: 0x94 }
  - { offsetInCU: 0x1F96F, offset: 0x1F96F, size: 0x8, addend: 0x0, symName: __ZNSt3__1eqB8ue170006INS_3mapINS_12basic_stringIcNS_11char_traitsIcEENS_9allocatorIcEEEEN8nlohmann16json_abi_v3_12_010basic_jsonIS1_NS_6vectorES7_bxydS5_NS9_14adl_serializerENSB_IhNS5_IhEEEEvEENS_4lessIvEENS5_INS_4pairIKS7_SF_EEEEEEZNSF_6createISM_JEEEPT_DpOT0_EUlPSM_E_EEbRKNS_10unique_ptrISO_T0_EEDn, symObjAddr: 0x13084, symBinAddr: 0x100016140, symSize: 0x30 }
  - { offsetInCU: 0x1F9E3, offset: 0x1F9E3, size: 0x8, addend: 0x0, symName: __ZNSt3__112construct_atB8ue170006INS_3mapINS_12basic_stringIcNS_11char_traitsIcEENS_9allocatorIcEEEEN8nlohmann16json_abi_v3_12_010basic_jsonIS1_NS_6vectorES7_bxydS5_NS9_14adl_serializerENSB_IhNS5_IhEEEEvEENS_4lessIvEENS5_INS_4pairIKS7_SF_EEEEEEJEPSM_EEPT_SP_DpOT0_, symObjAddr: 0x132BC, symBinAddr: 0x100016378, symSize: 0x34 }
  - { offsetInCU: 0x1FE41, offset: 0x1FE41, size: 0x8, addend: 0x0, symName: __ZNSt3__1eqB8ue170006INS_6vectorIN8nlohmann16json_abi_v3_12_010basic_jsonINS_3mapES1_NS_12basic_stringIcNS_11char_traitsIcEENS_9allocatorIcEEEEbxydS9_NS3_14adl_serializerENS1_IhNS9_IhEEEEvEENS9_ISF_EEEEZNSF_6createISH_JEEEPT_DpOT0_EUlPSH_E_EEbRKNS_10unique_ptrISJ_T0_EEDn, symObjAddr: 0x138C0, symBinAddr: 0x10001697C, symSize: 0x30 }
  - { offsetInCU: 0x1FEB5, offset: 0x1FEB5, size: 0x8, addend: 0x0, symName: __ZNSt3__112construct_atB8ue170006INS_6vectorIN8nlohmann16json_abi_v3_12_010basic_jsonINS_3mapES1_NS_12basic_stringIcNS_11char_traitsIcEENS_9allocatorIcEEEEbxydS9_NS3_14adl_serializerENS1_IhNS9_IhEEEEvEENS9_ISF_EEEEJEPSH_EEPT_SK_DpOT0_, symObjAddr: 0x13AF8, symBinAddr: 0x100016BB4, symSize: 0x34 }
  - { offsetInCU: 0x20254, offset: 0x20254, size: 0x8, addend: 0x0, symName: __ZNSt3__1eqB8ue170006INS_12basic_stringIcNS_11char_traitsIcEENS_9allocatorIcEEEEZN8nlohmann16json_abi_v3_12_010basic_jsonINS_3mapENS_6vectorES6_bxydS4_NS8_14adl_serializerENSB_IhNS4_IhEEEEvE6createIS6_JRA1_KcEEEPT_DpOT0_EUlPS6_E_EEbRKNS_10unique_ptrISK_T0_EEDn, symObjAddr: 0x13D84, symBinAddr: 0x100016E40, symSize: 0x30 }
  - { offsetInCU: 0x202A1, offset: 0x202A1, size: 0x8, addend: 0x0, symName: __ZNSt3__112construct_atB8ue170006INS_12basic_stringIcNS_11char_traitsIcEENS_9allocatorIcEEEEJRA1_KcEPS6_EEPT_SC_DpOT0_, symObjAddr: 0x13F14, symBinAddr: 0x100016FD0, symSize: 0x3C }
  - { offsetInCU: 0x20713, offset: 0x20713, size: 0x8, addend: 0x0, symName: __ZNSt3__1eqB8ue170006IN8nlohmann16json_abi_v3_12_027byte_container_with_subtypeINS_6vectorIhNS_9allocatorIhEEEEEEZNS2_10basic_jsonINS_3mapES4_NS_12basic_stringIcNS_11char_traitsIcEENS5_IcEEEEbxydS5_NS2_14adl_serializerES7_vE6createIS8_JEEEPT_DpOT0_EUlPS8_E_EEbRKNS_10unique_ptrISJ_T0_EEDn, symObjAddr: 0x141A4, symBinAddr: 0x100017260, symSize: 0x30 }
  - { offsetInCU: 0x20787, offset: 0x20787, size: 0x8, addend: 0x0, symName: __ZNSt3__112construct_atB8ue170006IN8nlohmann16json_abi_v3_12_027byte_container_with_subtypeINS_6vectorIhNS_9allocatorIhEEEEEEJEPS8_EEPT_SB_DpOT0_, symObjAddr: 0x143DC, symBinAddr: 0x100017498, symSize: 0x34 }
  - { offsetInCU: 0x20B26, offset: 0x20B26, size: 0x8, addend: 0x0, symName: __ZNSt3__1eqB8ue170006INS_3mapINS_12basic_stringIcNS_11char_traitsIcEENS_9allocatorIcEEEEN8nlohmann16json_abi_v3_12_010basic_jsonIS1_NS_6vectorES7_bxydS5_NS9_14adl_serializerENSB_IhNS5_IhEEEEvEENS_4lessIvEENS5_INS_4pairIKS7_SF_EEEEEEZNSF_6createISM_JRKSM_EEEPT_DpOT0_EUlPSM_E_EEbRKNS_10unique_ptrISQ_T0_EEDn, symObjAddr: 0x14E34, symBinAddr: 0x100017EF0, symSize: 0x30 }
  - { offsetInCU: 0x20B73, offset: 0x20B73, size: 0x8, addend: 0x0, symName: __ZNSt3__112construct_atB8ue170006INS_3mapINS_12basic_stringIcNS_11char_traitsIcEENS_9allocatorIcEEEEN8nlohmann16json_abi_v3_12_010basic_jsonIS1_NS_6vectorES7_bxydS5_NS9_14adl_serializerENSB_IhNS5_IhEEEEvEENS_4lessIvEENS5_INS_4pairIKS7_SF_EEEEEEJRKSM_EPSM_EEPT_SR_DpOT0_, symObjAddr: 0x14FC4, symBinAddr: 0x100018080, symSize: 0x3C }
  - { offsetInCU: 0x20BE6, offset: 0x20BE6, size: 0x8, addend: 0x0, symName: __ZNSt3__1neB8ue170006ERKNS_20__map_const_iteratorINS_21__tree_const_iteratorINS_12__value_typeINS_12basic_stringIcNS_11char_traitsIcEENS_9allocatorIcEEEEN8nlohmann16json_abi_v3_12_010basic_jsonINS_3mapENS_6vectorES8_bxydS6_NSA_14adl_serializerENSD_IhNS6_IhEEEEvEEEEPNS_11__tree_nodeISI_PvEElEEEESQ_, symObjAddr: 0x15444, symBinAddr: 0x100018500, symSize: 0x30 }
  - { offsetInCU: 0x20C26, offset: 0x20C26, size: 0x8, addend: 0x0, symName: __ZNSt3__1neB8ue170006ERKNS_21__tree_const_iteratorINS_12__value_typeINS_12basic_stringIcNS_11char_traitsIcEENS_9allocatorIcEEEEN8nlohmann16json_abi_v3_12_010basic_jsonINS_3mapENS_6vectorES7_bxydS5_NS9_14adl_serializerENSC_IhNS5_IhEEEEvEEEEPNS_11__tree_nodeISH_PvEElEESO_, symObjAddr: 0x1554C, symBinAddr: 0x100018608, symSize: 0x34 }
  - { offsetInCU: 0x20C66, offset: 0x20C66, size: 0x8, addend: 0x0, symName: __ZNSt3__1eqB8ue170006ERKNS_21__tree_const_iteratorINS_12__value_typeINS_12basic_stringIcNS_11char_traitsIcEENS_9allocatorIcEEEEN8nlohmann16json_abi_v3_12_010basic_jsonINS_3mapENS_6vectorES7_bxydS5_NS9_14adl_serializerENSC_IhNS5_IhEEEEvEEEEPNS_11__tree_nodeISH_PvEElEESO_, symObjAddr: 0x15580, symBinAddr: 0x10001863C, symSize: 0x30 }
  - { offsetInCU: 0x20CC9, offset: 0x20CC9, size: 0x8, addend: 0x0, symName: __ZNSt3__14nextB8ue170006INS_21__tree_const_iteratorINS_12__value_typeINS_12basic_stringIcNS_11char_traitsIcEENS_9allocatorIcEEEEN8nlohmann16json_abi_v3_12_010basic_jsonINS_3mapENS_6vectorES8_bxydS6_NSA_14adl_serializerENSD_IhNS6_IhEEEEvEEEEPNS_11__tree_nodeISI_PvEElEEEENS_9enable_ifIXsr29__has_input_iterator_categoryIT_EE5valueESP_E4typeESP_NS_15iterator_traitsISP_E15difference_typeE, symObjAddr: 0x15FE4, symBinAddr: 0x1000190A0, symSize: 0x3C }
  - { offsetInCU: 0x20D0D, offset: 0x20D0D, size: 0x8, addend: 0x0, symName: __ZNSt3__1ltB8ue170006ENS_15strong_orderingENS_20_CmpUnspecifiedParamE, symObjAddr: 0x16104, symBinAddr: 0x1000191C0, symSize: 0x24 }
  - { offsetInCU: 0x20D49, offset: 0x20D49, size: 0x8, addend: 0x0, symName: __ZNSt3__1ssB8ue170006IcNS_11char_traitsIcEENS_9allocatorIcEEEEDaRKNS_12basic_stringIT_T0_T1_EESC_, symObjAddr: 0x16128, symBinAddr: 0x1000191E4, symSize: 0x5C }
  - { offsetInCU: 0x20DC0, offset: 0x20DC0, size: 0x8, addend: 0x0, symName: __ZNSt3__1ssB8ue170006IcNS_11char_traitsIcEEEEDaNS_17basic_string_viewIT_T0_EES7_, symObjAddr: 0x161B8, symBinAddr: 0x100019274, symSize: 0x7C }
  - { offsetInCU: 0x20E12, offset: 0x20E12, size: 0x8, addend: 0x0, symName: __ZNSt3__17launderB8ue170006IKNS_4pairIKNS_12basic_stringIcNS_11char_traitsIcEENS_9allocatorIcEEEEN8nlohmann16json_abi_v3_12_010basic_jsonINS_3mapENS_6vectorES7_bxydS5_NSA_14adl_serializerENSD_IhNS5_IhEEEEvEEEEEEPT_SL_, symObjAddr: 0x164A4, symBinAddr: 0x100019560, symSize: 0x24 }
  - { offsetInCU: 0x20E4B, offset: 0x20E4B, size: 0x8, addend: 0x0, symName: __ZNSt3__19__launderB8ue170006IKNS_4pairIKNS_12basic_stringIcNS_11char_traitsIcEENS_9allocatorIcEEEEN8nlohmann16json_abi_v3_12_010basic_jsonINS_3mapENS_6vectorES7_bxydS5_NSA_14adl_serializerENSD_IhNS5_IhEEEEvEEEEEEPT_SL_, symObjAddr: 0x164C8, symBinAddr: 0x100019584, symSize: 0x14 }
  - { offsetInCU: 0x20E83, offset: 0x20E83, size: 0x8, addend: 0x0, symName: __ZNSt3__116__tree_prev_iterB8ue170006IPNS_16__tree_node_baseIPvEEPNS_15__tree_end_nodeIS4_EEEET_T0_, symObjAddr: 0x164DC, symBinAddr: 0x100019598, symSize: 0x88 }
  - { offsetInCU: 0x20ED0, offset: 0x20ED0, size: 0x8, addend: 0x0, symName: __ZNSt3__110__tree_maxB8ue170006IPNS_16__tree_node_baseIPvEEEET_S5_, symObjAddr: 0x16564, symBinAddr: 0x100019620, symSize: 0x40 }
  - { offsetInCU: 0x20F05, offset: 0x20F05, size: 0x8, addend: 0x0, symName: __ZNSt3__19__advanceB8ue170006INS_21__tree_const_iteratorINS_12__value_typeINS_12basic_stringIcNS_11char_traitsIcEENS_9allocatorIcEEEEN8nlohmann16json_abi_v3_12_010basic_jsonINS_3mapENS_6vectorES8_bxydS6_NSA_14adl_serializerENSD_IhNS6_IhEEEEvEEEEPNS_11__tree_nodeISI_PvEElEEEEvRT_NS_15iterator_traitsISO_E15difference_typeENS_26bidirectional_iterator_tagE, symObjAddr: 0x16600, symBinAddr: 0x1000196BC, symSize: 0xA4 }
  - { offsetInCU: 0x20F94, offset: 0x20F94, size: 0x8, addend: 0x0, symName: __ZNSt3__112construct_atB8ue170006INS_4pairIKNS_12basic_stringIcNS_11char_traitsIcEENS_9allocatorIcEEEEN8nlohmann16json_abi_v3_12_010basic_jsonINS_3mapENS_6vectorES7_bxydS5_NSA_14adl_serializerENSD_IhNS5_IhEEEEvEEEEJRKSI_EPSI_EEPT_SN_DpOT0_, symObjAddr: 0x169D8, symBinAddr: 0x100019A94, symSize: 0x3C }
  - { offsetInCU: 0x21006, offset: 0x21006, size: 0x8, addend: 0x0, symName: __ZNSt3__127__tree_balance_after_insertB8ue170006IPNS_16__tree_node_baseIPvEEEEvT_S5_, symObjAddr: 0x16B2C, symBinAddr: 0x100019BE8, symSize: 0x27C }
  - { offsetInCU: 0x21084, offset: 0x21084, size: 0x8, addend: 0x0, symName: __ZNSt3__118__tree_left_rotateB8ue170006IPNS_16__tree_node_baseIPvEEEEvT_, symObjAddr: 0x16DA8, symBinAddr: 0x100019E64, symSize: 0xD8 }
  - { offsetInCU: 0x210C7, offset: 0x210C7, size: 0x8, addend: 0x0, symName: __ZNSt3__119__tree_right_rotateB8ue170006IPNS_16__tree_node_baseIPvEEEEvT_, symObjAddr: 0x16E80, symBinAddr: 0x100019F3C, symSize: 0xCC }
  - { offsetInCU: 0x2147E, offset: 0x2147E, size: 0x8, addend: 0x0, symName: __ZNSt3__1eqB8ue170006INS_6vectorIN8nlohmann16json_abi_v3_12_010basic_jsonINS_3mapES1_NS_12basic_stringIcNS_11char_traitsIcEENS_9allocatorIcEEEEbxydS9_NS3_14adl_serializerENS1_IhNS9_IhEEEEvEENS9_ISF_EEEEZNSF_6createISH_JRKSH_EEEPT_DpOT0_EUlPSH_E_EEbRKNS_10unique_ptrISL_T0_EEDn, symObjAddr: 0x175C4, symBinAddr: 0x10001A680, symSize: 0x30 }
  - { offsetInCU: 0x214CB, offset: 0x214CB, size: 0x8, addend: 0x0, symName: __ZNSt3__112construct_atB8ue170006INS_6vectorIN8nlohmann16json_abi_v3_12_010basic_jsonINS_3mapES1_NS_12basic_stringIcNS_11char_traitsIcEENS_9allocatorIcEEEEbxydS9_NS3_14adl_serializerENS1_IhNS9_IhEEEEvEENS9_ISF_EEEEJRKSH_EPSH_EEPT_SM_DpOT0_, symObjAddr: 0x17754, symBinAddr: 0x10001A810, symSize: 0x3C }
  - { offsetInCU: 0x2153D, offset: 0x2153D, size: 0x8, addend: 0x0, symName: __ZNSt3__122__make_exception_guardB8ue170006INS_6vectorIN8nlohmann16json_abi_v3_12_010basic_jsonINS_3mapES1_NS_12basic_stringIcNS_11char_traitsIcEENS_9allocatorIcEEEEbxydS9_NS3_14adl_serializerENS1_IhNS9_IhEEEEvEENS9_ISF_EEE16__destroy_vectorEEENS_28__exception_guard_exceptionsIT_EESK_, symObjAddr: 0x179B8, symBinAddr: 0x10001AA74, symSize: 0x40 }
  - { offsetInCU: 0x21573, offset: 0x21573, size: 0x8, addend: 0x0, symName: __ZNSt3__130__uninitialized_allocator_copyB8ue170006INS_9allocatorIN8nlohmann16json_abi_v3_12_010basic_jsonINS_3mapENS_6vectorENS_12basic_stringIcNS_11char_traitsIcEENS1_IcEEEEbxydS1_NS3_14adl_serializerENS6_IhNS1_IhEEEEvEEEEPSF_SH_SH_EET2_RT_T0_T1_SI_, symObjAddr: 0x17BD0, symBinAddr: 0x10001AC8C, symSize: 0x80 }
  - { offsetInCU: 0x21614, offset: 0x21614, size: 0x8, addend: 0x0, symName: __ZNSt3__114__unwrap_rangeB8ue170006IPN8nlohmann16json_abi_v3_12_010basic_jsonINS_3mapENS_6vectorENS_12basic_stringIcNS_11char_traitsIcEENS_9allocatorIcEEEEbxydS9_NS2_14adl_serializerENS5_IhNS9_IhEEEEvEESG_EEDaT_T0_, symObjAddr: 0x17C50, symBinAddr: 0x10001AD0C, symSize: 0x3C }
  - { offsetInCU: 0x21661, offset: 0x21661, size: 0x8, addend: 0x0, symName: __ZNSt3__135__uninitialized_allocator_copy_implB8ue170006INS_9allocatorIN8nlohmann16json_abi_v3_12_010basic_jsonINS_3mapENS_6vectorENS_12basic_stringIcNS_11char_traitsIcEENS1_IcEEEEbxydS1_NS3_14adl_serializerENS6_IhNS1_IhEEEEvEEEEPSF_SH_SH_EET2_RT_T0_T1_SI_, symObjAddr: 0x17C8C, symBinAddr: 0x10001AD48, symSize: 0xF4 }
  - { offsetInCU: 0x21703, offset: 0x21703, size: 0x8, addend: 0x0, symName: __ZNSt3__113__unwrap_iterB8ue170006IPN8nlohmann16json_abi_v3_12_010basic_jsonINS_3mapENS_6vectorENS_12basic_stringIcNS_11char_traitsIcEENS_9allocatorIcEEEEbxydS9_NS2_14adl_serializerENS5_IhNS9_IhEEEEvEENS_18__unwrap_iter_implISG_Lb1EEELi0EEEDTclsrT0_8__unwrapclsr3stdE7declvalIT_EEEESK_, symObjAddr: 0x17D80, symBinAddr: 0x10001AE3C, symSize: 0x24 }
  - { offsetInCU: 0x21747, offset: 0x21747, size: 0x8, addend: 0x0, symName: __ZNSt3__113__rewrap_iterB8ue170006IPN8nlohmann16json_abi_v3_12_010basic_jsonINS_3mapENS_6vectorENS_12basic_stringIcNS_11char_traitsIcEENS_9allocatorIcEEEEbxydS9_NS2_14adl_serializerENS5_IhNS9_IhEEEEvEESG_NS_18__unwrap_iter_implISG_Lb1EEEEET_SJ_T0_, symObjAddr: 0x17DA4, symBinAddr: 0x10001AE60, symSize: 0x3C }
  - { offsetInCU: 0x217EC, offset: 0x217EC, size: 0x8, addend: 0x0, symName: __ZNSt3__122__make_exception_guardB8ue170006INS_29_AllocatorDestroyRangeReverseINS_9allocatorIN8nlohmann16json_abi_v3_12_010basic_jsonINS_3mapENS_6vectorENS_12basic_stringIcNS_11char_traitsIcEENS2_IcEEEEbxydS2_NS4_14adl_serializerENS7_IhNS2_IhEEEEvEEEEPSG_EEEENS_28__exception_guard_exceptionsIT_EESL_, symObjAddr: 0x17E38, symBinAddr: 0x10001AEF4, symSize: 0x4C }
  - { offsetInCU: 0x21822, offset: 0x21822, size: 0x8, addend: 0x0, symName: __ZNSt3__112construct_atB8ue170006IN8nlohmann16json_abi_v3_12_010basic_jsonINS_3mapENS_6vectorENS_12basic_stringIcNS_11char_traitsIcEENS_9allocatorIcEEEEbxydS9_NS2_14adl_serializerENS5_IhNS9_IhEEEEvEEJRSF_EPSF_EEPT_SJ_DpOT0_, symObjAddr: 0x17FDC, symBinAddr: 0x10001B098, symSize: 0x3C }
  - { offsetInCU: 0x21894, offset: 0x21894, size: 0x8, addend: 0x0, symName: __ZNSt3__119__allocator_destroyB8ue170006INS_9allocatorIN8nlohmann16json_abi_v3_12_010basic_jsonINS_3mapENS_6vectorENS_12basic_stringIcNS_11char_traitsIcEENS1_IcEEEEbxydS1_NS3_14adl_serializerENS6_IhNS1_IhEEEEvEEEENS_16reverse_iteratorIPSF_EESJ_EEvRT_T0_T1_, symObjAddr: 0x180D0, symBinAddr: 0x10001B18C, symSize: 0x70 }
  - { offsetInCU: 0x21C8E, offset: 0x21C8E, size: 0x8, addend: 0x0, symName: __ZNSt3__1eqB8ue170006INS_12basic_stringIcNS_11char_traitsIcEENS_9allocatorIcEEEEZN8nlohmann16json_abi_v3_12_010basic_jsonINS_3mapENS_6vectorES6_bxydS4_NS8_14adl_serializerENSB_IhNS4_IhEEEEvE6createIS6_JRKS6_EEEPT_DpOT0_EUlPS6_E_EEbRKNS_10unique_ptrISJ_T0_EEDn, symObjAddr: 0x1855C, symBinAddr: 0x10001B618, symSize: 0x30 }
  - { offsetInCU: 0x21CDB, offset: 0x21CDB, size: 0x8, addend: 0x0, symName: __ZNSt3__112construct_atB8ue170006INS_12basic_stringIcNS_11char_traitsIcEENS_9allocatorIcEEEEJRKS6_EPS6_EEPT_SB_DpOT0_, symObjAddr: 0x186EC, symBinAddr: 0x10001B7A8, symSize: 0x3C }
  - { offsetInCU: 0x2208E, offset: 0x2208E, size: 0x8, addend: 0x0, symName: __ZNSt3__1eqB8ue170006IN8nlohmann16json_abi_v3_12_027byte_container_with_subtypeINS_6vectorIhNS_9allocatorIhEEEEEEZNS2_10basic_jsonINS_3mapES4_NS_12basic_stringIcNS_11char_traitsIcEENS5_IcEEEEbxydS5_NS2_14adl_serializerES7_vE6createIS8_JRKS8_EEEPT_DpOT0_EUlPS8_E_EEbRKNS_10unique_ptrISL_T0_EEDn, symObjAddr: 0x18B14, symBinAddr: 0x10001BBD0, symSize: 0x30 }
  - { offsetInCU: 0x220DB, offset: 0x220DB, size: 0x8, addend: 0x0, symName: __ZNSt3__112construct_atB8ue170006IN8nlohmann16json_abi_v3_12_027byte_container_with_subtypeINS_6vectorIhNS_9allocatorIhEEEEEEJRKS8_EPS8_EEPT_SD_DpOT0_, symObjAddr: 0x18CA4, symBinAddr: 0x10001BD60, symSize: 0x3C }
  - { offsetInCU: 0x2214D, offset: 0x2214D, size: 0x8, addend: 0x0, symName: __ZNSt3__122__make_exception_guardB8ue170006INS_6vectorIhNS_9allocatorIhEEE16__destroy_vectorEEENS_28__exception_guard_exceptionsIT_EES7_, symObjAddr: 0x18FB0, symBinAddr: 0x10001C06C, symSize: 0x40 }
  - { offsetInCU: 0x22182, offset: 0x22182, size: 0x8, addend: 0x0, symName: __ZNSt3__119__allocate_at_leastB8ue170006INS_9allocatorIhEEEENS_19__allocation_resultINS_16allocator_traitsIT_E7pointerEEERS5_m, symObjAddr: 0x19244, symBinAddr: 0x10001C300, symSize: 0x40 }
  - { offsetInCU: 0x221C6, offset: 0x221C6, size: 0x8, addend: 0x0, symName: __ZNSt3__130__uninitialized_allocator_copyB8ue170006INS_9allocatorIhEEPhS3_S3_EET2_RT_T0_T1_S4_, symObjAddr: 0x1944C, symBinAddr: 0x10001C508, symSize: 0x80 }
  - { offsetInCU: 0x22267, offset: 0x22267, size: 0x8, addend: 0x0, symName: __ZNSt3__114__unwrap_rangeB8ue170006IPhS1_EEDaT_T0_, symObjAddr: 0x1953C, symBinAddr: 0x10001C5F8, symSize: 0x3C }
  - { offsetInCU: 0x222B4, offset: 0x222B4, size: 0x8, addend: 0x0, symName: __ZNSt3__135__uninitialized_allocator_copy_implB8ue170006INS_9allocatorIhEEhhhLPv0EEEPT2_RT_PT0_S9_S5_, symObjAddr: 0x19578, symBinAddr: 0x10001C634, symSize: 0x38 }
  - { offsetInCU: 0x22339, offset: 0x22339, size: 0x8, addend: 0x0, symName: __ZNSt3__113__unwrap_iterB8ue170006IPhNS_18__unwrap_iter_implIS1_Lb1EEELi0EEEDTclsrT0_8__unwrapclsr3stdE7declvalIT_EEEES5_, symObjAddr: 0x195B0, symBinAddr: 0x10001C66C, symSize: 0x24 }
  - { offsetInCU: 0x2237D, offset: 0x2237D, size: 0x8, addend: 0x0, symName: __ZNSt3__113__rewrap_iterB8ue170006IPhS1_NS_18__unwrap_iter_implIS1_Lb1EEEEET_S4_T0_, symObjAddr: 0x195D4, symBinAddr: 0x10001C690, symSize: 0x3C }
  - { offsetInCU: 0x2251D, offset: 0x2251D, size: 0x8, addend: 0x0, symName: __ZNSt3__14copyB8ue170006IPhS1_EET0_T_S3_S2_, symObjAddr: 0x196D8, symBinAddr: 0x10001C794, symSize: 0x40 }
  - { offsetInCU: 0x22577, offset: 0x22577, size: 0x8, addend: 0x0, symName: __ZNSt3__16__copyB8ue170006INS_17_ClassicAlgPolicyEPhS2_S2_EENS_4pairIT0_T2_EES4_T1_S5_, symObjAddr: 0x19718, symBinAddr: 0x10001C7D4, symSize: 0x44 }
  - { offsetInCU: 0x225E3, offset: 0x225E3, size: 0x8, addend: 0x0, symName: __ZNSt3__123__dispatch_copy_or_moveB8ue170006INS_17_ClassicAlgPolicyENS_11__copy_loopIS1_EENS_14__copy_trivialEPhS5_S5_EENS_4pairIT2_T4_EES7_T3_S8_, symObjAddr: 0x1975C, symBinAddr: 0x10001C818, symSize: 0x44 }
  - { offsetInCU: 0x22661, offset: 0x22661, size: 0x8, addend: 0x0, symName: __ZNSt3__121__unwrap_and_dispatchB8ue170006INS_10__overloadINS_11__copy_loopINS_17_ClassicAlgPolicyEEENS_14__copy_trivialEEEPhS7_S7_Li0EEENS_4pairIT0_T2_EES9_T1_SA_, symObjAddr: 0x197A0, symBinAddr: 0x10001C85C, symSize: 0xB4 }
  - { offsetInCU: 0x22736, offset: 0x22736, size: 0x8, addend: 0x0, symName: __ZNSt3__19make_pairB8ue170006IPhS1_EENS_4pairINS_18__unwrap_ref_decayIT_E4typeENS3_IT0_E4typeEEEOS4_OS7_, symObjAddr: 0x1989C, symBinAddr: 0x10001C958, symSize: 0x38 }
  - { offsetInCU: 0x22787, offset: 0x22787, size: 0x8, addend: 0x0, symName: __ZNSt3__114__rewrap_rangeB8ue170006IPhS1_S1_EET0_S2_T1_, symObjAddr: 0x198D4, symBinAddr: 0x10001C990, symSize: 0x2C }
  - { offsetInCU: 0x227DC, offset: 0x227DC, size: 0x8, addend: 0x0, symName: __ZNSt3__119__copy_trivial_implB8ue170006IhhEENS_4pairIPT_PT0_EES3_S3_S5_, symObjAddr: 0x19900, symBinAddr: 0x10001C9BC, symSize: 0x78 }
  - { offsetInCU: 0x22844, offset: 0x22844, size: 0x8, addend: 0x0, symName: __ZNSt3__119__constexpr_memmoveB8ue170006IhhLi0EEEPT_S2_PT0_NS_15__element_countE, symObjAddr: 0x19978, symBinAddr: 0x10001CA34, symSize: 0x64 }
  - { offsetInCU: 0x228B3, offset: 0x228B3, size: 0x8, addend: 0x0, symName: __ZNSt3__19make_pairB8ue170006IRPhS1_EENS_4pairINS_18__unwrap_ref_decayIT_E4typeENS4_IT0_E4typeEEEOS5_OS8_, symObjAddr: 0x199DC, symBinAddr: 0x10001CA98, symSize: 0x38 }
  - { offsetInCU: 0x2297B, offset: 0x2297B, size: 0x8, addend: 0x0, symName: __ZNSt3__112construct_atB8ue170006INS_4pairIKNS_12basic_stringIcNS_11char_traitsIcEENS_9allocatorIcEEEEN8nlohmann16json_abi_v3_12_010basic_jsonINS_3mapENS_6vectorES7_bxydS5_NSA_14adl_serializerENSD_IhNS5_IhEEEEvEEEEJS7_SH_EPSI_EEPT_SL_DpOT0_, symObjAddr: 0x19FDC, symBinAddr: 0x10001D098, symSize: 0x44 }
  - { offsetInCU: 0x22D41, offset: 0x22D41, size: 0x8, addend: 0x0, symName: __ZNSt3__1eqB8ue170006INS_6vectorIN8nlohmann16json_abi_v3_12_010basic_jsonINS_3mapES1_NS_12basic_stringIcNS_11char_traitsIcEENS_9allocatorIcEEEEbxydS9_NS3_14adl_serializerENS1_IhNS9_IhEEEEvEENS9_ISF_EEEEZNSF_6createISH_JPKNS3_6detail8json_refISF_EESN_EEEPT_DpOT0_EUlPSH_E_EEbRKNS_10unique_ptrISO_T0_EEDn, symObjAddr: 0x1A190, symBinAddr: 0x10001D24C, symSize: 0x30 }
  - { offsetInCU: 0x22D8E, offset: 0x22D8E, size: 0x8, addend: 0x0, symName: __ZNSt3__112construct_atB8ue170006INS_6vectorIN8nlohmann16json_abi_v3_12_010basic_jsonINS_3mapES1_NS_12basic_stringIcNS_11char_traitsIcEENS_9allocatorIcEEEEbxydS9_NS3_14adl_serializerENS1_IhNS9_IhEEEEvEENS9_ISF_EEEEJPKNS3_6detail8json_refISF_EESM_EPSH_EEPT_SP_DpOT0_, symObjAddr: 0x1A320, symBinAddr: 0x10001D3DC, symSize: 0x4C }
  - { offsetInCU: 0x22E13, offset: 0x22E13, size: 0x8, addend: 0x0, symName: __ZNSt3__18distanceB8ue170006IPKN8nlohmann16json_abi_v3_12_06detail8json_refINS2_10basic_jsonINS_3mapENS_6vectorENS_12basic_stringIcNS_11char_traitsIcEENS_9allocatorIcEEEEbxydSB_NS2_14adl_serializerENS7_IhNSB_IhEEEEvEEEEEENS_15iterator_traitsIT_E15difference_typeESM_SM_, symObjAddr: 0x1A41C, symBinAddr: 0x10001D4D8, symSize: 0x2C }
  - { offsetInCU: 0x22E57, offset: 0x22E57, size: 0x8, addend: 0x0, symName: __ZNSt3__110__distanceB8ue170006IPKN8nlohmann16json_abi_v3_12_06detail8json_refINS2_10basic_jsonINS_3mapENS_6vectorENS_12basic_stringIcNS_11char_traitsIcEENS_9allocatorIcEEEEbxydSB_NS2_14adl_serializerENS7_IhNSB_IhEEEEvEEEEEENS_15iterator_traitsIT_E15difference_typeESM_SM_NS_26random_access_iterator_tagE, symObjAddr: 0x1A500, symBinAddr: 0x10001D5BC, symSize: 0x28 }
  - { offsetInCU: 0x22EA6, offset: 0x22EA6, size: 0x8, addend: 0x0, symName: __ZNSt3__130__uninitialized_allocator_copyB8ue170006INS_9allocatorIN8nlohmann16json_abi_v3_12_010basic_jsonINS_3mapENS_6vectorENS_12basic_stringIcNS_11char_traitsIcEENS1_IcEEEEbxydS1_NS3_14adl_serializerENS6_IhNS1_IhEEEEvEEEEPKNS3_6detail8json_refISF_EESL_PSF_EET2_RT_T0_T1_SN_, symObjAddr: 0x1A5B4, symBinAddr: 0x10001D670, symSize: 0x80 }
  - { offsetInCU: 0x22F47, offset: 0x22F47, size: 0x8, addend: 0x0, symName: __ZNSt3__114__unwrap_rangeB8ue170006IPKN8nlohmann16json_abi_v3_12_06detail8json_refINS2_10basic_jsonINS_3mapENS_6vectorENS_12basic_stringIcNS_11char_traitsIcEENS_9allocatorIcEEEEbxydSB_NS2_14adl_serializerENS7_IhNSB_IhEEEEvEEEESK_EEDaT_T0_, symObjAddr: 0x1A634, symBinAddr: 0x10001D6F0, symSize: 0x3C }
  - { offsetInCU: 0x22F94, offset: 0x22F94, size: 0x8, addend: 0x0, symName: __ZNSt3__135__uninitialized_allocator_copy_implB8ue170006INS_9allocatorIN8nlohmann16json_abi_v3_12_010basic_jsonINS_3mapENS_6vectorENS_12basic_stringIcNS_11char_traitsIcEENS1_IcEEEEbxydS1_NS3_14adl_serializerENS6_IhNS1_IhEEEEvEEEEPKNS3_6detail8json_refISF_EESL_PSF_EET2_RT_T0_T1_SN_, symObjAddr: 0x1A670, symBinAddr: 0x10001D72C, symSize: 0xF4 }
  - { offsetInCU: 0x23138, offset: 0x23138, size: 0x8, addend: 0x0, symName: __ZNSt3__113__unwrap_iterB8ue170006IPKN8nlohmann16json_abi_v3_12_06detail8json_refINS2_10basic_jsonINS_3mapENS_6vectorENS_12basic_stringIcNS_11char_traitsIcEENS_9allocatorIcEEEEbxydSB_NS2_14adl_serializerENS7_IhNSB_IhEEEEvEEEENS_18__unwrap_iter_implISK_Lb1EEELi0EEEDTclsrT0_8__unwrapclsr3stdE7declvalIT_EEEESO_, symObjAddr: 0x1A7BC, symBinAddr: 0x10001D878, symSize: 0x24 }
  - { offsetInCU: 0x231D0, offset: 0x231D0, size: 0x8, addend: 0x0, symName: __ZNSt3__112__to_addressB8ue170006IKN8nlohmann16json_abi_v3_12_06detail8json_refINS2_10basic_jsonINS_3mapENS_6vectorENS_12basic_stringIcNS_11char_traitsIcEENS_9allocatorIcEEEEbxydSB_NS2_14adl_serializerENS7_IhNSB_IhEEEEvEEEEEEPT_SL_, symObjAddr: 0x1A840, symBinAddr: 0x10001D8FC, symSize: 0x14 }
  - { offsetInCU: 0x23205, offset: 0x23205, size: 0x8, addend: 0x0, symName: __ZNSt3__112construct_atB8ue170006IN8nlohmann16json_abi_v3_12_010basic_jsonINS_3mapENS_6vectorENS_12basic_stringIcNS_11char_traitsIcEENS_9allocatorIcEEEEbxydS9_NS2_14adl_serializerENS5_IhNS9_IhEEEEvEEJRKNS2_6detail8json_refISF_EEEPSF_EEPT_SN_DpOT0_, symObjAddr: 0x1A8B8, symBinAddr: 0x10001D974, symSize: 0x3C }
  - { offsetInCU: 0x23278, offset: 0x23278, size: 0x8, addend: 0x0, symName: __ZNSt3__111make_sharedB8ue170006IN8nlohmann16json_abi_v3_12_06detail21output_string_adapterIcNS_12basic_stringIcNS_11char_traitsIcEENS_9allocatorIcEEEEEEJRSA_EvEENS_10shared_ptrIT_EEDpOT0_, symObjAddr: 0x1BCF4, symBinAddr: 0x10001EDB0, symSize: 0x40 }
  - { offsetInCU: 0x234D9, offset: 0x234D9, size: 0x8, addend: 0x0, symName: __ZNSt3__115allocate_sharedB8ue170006IN8nlohmann16json_abi_v3_12_06detail21output_string_adapterIcNS_12basic_stringIcNS_11char_traitsIcEENS_9allocatorIcEEEEEENS8_ISB_EEJRSA_EvEENS_10shared_ptrIT_EERKT0_DpOT1_, symObjAddr: 0x1BD94, symBinAddr: 0x10001EE50, symSize: 0x98 }
  - { offsetInCU: 0x23887, offset: 0x23887, size: 0x8, addend: 0x0, symName: __ZNSt3__112construct_atB8ue170006IN8nlohmann16json_abi_v3_12_06detail21output_string_adapterIcNS_12basic_stringIcNS_11char_traitsIcEENS_9allocatorIcEEEEEEJRSA_EPSB_EEPT_SF_DpOT0_, symObjAddr: 0x1C4EC, symBinAddr: 0x10001F5A8, symSize: 0x3C }
  - { offsetInCU: 0x238F9, offset: 0x238F9, size: 0x8, addend: 0x0, symName: __ZNSt3__110destroy_atB8ue170006IN8nlohmann16json_abi_v3_12_06detail21output_string_adapterIcNS_12basic_stringIcNS_11char_traitsIcEENS_9allocatorIcEEEEEELi0EEEvPT_, symObjAddr: 0x1C790, symBinAddr: 0x10001F84C, symSize: 0x24 }
  - { offsetInCU: 0x23930, offset: 0x23930, size: 0x8, addend: 0x0, symName: __ZNSt3__112__destroy_atB8ue170006IN8nlohmann16json_abi_v3_12_06detail21output_string_adapterIcNS_12basic_stringIcNS_11char_traitsIcEENS_9allocatorIcEEEEEELi0EEEvPT_, symObjAddr: 0x1C7B4, symBinAddr: 0x10001F870, symSize: 0x2C }
  - { offsetInCU: 0x2399B, offset: 0x2399B, size: 0x8, addend: 0x0, symName: __ZNSt3__134__libcpp_atomic_refcount_decrementB8ue170006IlEET_RS1_, symObjAddr: 0x1CB18, symBinAddr: 0x10001FBD4, symSize: 0x30 }
  - { offsetInCU: 0x239D1, offset: 0x239D1, size: 0x8, addend: 0x0, symName: __ZNSt3__134__libcpp_atomic_refcount_incrementB8ue170006IlEET_RS1_, symObjAddr: 0x1CC38, symBinAddr: 0x10001FCF4, symSize: 0x30 }
  - { offsetInCU: 0x23A07, offset: 0x23A07, size: 0x8, addend: 0x0, symName: __ZNSt3__1eqB8ue170006ERKNS_20__map_const_iteratorINS_21__tree_const_iteratorINS_12__value_typeINS_12basic_stringIcNS_11char_traitsIcEENS_9allocatorIcEEEEN8nlohmann16json_abi_v3_12_010basic_jsonINS_3mapENS_6vectorES8_bxydS6_NSA_14adl_serializerENSD_IhNS6_IhEEEEvEEEEPNS_11__tree_nodeISI_PvEElEEEESQ_, symObjAddr: 0x1DC70, symBinAddr: 0x100020D2C, symSize: 0x30 }
  - { offsetInCU: 0x23A46, offset: 0x23A46, size: 0x8, addend: 0x0, symName: __ZNSt3__14nextB8ue170006INS_20__map_const_iteratorINS_21__tree_const_iteratorINS_12__value_typeINS_12basic_stringIcNS_11char_traitsIcEENS_9allocatorIcEEEEN8nlohmann16json_abi_v3_12_010basic_jsonINS_3mapENS_6vectorES9_bxydS7_NSB_14adl_serializerENSE_IhNS7_IhEEEEvEEEEPNS_11__tree_nodeISJ_PvEElEEEEEENS_9enable_ifIXsr29__has_input_iterator_categoryIT_EE5valueESR_E4typeESR_NS_15iterator_traitsISR_E15difference_typeE, symObjAddr: 0x1DCA0, symBinAddr: 0x100020D5C, symSize: 0x3C }
  - { offsetInCU: 0x23A89, offset: 0x23A89, size: 0x8, addend: 0x0, symName: __ZNSt3__1neB8ue170006IPKN8nlohmann16json_abi_v3_12_010basic_jsonINS_3mapENS_6vectorENS_12basic_stringIcNS_11char_traitsIcEENS_9allocatorIcEEEEbxydS9_NS2_14adl_serializerENS5_IhNS9_IhEEEEvEEEEbRKNS_11__wrap_iterIT_EESM_, symObjAddr: 0x1DD08, symBinAddr: 0x100020DC4, symSize: 0x34 }
  - { offsetInCU: 0x23ACC, offset: 0x23ACC, size: 0x8, addend: 0x0, symName: __ZNSt3__1neB8ue170006IPKhEEbRKNS_11__wrap_iterIT_EES7_, symObjAddr: 0x1DE30, symBinAddr: 0x100020EEC, symSize: 0x34 }
  - { offsetInCU: 0x23B42, offset: 0x23B42, size: 0x8, addend: 0x0, symName: __ZNSt3__19__advanceB8ue170006INS_20__map_const_iteratorINS_21__tree_const_iteratorINS_12__value_typeINS_12basic_stringIcNS_11char_traitsIcEENS_9allocatorIcEEEEN8nlohmann16json_abi_v3_12_010basic_jsonINS_3mapENS_6vectorES9_bxydS7_NSB_14adl_serializerENSE_IhNS7_IhEEEEvEEEEPNS_11__tree_nodeISJ_PvEElEEEEEEvRT_NS_15iterator_traitsISQ_E15difference_typeENS_26bidirectional_iterator_tagE, symObjAddr: 0x1F0C8, symBinAddr: 0x100022184, symSize: 0xA4 }
  - { offsetInCU: 0x23B8C, offset: 0x23B8C, size: 0x8, addend: 0x0, symName: __ZNSt3__1eqB8ue170006IPKN8nlohmann16json_abi_v3_12_010basic_jsonINS_3mapENS_6vectorENS_12basic_stringIcNS_11char_traitsIcEENS_9allocatorIcEEEEbxydS9_NS2_14adl_serializerENS5_IhNS9_IhEEEEvEEEEbRKNS_11__wrap_iterIT_EESM_, symObjAddr: 0x1F24C, symBinAddr: 0x100022308, symSize: 0x48 }
  - { offsetInCU: 0x23BCF, offset: 0x23BCF, size: 0x8, addend: 0x0, symName: __ZNSt3__1eqB8ue170006IPKhEEbRKNS_11__wrap_iterIT_EES7_, symObjAddr: 0x1F3F4, symBinAddr: 0x1000224B0, symSize: 0x48 }
  - { offsetInCU: 0x2457D, offset: 0x2457D, size: 0x8, addend: 0x0, symName: __ZNSt3__1neB8ue170006IPKcEEbRKNS_11__wrap_iterIT_EES7_, symObjAddr: 0x24504, symBinAddr: 0x1000275C0, symSize: 0x34 }
  - { offsetInCU: 0x245C0, offset: 0x245C0, size: 0x8, addend: 0x0, symName: __ZNSt3__1eqB8ue170006IPKcEEbRKNS_11__wrap_iterIT_EES7_, symObjAddr: 0x245A4, symBinAddr: 0x100027660, symSize: 0x48 }
  - { offsetInCU: 0x24604, offset: 0x24604, size: 0x8, addend: 0x0, symName: __ZNSt3__121__convert_to_integralB8ue170006Ei, symObjAddr: 0x24604, symBinAddr: 0x1000276C0, symSize: 0x14 }
  - { offsetInCU: 0x24630, offset: 0x24630, size: 0x8, addend: 0x0, symName: __ZNSt3__19__advanceB8ue170006INS_11__wrap_iterIPKcEEEEvRT_NS_15iterator_traitsIS5_E15difference_typeENS_26random_access_iterator_tagE, symObjAddr: 0x24618, symBinAddr: 0x1000276D4, symSize: 0x2C }
  - { offsetInCU: 0x2467B, offset: 0x2467B, size: 0x8, addend: 0x0, symName: __ZNSt3__112__to_addressB8ue170006IcEEPT_S2_, symObjAddr: 0x248C8, symBinAddr: 0x100027984, symSize: 0x14 }
  - { offsetInCU: 0x246D8, offset: 0x246D8, size: 0x8, addend: 0x0, symName: __ZNSt3__112construct_atB8ue170006IcJcEPcEEPT_S3_DpOT0_, symObjAddr: 0x2494C, symBinAddr: 0x100027A08, symSize: 0x2C }
  - { offsetInCU: 0x2474A, offset: 0x2474A, size: 0x8, addend: 0x0, symName: __ZNSt3__119__allocate_at_leastB8ue170006INS_9allocatorIcEEEENS_19__allocation_resultINS_16allocator_traitsIT_E7pointerEEERS5_m, symObjAddr: 0x24ED0, symBinAddr: 0x100027F8C, symSize: 0x40 }
  - { offsetInCU: 0x2478E, offset: 0x2478E, size: 0x8, addend: 0x0, symName: __ZNSt3__142__uninitialized_allocator_move_if_noexceptB8ue170006INS_9allocatorIcEENS_16reverse_iteratorIPcEES5_cvEET1_RT_T0_S9_S6_, symObjAddr: 0x2513C, symBinAddr: 0x1000281F8, symSize: 0x78 }
  - { offsetInCU: 0x24810, offset: 0x24810, size: 0x8, addend: 0x0, symName: __ZNSt3__14swapB8ue170006IPcEENS_9enable_ifIXaasr21is_move_constructibleIT_EE5valuesr18is_move_assignableIS3_EE5valueEvE4typeERS3_S6_, symObjAddr: 0x25200, symBinAddr: 0x1000282BC, symSize: 0x3C }
  - { offsetInCU: 0x24861, offset: 0x24861, size: 0x8, addend: 0x0, symName: __ZNSt3__14moveB8ue170006INS_16reverse_iteratorIPcEES3_EET0_T_S5_S4_, symObjAddr: 0x25330, symBinAddr: 0x1000283EC, symSize: 0x78 }
  - { offsetInCU: 0x248BB, offset: 0x248BB, size: 0x8, addend: 0x0, symName: __ZNSt3__16__moveB8ue170006INS_17_ClassicAlgPolicyENS_16reverse_iteratorIPcEES4_S4_EENS_4pairIT0_T2_EES6_T1_S7_, symObjAddr: 0x253A8, symBinAddr: 0x100028464, symSize: 0x64 }
  - { offsetInCU: 0x24927, offset: 0x24927, size: 0x8, addend: 0x0, symName: __ZNSt3__123__dispatch_copy_or_moveB8ue170006INS_17_ClassicAlgPolicyENS_11__move_loopIS1_EENS_14__move_trivialENS_16reverse_iteratorIPcEES7_S7_EENS_4pairIT2_T4_EES9_T3_SA_, symObjAddr: 0x2540C, symBinAddr: 0x1000284C8, symSize: 0x64 }
  - { offsetInCU: 0x249A5, offset: 0x249A5, size: 0x8, addend: 0x0, symName: __ZNSt3__121__unwrap_and_dispatchB8ue170006INS_10__overloadINS_11__move_loopINS_17_ClassicAlgPolicyEEENS_14__move_trivialEEENS_16reverse_iteratorIPcEES9_S9_Li0EEENS_4pairIT0_T2_EESB_T1_SC_, symObjAddr: 0x25470, symBinAddr: 0x10002852C, symSize: 0x12C }
  - { offsetInCU: 0x24A35, offset: 0x24A35, size: 0x8, addend: 0x0, symName: __ZNSt3__114__unwrap_rangeB8ue170006INS_16reverse_iteratorIPcEES3_EEDaT_T0_, symObjAddr: 0x2559C, symBinAddr: 0x100028658, symSize: 0x4C }
  - { offsetInCU: 0x24B55, offset: 0x24B55, size: 0x8, addend: 0x0, symName: __ZNSt3__113__unwrap_iterB8ue170006INS_16reverse_iteratorIPcEENS_18__unwrap_iter_implIS3_Lb0EEELi0EEEDTclsrT0_8__unwrapclsr3stdE7declvalIT_EEEES7_, symObjAddr: 0x25688, symBinAddr: 0x100028744, symSize: 0x44 }
  - { offsetInCU: 0x24B9A, offset: 0x24B9A, size: 0x8, addend: 0x0, symName: __ZNSt3__19make_pairB8ue170006INS_16reverse_iteratorIPcEES3_EENS_4pairINS_18__unwrap_ref_decayIT_E4typeENS5_IT0_E4typeEEEOS6_OS9_, symObjAddr: 0x256CC, symBinAddr: 0x100028788, symSize: 0x38 }
  - { offsetInCU: 0x24BEB, offset: 0x24BEB, size: 0x8, addend: 0x0, symName: __ZNSt3__114__rewrap_rangeB8ue170006INS_16reverse_iteratorIPcEES3_S3_EET0_S4_T1_, symObjAddr: 0x25704, symBinAddr: 0x1000287C0, symSize: 0x5C }
  - { offsetInCU: 0x24C40, offset: 0x24C40, size: 0x8, addend: 0x0, symName: __ZNSt3__113__rewrap_iterB8ue170006INS_16reverse_iteratorIPcEES3_NS_18__unwrap_iter_implIS3_Lb0EEEEET_S6_T0_, symObjAddr: 0x25760, symBinAddr: 0x10002881C, symSize: 0x74 }
  - { offsetInCU: 0x24CE5, offset: 0x24CE5, size: 0x8, addend: 0x0, symName: __ZNSt3__1neB8ue170006IPcS1_EEbRKNS_16reverse_iteratorIT_EERKNS2_IT0_EE, symObjAddr: 0x258C8, symBinAddr: 0x100028984, symSize: 0x48 }
  - { offsetInCU: 0x24D9D, offset: 0x24D9D, size: 0x8, addend: 0x0, symName: __ZNSt3__110destroy_atB8ue170006IcLi0EEEvPT_, symObjAddr: 0x25C4C, symBinAddr: 0x100028D08, symSize: 0x24 }
  - { offsetInCU: 0x24DD5, offset: 0x24DD5, size: 0x8, addend: 0x0, symName: __ZNSt3__112__destroy_atB8ue170006IcLi0EEEvPT_, symObjAddr: 0x25C70, symBinAddr: 0x100028D2C, symSize: 0x10 }
  - { offsetInCU: 0x24E0C, offset: 0x24E0C, size: 0x8, addend: 0x0, symName: __ZNSt3__15beginB8ue170006INS_12basic_stringIcNS_11char_traitsIcEENS_9allocatorIcEEEEEEDTcldtfp_5beginEERKT_, symObjAddr: 0x268D4, symBinAddr: 0x100029990, symSize: 0x2C }
  - { offsetInCU: 0x24E41, offset: 0x24E41, size: 0x8, addend: 0x0, symName: __ZNSt3__13endB8ue170006INS_12basic_stringIcNS_11char_traitsIcEENS_9allocatorIcEEEEEEDTcldtfp_3endEERKT_, symObjAddr: 0x26900, symBinAddr: 0x1000299BC, symSize: 0x2C }
  - { offsetInCU: 0x24E76, offset: 0x24E76, size: 0x8, addend: 0x0, symName: __ZNSt3__119__allocate_at_leastB8ue170006INS_9allocatorImEEEENS_19__allocation_resultINS_16allocator_traitsIT_E7pointerEEERS5_m, symObjAddr: 0x2B318, symBinAddr: 0x10002E3D4, symSize: 0x40 }
  - { offsetInCU: 0x24EB9, offset: 0x24EB9, size: 0x8, addend: 0x0, symName: __ZNSt3__16__copyB8ue170006INS_17_ClassicAlgPolicyENS_14__bit_iteratorINS_6vectorIbNS_9allocatorIbEEEELb0ELm0EEES7_S7_EENS_4pairIT0_T2_EES9_T1_SA_, symObjAddr: 0x2B480, symBinAddr: 0x10002E53C, symSize: 0x88 }
  - { offsetInCU: 0x24F28, offset: 0x24F28, size: 0x8, addend: 0x0, symName: __ZNSt3__123__dispatch_copy_or_moveB8ue170006INS_17_ClassicAlgPolicyENS_11__copy_loopIS1_EENS_14__copy_trivialENS_14__bit_iteratorINS_6vectorIbNS_9allocatorIbEEEELb0ELm0EEESA_SA_EENS_4pairIT2_T4_EESC_T3_SD_, symObjAddr: 0x2B5A0, symBinAddr: 0x10002E65C, symSize: 0x88 }
  - { offsetInCU: 0x24FA9, offset: 0x24FA9, size: 0x8, addend: 0x0, symName: __ZNSt3__121__unwrap_and_dispatchB8ue170006INS_10__overloadINS_11__copy_loopINS_17_ClassicAlgPolicyEEENS_14__copy_trivialEEENS_14__bit_iteratorINS_6vectorIbNS_9allocatorIbEEEELb0ELm0EEESC_SC_Li0EEENS_4pairIT0_T2_EESE_T1_SF_, symObjAddr: 0x2B628, symBinAddr: 0x10002E6E4, symSize: 0x15C }
  - { offsetInCU: 0x2503C, offset: 0x2503C, size: 0x8, addend: 0x0, symName: __ZNSt3__114__unwrap_rangeB8ue170006INS_14__bit_iteratorINS_6vectorIbNS_9allocatorIbEEEELb0ELm0EEES6_EEDaT_T0_, symObjAddr: 0x2B784, symBinAddr: 0x10002E840, symSize: 0x6C }
  - { offsetInCU: 0x251B0, offset: 0x251B0, size: 0x8, addend: 0x0, symName: __ZNSt3__113__unwrap_iterB8ue170006INS_14__bit_iteratorINS_6vectorIbNS_9allocatorIbEEEELb0ELm0EEENS_18__unwrap_iter_implIS6_Lb0EEELi0EEEDTclsrT0_8__unwrapclsr3stdE7declvalIT_EEEESA_, symObjAddr: 0x2B8A8, symBinAddr: 0x10002E964, symSize: 0x44 }
  - { offsetInCU: 0x251F6, offset: 0x251F6, size: 0x8, addend: 0x0, symName: __ZNSt3__19make_pairB8ue170006INS_14__bit_iteratorINS_6vectorIbNS_9allocatorIbEEEELb0ELm0EEES6_EENS_4pairINS_18__unwrap_ref_decayIT_E4typeENS8_IT0_E4typeEEEOS9_OSC_, symObjAddr: 0x2B8EC, symBinAddr: 0x10002E9A8, symSize: 0x40 }
  - { offsetInCU: 0x25247, offset: 0x25247, size: 0x8, addend: 0x0, symName: __ZNSt3__114__rewrap_rangeB8ue170006INS_14__bit_iteratorINS_6vectorIbNS_9allocatorIbEEEELb0ELm0EEES6_S6_EET0_S7_T1_, symObjAddr: 0x2B92C, symBinAddr: 0x10002E9E8, symSize: 0x6C }
  - { offsetInCU: 0x2529E, offset: 0x2529E, size: 0x8, addend: 0x0, symName: __ZNSt3__113__rewrap_iterB8ue170006INS_14__bit_iteratorINS_6vectorIbNS_9allocatorIbEEEELb0ELm0EEES6_NS_18__unwrap_iter_implIS6_Lb0EEEEET_S9_T0_, symObjAddr: 0x2B998, symBinAddr: 0x10002EA54, symSize: 0x74 }
  - { offsetInCU: 0x25346, offset: 0x25346, size: 0x8, addend: 0x0, symName: __ZNSt3__1neB8ue170006ERKNS_14__bit_iteratorINS_6vectorIbNS_9allocatorIbEEEELb0ELm0EEES7_, symObjAddr: 0x2BB1C, symBinAddr: 0x10002EBD8, symSize: 0x34 }
  - { offsetInCU: 0x25386, offset: 0x25386, size: 0x8, addend: 0x0, symName: __ZNSt3__1eqB8ue170006ERKNS_14__bit_iteratorINS_6vectorIbNS_9allocatorIbEEEELb0ELm0EEES7_, symObjAddr: 0x2BC30, symBinAddr: 0x10002ECEC, symSize: 0x64 }
  - { offsetInCU: 0x2540E, offset: 0x2540E, size: 0x8, addend: 0x0, symName: __ZNSt3__14swapB8ue170006IPmEENS_9enable_ifIXaasr21is_move_constructibleIT_EE5valuesr18is_move_assignableIS3_EE5valueEvE4typeERS3_S6_, symObjAddr: 0x2BEA0, symBinAddr: 0x10002EF5C, symSize: 0x3C }
  - { offsetInCU: 0x25460, offset: 0x25460, size: 0x8, addend: 0x0, symName: __ZNSt3__14swapB8ue170006ImEENS_9enable_ifIXaasr21is_move_constructibleIT_EE5valuesr18is_move_assignableIS2_EE5valueEvE4typeERS2_S5_, symObjAddr: 0x2BEDC, symBinAddr: 0x10002EF98, symSize: 0x3C }
  - { offsetInCU: 0x254B2, offset: 0x254B2, size: 0x8, addend: 0x0, symName: __ZNSt3__116__swap_allocatorB8ue170006INS_9allocatorImEEEEvRT_S4_NS_17integral_constantIbLb0EEE, symObjAddr: 0x2BF18, symBinAddr: 0x10002EFD4, symSize: 0x14 }
  - { offsetInCU: 0x254F7, offset: 0x254F7, size: 0x8, addend: 0x0, symName: __ZNSt3__112__to_addressB8ue170006IPN8nlohmann16json_abi_v3_12_010basic_jsonINS_3mapENS_6vectorENS_12basic_stringIcNS_11char_traitsIcEENS_9allocatorIcEEEEbxydS9_NS2_14adl_serializerENS5_IhNS9_IhEEEEvEEEEPT_SI_, symObjAddr: 0x2C488, symBinAddr: 0x10002F544, symSize: 0x14 }
  - { offsetInCU: 0x2552C, offset: 0x2552C, size: 0x8, addend: 0x0, symName: __ZNSt3__110destroy_atB8ue170006IPN8nlohmann16json_abi_v3_12_010basic_jsonINS_3mapENS_6vectorENS_12basic_stringIcNS_11char_traitsIcEENS_9allocatorIcEEEEbxydS9_NS2_14adl_serializerENS5_IhNS9_IhEEEEvEELi0EEEvPT_, symObjAddr: 0x2C49C, symBinAddr: 0x10002F558, symSize: 0x24 }
  - { offsetInCU: 0x25564, offset: 0x25564, size: 0x8, addend: 0x0, symName: __ZNSt3__112__destroy_atB8ue170006IPN8nlohmann16json_abi_v3_12_010basic_jsonINS_3mapENS_6vectorENS_12basic_stringIcNS_11char_traitsIcEENS_9allocatorIcEEEEbxydS9_NS2_14adl_serializerENS5_IhNS9_IhEEEEvEELi0EEEvPT_, symObjAddr: 0x2C4C0, symBinAddr: 0x10002F57C, symSize: 0x10 }
  - { offsetInCU: 0x256CE, offset: 0x256CE, size: 0x8, addend: 0x0, symName: __ZNSt3__125__throw_bad_function_callB8ue170006Ev, symObjAddr: 0x2DEA8, symBinAddr: 0x100030F64, symSize: 0x38 }
  - { offsetInCU: 0x25746, offset: 0x25746, size: 0x8, addend: 0x0, symName: __ZNSt3__112construct_atB8ue170006IPN8nlohmann16json_abi_v3_12_010basic_jsonINS_3mapENS_6vectorENS_12basic_stringIcNS_11char_traitsIcEENS_9allocatorIcEEEEbxydS9_NS2_14adl_serializerENS5_IhNS9_IhEEEEvEEJRKSG_EPSG_EEPT_SL_DpOT0_, symObjAddr: 0x2E544, symBinAddr: 0x100031600, symSize: 0x2C }
  - { offsetInCU: 0x257B8, offset: 0x257B8, size: 0x8, addend: 0x0, symName: __ZNSt3__119__allocate_at_leastB8ue170006INS_9allocatorIPN8nlohmann16json_abi_v3_12_010basic_jsonINS_3mapENS_6vectorENS_12basic_stringIcNS_11char_traitsIcEENS1_IcEEEEbxydS1_NS3_14adl_serializerENS6_IhNS1_IhEEEEvEEEEEENS_19__allocation_resultINS_16allocator_traitsIT_E7pointerEEERSK_m, symObjAddr: 0x2E9D8, symBinAddr: 0x100031A94, symSize: 0x40 }
  - { offsetInCU: 0x257FC, offset: 0x257FC, size: 0x8, addend: 0x0, symName: __ZNSt3__142__uninitialized_allocator_move_if_noexceptB8ue170006INS_9allocatorIPN8nlohmann16json_abi_v3_12_010basic_jsonINS_3mapENS_6vectorENS_12basic_stringIcNS_11char_traitsIcEENS1_IcEEEEbxydS1_NS3_14adl_serializerENS6_IhNS1_IhEEEEvEEEENS_16reverse_iteratorIPSG_EESK_SG_vEET1_RT_T0_SO_SL_, symObjAddr: 0x2EB8C, symBinAddr: 0x100031C48, symSize: 0x78 }
  - { offsetInCU: 0x2587E, offset: 0x2587E, size: 0x8, addend: 0x0, symName: __ZNSt3__14swapB8ue170006IPPN8nlohmann16json_abi_v3_12_010basic_jsonINS_3mapENS_6vectorENS_12basic_stringIcNS_11char_traitsIcEENS_9allocatorIcEEEEbxydS9_NS2_14adl_serializerENS5_IhNS9_IhEEEEvEEEENS_9enable_ifIXaasr21is_move_constructibleIT_EE5valuesr18is_move_assignableISJ_EE5valueEvE4typeERSJ_SM_, symObjAddr: 0x2EC50, symBinAddr: 0x100031D0C, symSize: 0x3C }
  - { offsetInCU: 0x258CF, offset: 0x258CF, size: 0x8, addend: 0x0, symName: __ZNSt3__14moveB8ue170006INS_16reverse_iteratorIPPN8nlohmann16json_abi_v3_12_010basic_jsonINS_3mapENS_6vectorENS_12basic_stringIcNS_11char_traitsIcEENS_9allocatorIcEEEEbxydSA_NS3_14adl_serializerENS6_IhNSA_IhEEEEvEEEESJ_EET0_T_SL_SK_, symObjAddr: 0x2ED38, symBinAddr: 0x100031DF4, symSize: 0x78 }
  - { offsetInCU: 0x25929, offset: 0x25929, size: 0x8, addend: 0x0, symName: __ZNSt3__16__moveB8ue170006INS_17_ClassicAlgPolicyENS_16reverse_iteratorIPPN8nlohmann16json_abi_v3_12_010basic_jsonINS_3mapENS_6vectorENS_12basic_stringIcNS_11char_traitsIcEENS_9allocatorIcEEEEbxydSB_NS4_14adl_serializerENS7_IhNSB_IhEEEEvEEEESK_SK_EENS_4pairIT0_T2_EESM_T1_SN_, symObjAddr: 0x2EDB0, symBinAddr: 0x100031E6C, symSize: 0x64 }
  - { offsetInCU: 0x25995, offset: 0x25995, size: 0x8, addend: 0x0, symName: __ZNSt3__123__dispatch_copy_or_moveB8ue170006INS_17_ClassicAlgPolicyENS_11__move_loopIS1_EENS_14__move_trivialENS_16reverse_iteratorIPPN8nlohmann16json_abi_v3_12_010basic_jsonINS_3mapENS_6vectorENS_12basic_stringIcNS_11char_traitsIcEENS_9allocatorIcEEEEbxydSE_NS7_14adl_serializerENSA_IhNSE_IhEEEEvEEEESN_SN_EENS_4pairIT2_T4_EESP_T3_SQ_, symObjAddr: 0x2EE14, symBinAddr: 0x100031ED0, symSize: 0x64 }
  - { offsetInCU: 0x25A13, offset: 0x25A13, size: 0x8, addend: 0x0, symName: __ZNSt3__121__unwrap_and_dispatchB8ue170006INS_10__overloadINS_11__move_loopINS_17_ClassicAlgPolicyEEENS_14__move_trivialEEENS_16reverse_iteratorIPPN8nlohmann16json_abi_v3_12_010basic_jsonINS_3mapENS_6vectorENS_12basic_stringIcNS_11char_traitsIcEENS_9allocatorIcEEEEbxydSG_NS9_14adl_serializerENSC_IhNSG_IhEEEEvEEEESP_SP_Li0EEENS_4pairIT0_T2_EESR_T1_SS_, symObjAddr: 0x2EE78, symBinAddr: 0x100031F34, symSize: 0x12C }
  - { offsetInCU: 0x25AA3, offset: 0x25AA3, size: 0x8, addend: 0x0, symName: __ZNSt3__114__unwrap_rangeB8ue170006INS_16reverse_iteratorIPPN8nlohmann16json_abi_v3_12_010basic_jsonINS_3mapENS_6vectorENS_12basic_stringIcNS_11char_traitsIcEENS_9allocatorIcEEEEbxydSA_NS3_14adl_serializerENS6_IhNSA_IhEEEEvEEEESJ_EEDaT_T0_, symObjAddr: 0x2EFA4, symBinAddr: 0x100032060, symSize: 0x4C }
  - { offsetInCU: 0x25BC3, offset: 0x25BC3, size: 0x8, addend: 0x0, symName: __ZNSt3__113__unwrap_iterB8ue170006INS_16reverse_iteratorIPPN8nlohmann16json_abi_v3_12_010basic_jsonINS_3mapENS_6vectorENS_12basic_stringIcNS_11char_traitsIcEENS_9allocatorIcEEEEbxydSA_NS3_14adl_serializerENS6_IhNSA_IhEEEEvEEEENS_18__unwrap_iter_implISJ_Lb0EEELi0EEEDTclsrT0_8__unwrapclsr3stdE7declvalIT_EEEESN_, symObjAddr: 0x2F090, symBinAddr: 0x10003214C, symSize: 0x44 }
  - { offsetInCU: 0x25C08, offset: 0x25C08, size: 0x8, addend: 0x0, symName: __ZNSt3__19make_pairB8ue170006INS_16reverse_iteratorIPPN8nlohmann16json_abi_v3_12_010basic_jsonINS_3mapENS_6vectorENS_12basic_stringIcNS_11char_traitsIcEENS_9allocatorIcEEEEbxydSA_NS3_14adl_serializerENS6_IhNSA_IhEEEEvEEEESJ_EENS_4pairINS_18__unwrap_ref_decayIT_E4typeENSL_IT0_E4typeEEEOSM_OSP_, symObjAddr: 0x2F0D4, symBinAddr: 0x100032190, symSize: 0x38 }
  - { offsetInCU: 0x25C59, offset: 0x25C59, size: 0x8, addend: 0x0, symName: __ZNSt3__114__rewrap_rangeB8ue170006INS_16reverse_iteratorIPPN8nlohmann16json_abi_v3_12_010basic_jsonINS_3mapENS_6vectorENS_12basic_stringIcNS_11char_traitsIcEENS_9allocatorIcEEEEbxydSA_NS3_14adl_serializerENS6_IhNSA_IhEEEEvEEEESJ_SJ_EET0_SK_T1_, symObjAddr: 0x2F10C, symBinAddr: 0x1000321C8, symSize: 0x5C }
  - { offsetInCU: 0x25CAE, offset: 0x25CAE, size: 0x8, addend: 0x0, symName: __ZNSt3__113__rewrap_iterB8ue170006INS_16reverse_iteratorIPPN8nlohmann16json_abi_v3_12_010basic_jsonINS_3mapENS_6vectorENS_12basic_stringIcNS_11char_traitsIcEENS_9allocatorIcEEEEbxydSA_NS3_14adl_serializerENS6_IhNSA_IhEEEEvEEEESJ_NS_18__unwrap_iter_implISJ_Lb0EEEEET_SM_T0_, symObjAddr: 0x2F168, symBinAddr: 0x100032224, symSize: 0x74 }
  - { offsetInCU: 0x25D53, offset: 0x25D53, size: 0x8, addend: 0x0, symName: __ZNSt3__1neB8ue170006IPPN8nlohmann16json_abi_v3_12_010basic_jsonINS_3mapENS_6vectorENS_12basic_stringIcNS_11char_traitsIcEENS_9allocatorIcEEEEbxydS9_NS2_14adl_serializerENS5_IhNS9_IhEEEEvEESH_EEbRKNS_16reverse_iteratorIT_EERKNSI_IT0_EE, symObjAddr: 0x2F2D0, symBinAddr: 0x10003238C, symSize: 0x48 }
  - { offsetInCU: 0x25E0C, offset: 0x25E0C, size: 0x8, addend: 0x0, symName: __ZNSt3__1eqB8ue170006ERKNS_14__map_iteratorINS_15__tree_iteratorINS_12__value_typeINS_12basic_stringIcNS_11char_traitsIcEENS_9allocatorIcEEEEN8nlohmann16json_abi_v3_12_010basic_jsonINS_3mapENS_6vectorES8_bxydS6_NSA_14adl_serializerENSD_IhNS6_IhEEEEvEEEEPNS_11__tree_nodeISI_PvEElEEEESQ_, symObjAddr: 0x30A1C, symBinAddr: 0x100033AD8, symSize: 0x30 }
  - { offsetInCU: 0x25E4B, offset: 0x25E4B, size: 0x8, addend: 0x0, symName: __ZNSt3__1eqB8ue170006IPN8nlohmann16json_abi_v3_12_010basic_jsonINS_3mapENS_6vectorENS_12basic_stringIcNS_11char_traitsIcEENS_9allocatorIcEEEEbxydS9_NS2_14adl_serializerENS5_IhNS9_IhEEEEvEEEEbRKNS_11__wrap_iterIT_EESL_, symObjAddr: 0x30A4C, symBinAddr: 0x100033B08, symSize: 0x48 }
  - { offsetInCU: 0x25E8E, offset: 0x25E8E, size: 0x8, addend: 0x0, symName: __ZNSt3__1neB8ue170006IPN8nlohmann16json_abi_v3_12_010basic_jsonINS_3mapENS_6vectorENS_12basic_stringIcNS_11char_traitsIcEENS_9allocatorIcEEEEbxydS9_NS2_14adl_serializerENS5_IhNS9_IhEEEEvEEEEbRKNS_11__wrap_iterIT_EESL_, symObjAddr: 0x30D04, symBinAddr: 0x100033DC0, symSize: 0x34 }
  - { offsetInCU: 0x25F04, offset: 0x25F04, size: 0x8, addend: 0x0, symName: __ZNSt3__113__tree_removeB8ue170006IPNS_16__tree_node_baseIPvEEEEvT_S5_, symObjAddr: 0x31210, symBinAddr: 0x1000342CC, symSize: 0x6E0 }
  - { offsetInCU: 0x25F84, offset: 0x25F84, size: 0x8, addend: 0x0, symName: __ZNSt3__111__tree_nextB8ue170006IPNS_16__tree_node_baseIPvEEEET_S5_, symObjAddr: 0x318F0, symBinAddr: 0x1000349AC, symSize: 0x80 }
  - { offsetInCU: 0x25FB9, offset: 0x25FB9, size: 0x8, addend: 0x0, symName: __ZNSt3__1miB8ue170006IPKN8nlohmann16json_abi_v3_12_010basic_jsonINS_3mapENS_6vectorENS_12basic_stringIcNS_11char_traitsIcEENS_9allocatorIcEEEEbxydS9_NS2_14adl_serializerENS5_IhNS9_IhEEEEvEESH_EEDTmicldtfp_4baseEcldtfp0_4baseEERKNS_11__wrap_iterIT_EERKNSJ_IT0_EE, symObjAddr: 0x31970, symBinAddr: 0x100034A2C, symSize: 0x48 }
  - { offsetInCU: 0x26005, offset: 0x26005, size: 0x8, addend: 0x0, symName: __ZNSt3__14moveB8ue170006IPN8nlohmann16json_abi_v3_12_010basic_jsonINS_3mapENS_6vectorENS_12basic_stringIcNS_11char_traitsIcEENS_9allocatorIcEEEEbxydS9_NS2_14adl_serializerENS5_IhNS9_IhEEEEvEESG_EET0_T_SI_SH_, symObjAddr: 0x319B8, symBinAddr: 0x100034A74, symSize: 0x40 }
  - { offsetInCU: 0x2605F, offset: 0x2605F, size: 0x8, addend: 0x0, symName: __ZNSt3__16__moveB8ue170006INS_17_ClassicAlgPolicyEPN8nlohmann16json_abi_v3_12_010basic_jsonINS_3mapENS_6vectorENS_12basic_stringIcNS_11char_traitsIcEENS_9allocatorIcEEEEbxydSA_NS3_14adl_serializerENS6_IhNSA_IhEEEEvEESH_SH_EENS_4pairIT0_T2_EESJ_T1_SK_, symObjAddr: 0x319F8, symBinAddr: 0x100034AB4, symSize: 0x44 }
  - { offsetInCU: 0x260CB, offset: 0x260CB, size: 0x8, addend: 0x0, symName: __ZNSt3__123__dispatch_copy_or_moveB8ue170006INS_17_ClassicAlgPolicyENS_11__move_loopIS1_EENS_14__move_trivialEPN8nlohmann16json_abi_v3_12_010basic_jsonINS_3mapENS_6vectorENS_12basic_stringIcNS_11char_traitsIcEENS_9allocatorIcEEEEbxydSD_NS6_14adl_serializerENS9_IhNSD_IhEEEEvEESK_SK_EENS_4pairIT2_T4_EESM_T3_SN_, symObjAddr: 0x31A3C, symBinAddr: 0x100034AF8, symSize: 0x44 }
  - { offsetInCU: 0x26149, offset: 0x26149, size: 0x8, addend: 0x0, symName: __ZNSt3__121__unwrap_and_dispatchB8ue170006INS_10__overloadINS_11__move_loopINS_17_ClassicAlgPolicyEEENS_14__move_trivialEEEPN8nlohmann16json_abi_v3_12_010basic_jsonINS_3mapENS_6vectorENS_12basic_stringIcNS_11char_traitsIcEENS_9allocatorIcEEEEbxydSF_NS8_14adl_serializerENSB_IhNSF_IhEEEEvEESM_SM_Li0EEENS_4pairIT0_T2_EESO_T1_SP_, symObjAddr: 0x31A80, symBinAddr: 0x100034B3C, symSize: 0xB4 }
  - { offsetInCU: 0x261D8, offset: 0x261D8, size: 0x8, addend: 0x0, symName: __ZNSt3__19make_pairB8ue170006IPN8nlohmann16json_abi_v3_12_010basic_jsonINS_3mapENS_6vectorENS_12basic_stringIcNS_11char_traitsIcEENS_9allocatorIcEEEEbxydS9_NS2_14adl_serializerENS5_IhNS9_IhEEEEvEESG_EENS_4pairINS_18__unwrap_ref_decayIT_E4typeENSI_IT0_E4typeEEEOSJ_OSM_, symObjAddr: 0x31BDC, symBinAddr: 0x100034C98, symSize: 0x38 }
  - { offsetInCU: 0x26229, offset: 0x26229, size: 0x8, addend: 0x0, symName: __ZNSt3__114__rewrap_rangeB8ue170006IPN8nlohmann16json_abi_v3_12_010basic_jsonINS_3mapENS_6vectorENS_12basic_stringIcNS_11char_traitsIcEENS_9allocatorIcEEEEbxydS9_NS2_14adl_serializerENS5_IhNS9_IhEEEEvEESG_SG_EET0_SH_T1_, symObjAddr: 0x31C14, symBinAddr: 0x100034CD0, symSize: 0x2C }
  - { offsetInCU: 0x2627E, offset: 0x2627E, size: 0x8, addend: 0x0, symName: __ZNSt3__19__advanceB8ue170006INS_14__map_iteratorINS_15__tree_iteratorINS_12__value_typeINS_12basic_stringIcNS_11char_traitsIcEENS_9allocatorIcEEEEN8nlohmann16json_abi_v3_12_010basic_jsonINS_3mapENS_6vectorES9_bxydS7_NSB_14adl_serializerENSE_IhNS7_IhEEEEvEEEEPNS_11__tree_nodeISJ_PvEElEEEEEEvRT_NS_15iterator_traitsISQ_E15difference_typeENS_26bidirectional_iterator_tagE, symObjAddr: 0x31DC0, symBinAddr: 0x100034E7C, symSize: 0xA4 }
  - { offsetInCU: 0x262C8, offset: 0x262C8, size: 0x8, addend: 0x0, symName: __ZNSt3__19__advanceB8ue170006INS_11__wrap_iterIPN8nlohmann16json_abi_v3_12_010basic_jsonINS_3mapENS_6vectorENS_12basic_stringIcNS_11char_traitsIcEENS_9allocatorIcEEEEbxydSA_NS3_14adl_serializerENS6_IhNSA_IhEEEEvEEEEEEvRT_NS_15iterator_traitsISJ_E15difference_typeENS_26random_access_iterator_tagE, symObjAddr: 0x31EC8, symBinAddr: 0x100034F84, symSize: 0x2C }
  - { offsetInCU: 0x2634A, offset: 0x2634A, size: 0x8, addend: 0x0, symName: __ZNSt3__116forward_as_tupleB8ue170006IJRKNS_12basic_stringIcNS_11char_traitsIcEENS_9allocatorIcEEEEEEENS_5tupleIJDpOT_EEESC_, symObjAddr: 0x32224, symBinAddr: 0x1000352E0, symSize: 0x2C }
  - { offsetInCU: 0x26385, offset: 0x26385, size: 0x8, addend: 0x0, symName: __ZNSt3__116forward_as_tupleB8ue170006IJEEENS_5tupleIJDpOT_EEES4_, symObjAddr: 0x32250, symBinAddr: 0x10003530C, symSize: 0x4 }
  - { offsetInCU: 0x263A9, offset: 0x263A9, size: 0x8, addend: 0x0, symName: __ZNSt3__112construct_atB8ue170006INS_4pairIKNS_12basic_stringIcNS_11char_traitsIcEENS_9allocatorIcEEEEN8nlohmann16json_abi_v3_12_010basic_jsonINS_3mapENS_6vectorES7_bxydS5_NSA_14adl_serializerENSD_IhNS5_IhEEEEvEEEEJRKNS_21piecewise_construct_tENS_5tupleIJRS8_EEENSM_IJEEEEPSI_EEPT_SS_DpOT0_, symObjAddr: 0x323AC, symBinAddr: 0x100035468, symSize: 0x50 }
  - { offsetInCU: 0x26442, offset: 0x26442, size: 0x8, addend: 0x0, symName: __ZNSt3__13getB8ue170006ILm0EJRKNS_12basic_stringIcNS_11char_traitsIcEENS_9allocatorIcEEEEEEERNS_13tuple_elementIXT_ENS_5tupleIJDpT0_EEEE4typeERSD_, symObjAddr: 0x324C8, symBinAddr: 0x100035584, symSize: 0x24 }
  - { offsetInCU: 0x26764, offset: 0x26764, size: 0x8, addend: 0x0, symName: __ZNSt3__14swapB8ue170006IN8nlohmann16json_abi_v3_12_06detail7value_tEEENS_9enable_ifIXaasr21is_move_constructibleIT_EE5valuesr18is_move_assignableIS6_EE5valueEvE4typeERS6_S9_, symObjAddr: 0x35C7C, symBinAddr: 0x100038D38, symSize: 0x3C }
  - { offsetInCU: 0x267B6, offset: 0x267B6, size: 0x8, addend: 0x0, symName: __ZNSt3__14swapB8ue170006IN8nlohmann16json_abi_v3_12_010basic_jsonINS_3mapENS_6vectorENS_12basic_stringIcNS_11char_traitsIcEENS_9allocatorIcEEEEbxydS9_NS2_14adl_serializerENS5_IhNS9_IhEEEEvE10json_valueEEENS_9enable_ifIXaasr21is_move_constructibleIT_EE5valuesr18is_move_assignableISI_EE5valueEvE4typeERSI_SL_, symObjAddr: 0x35CB8, symBinAddr: 0x100038D74, symSize: 0x3C }
  - { offsetInCU: 0x26808, offset: 0x26808, size: 0x8, addend: 0x0, symName: __ZNSt3__112construct_atB8ue170006IPN8nlohmann16json_abi_v3_12_010basic_jsonINS_3mapENS_6vectorENS_12basic_stringIcNS_11char_traitsIcEENS_9allocatorIcEEEEbxydS9_NS2_14adl_serializerENS5_IhNS9_IhEEEEvEEJSG_EPSG_EEPT_SJ_DpOT0_, symObjAddr: 0x36938, symBinAddr: 0x1000399F4, symSize: 0x2C }
  - { offsetInCU: 0x2687A, offset: 0x2687A, size: 0x8, addend: 0x0, symName: __ZNSt3__112construct_atB8ue170006IN8nlohmann16json_abi_v3_12_010basic_jsonINS_3mapENS_6vectorENS_12basic_stringIcNS_11char_traitsIcEENS_9allocatorIcEEEEbxydS9_NS2_14adl_serializerENS5_IhNS9_IhEEEEvEEJNS2_6detail7value_tEEPSF_EEPT_SK_DpOT0_, symObjAddr: 0x36B70, symBinAddr: 0x100039C2C, symSize: 0x40 }
  - { offsetInCU: 0x268EC, offset: 0x268EC, size: 0x8, addend: 0x0, symName: __ZNSt3__112construct_atB8ue170006IN8nlohmann16json_abi_v3_12_010basic_jsonINS_3mapENS_6vectorENS_12basic_stringIcNS_11char_traitsIcEENS_9allocatorIcEEEEbxydS9_NS2_14adl_serializerENS5_IhNS9_IhEEEEvEEJRdEPSF_EEPT_SJ_DpOT0_, symObjAddr: 0x36FAC, symBinAddr: 0x10003A068, symSize: 0x3C }
  - { offsetInCU: 0x2695E, offset: 0x2695E, size: 0x8, addend: 0x0, symName: __ZNSt3__112construct_atB8ue170006IN8nlohmann16json_abi_v3_12_010basic_jsonINS_3mapENS_6vectorENS_12basic_stringIcNS_11char_traitsIcEENS_9allocatorIcEEEEbxydS9_NS2_14adl_serializerENS5_IhNS9_IhEEEEvEEJRbEPSF_EEPT_SJ_DpOT0_, symObjAddr: 0x373E4, symBinAddr: 0x10003A4A0, symSize: 0x3C }
  - { offsetInCU: 0x269D0, offset: 0x269D0, size: 0x8, addend: 0x0, symName: __ZNSt3__112construct_atB8ue170006IN8nlohmann16json_abi_v3_12_010basic_jsonINS_3mapENS_6vectorENS_12basic_stringIcNS_11char_traitsIcEENS_9allocatorIcEEEEbxydS9_NS2_14adl_serializerENS5_IhNS9_IhEEEEvEEJDnEPSF_EEPT_SI_DpOT0_, symObjAddr: 0x3781C, symBinAddr: 0x10003A8D8, symSize: 0x3C }
  - { offsetInCU: 0x26A42, offset: 0x26A42, size: 0x8, addend: 0x0, symName: __ZNSt3__112construct_atB8ue170006IN8nlohmann16json_abi_v3_12_010basic_jsonINS_3mapENS_6vectorENS_12basic_stringIcNS_11char_traitsIcEENS_9allocatorIcEEEEbxydS9_NS2_14adl_serializerENS5_IhNS9_IhEEEEvEEJRxEPSF_EEPT_SJ_DpOT0_, symObjAddr: 0x37C54, symBinAddr: 0x10003AD10, symSize: 0x3C }
  - { offsetInCU: 0x26AB4, offset: 0x26AB4, size: 0x8, addend: 0x0, symName: __ZNSt3__112construct_atB8ue170006IN8nlohmann16json_abi_v3_12_010basic_jsonINS_3mapENS_6vectorENS_12basic_stringIcNS_11char_traitsIcEENS_9allocatorIcEEEEbxydS9_NS2_14adl_serializerENS5_IhNS9_IhEEEEvEEJRSB_EPSF_EEPT_SJ_DpOT0_, symObjAddr: 0x3808C, symBinAddr: 0x10003B148, symSize: 0x3C }
  - { offsetInCU: 0x26B26, offset: 0x26B26, size: 0x8, addend: 0x0, symName: __ZNSt3__112construct_atB8ue170006IN8nlohmann16json_abi_v3_12_010basic_jsonINS_3mapENS_6vectorENS_12basic_stringIcNS_11char_traitsIcEENS_9allocatorIcEEEEbxydS9_NS2_14adl_serializerENS5_IhNS9_IhEEEEvEEJRyEPSF_EEPT_SJ_DpOT0_, symObjAddr: 0x384C4, symBinAddr: 0x10003B580, symSize: 0x3C }
  - { offsetInCU: 0x26BBD, offset: 0x26BBD, size: 0x8, addend: 0x0, symName: __ZNSt3__1ssB8ue170006IcNS_11char_traitsIcEENS_9allocatorIcEEEEDaRKNS_12basic_stringIT_T0_T1_EEPKS7_, symObjAddr: 0x38854, symBinAddr: 0x10003B910, symSize: 0x58 }
  - { offsetInCU: 0x26C18, offset: 0x26C18, size: 0x8, addend: 0x0, symName: __ZNSt3__128__char_traits_length_checkedB8ue170006INS_11char_traitsIcEEEEmPKNT_9char_typeE, symObjAddr: 0x38924, symBinAddr: 0x10003B9E0, symSize: 0x24 }
  - { offsetInCU: 0x26C51, offset: 0x26C51, size: 0x8, addend: 0x0, symName: __ZNSt3__1ltB8ue170006ENS_20_CmpUnspecifiedParamENS_15strong_orderingE, symObjAddr: 0x38998, symBinAddr: 0x10003BA54, symSize: 0x28 }
  - { offsetInCU: 0x26C8C, offset: 0x26C8C, size: 0x8, addend: 0x0, symName: __ZNSt3__112construct_atB8ue170006INS_4pairIKNS_12basic_stringIcNS_11char_traitsIcEENS_9allocatorIcEEEEN8nlohmann16json_abi_v3_12_010basic_jsonINS_3mapENS_6vectorES7_bxydS5_NSA_14adl_serializerENSD_IhNS5_IhEEEEvEEEEJS7_DnEPSI_EEPT_SL_DpOT0_, symObjAddr: 0x38F34, symBinAddr: 0x10003BFF0, symSize: 0x44 }
  - { offsetInCU: 0x26D11, offset: 0x26D11, size: 0x8, addend: 0x0, symName: __ZNSt3__112construct_atB8ue170006IN8nlohmann16json_abi_v3_12_010basic_jsonINS_3mapENS_6vectorENS_12basic_stringIcNS_11char_traitsIcEENS_9allocatorIcEEEEbxydS9_NS2_14adl_serializerENS5_IhNS9_IhEEEEvEEJEPSF_EEPT_SI_DpOT0_, symObjAddr: 0x39378, symBinAddr: 0x10003C434, symSize: 0x38 }
  - { offsetInCU: 0x278A9, offset: 0x278A9, size: 0x8, addend: 0x0, symName: __ZSt28__throw_bad_array_new_lengthB8ue170006v, symObjAddr: 0x72FC, symBinAddr: 0x10000A3B8, symSize: 0x34 }
  - { offsetInCU: 0x27B74, offset: 0x27B74, size: 0x8, addend: 0x0, symName: __ZN8nlohmann16json_abi_v3_12_06detail12static_constINS1_12from_json_fnEE5valueE, symObjAddr: 0x3D2D0, symBinAddr: 0x100174F40, symSize: 0x0 }
  - { offsetInCU: 0x28EFB, offset: 0x28EFB, size: 0x8, addend: 0x0, symName: __ZN8nlohmann16json_abi_v3_12_06detail9dtoa_impl36get_cached_power_for_binary_exponentEi, symObjAddr: 0x20550, symBinAddr: 0x10002360C, symSize: 0x22C }
  - { offsetInCU: 0x28F26, offset: 0x28F26, size: 0x8, addend: 0x0, symName: __ZZN8nlohmann16json_abi_v3_12_06detail9dtoa_impl36get_cached_power_for_binary_exponentEiE13kCachedPowers, symObjAddr: 0x3D8D0, symBinAddr: 0x100175540, symSize: 0x0 }
  - { offsetInCU: 0x28FFA, offset: 0x28FFA, size: 0x8, addend: 0x0, symName: __ZN8nlohmann16json_abi_v3_12_06detail9dtoa_impl6grisu2IdEEvPcRiS5_T_, symObjAddr: 0x1FAC4, symBinAddr: 0x100022B80, symSize: 0xEC }
  - { offsetInCU: 0x2906F, offset: 0x2906F, size: 0x8, addend: 0x0, symName: __ZN8nlohmann16json_abi_v3_12_06detail9dtoa_impl13format_bufferEPciiii, symObjAddr: 0x1FBB0, symBinAddr: 0x100022C6C, symSize: 0x36C }
  - { offsetInCU: 0x290FD, offset: 0x290FD, size: 0x8, addend: 0x0, symName: __ZN8nlohmann16json_abi_v3_12_06detail9dtoa_impl18compute_boundariesIdEENS2_10boundariesET_, symObjAddr: 0x1FF1C, symBinAddr: 0x100022FD8, symSize: 0x24C }
  - { offsetInCU: 0x2920C, offset: 0x2920C, size: 0x8, addend: 0x0, symName: __ZN8nlohmann16json_abi_v3_12_06detail9dtoa_impl6grisu2EPcRiS4_NS2_5diyfpES5_S5_, symObjAddr: 0x20168, symBinAddr: 0x100023224, symSize: 0x1C0 }
  - { offsetInCU: 0x292FB, offset: 0x292FB, size: 0x8, addend: 0x0, symName: __ZN8nlohmann16json_abi_v3_12_06detail9dtoa_impl16reinterpret_bitsIydEET_T0_, symObjAddr: 0x20328, symBinAddr: 0x1000233E4, symSize: 0x1C }
  - { offsetInCU: 0x293FD, offset: 0x293FD, size: 0x8, addend: 0x0, symName: __ZN8nlohmann16json_abi_v3_12_06detail9dtoa_impl16grisu2_digit_genEPcRiS4_NS2_5diyfpES5_S5_, symObjAddr: 0x208BC, symBinAddr: 0x100023978, symSize: 0x4A4 }
  - { offsetInCU: 0x295A2, offset: 0x295A2, size: 0x8, addend: 0x0, symName: __ZN8nlohmann16json_abi_v3_12_06detail9dtoa_impl18find_largest_pow10EjRj, symObjAddr: 0x20E7C, symBinAddr: 0x100023F38, symSize: 0x1F8 }
  - { offsetInCU: 0x295E1, offset: 0x295E1, size: 0x8, addend: 0x0, symName: __ZN8nlohmann16json_abi_v3_12_06detail9dtoa_impl12grisu2_roundEPciyyyy, symObjAddr: 0x21074, symBinAddr: 0x100024130, symSize: 0x24C }
  - { offsetInCU: 0x2965D, offset: 0x2965D, size: 0x8, addend: 0x0, symName: __ZN8nlohmann16json_abi_v3_12_06detail9dtoa_impl15append_exponentEPci, symObjAddr: 0x212DC, symBinAddr: 0x100024398, symSize: 0x220 }
  - { offsetInCU: 0x29D18, offset: 0x29D18, size: 0x8, addend: 0x0, symName: __ZN8nlohmann16json_abi_v3_12_06detail9from_jsonINS0_10basic_jsonINSt3__13mapENS4_6vectorENS4_12basic_stringIcNS4_11char_traitsIcEENS4_9allocatorIcEEEEbxydSA_NS0_14adl_serializerENS6_IhNSA_IhEEEEvEEEEvRKT_RNSH_8string_tE, symObjAddr: 0x2798, symBinAddr: 0x100005854, symSize: 0x118 }
  - { offsetInCU: 0x29F31, offset: 0x29F31, size: 0x8, addend: 0x0, symName: __ZN8nlohmann16json_abi_v3_12_06detail6concatINSt3__112basic_stringIcNS3_11char_traitsIcEENS3_9allocatorIcEEEEJRA29_KcPSA_EEET_DpOT0_, symObjAddr: 0x2A04, symBinAddr: 0x100005AC0, symSize: 0xCC }
  - { offsetInCU: 0x29F9A, offset: 0x29F9A, size: 0x8, addend: 0x0, symName: __ZN8nlohmann16json_abi_v3_12_06detail6concatINSt3__112basic_stringIcNS3_11char_traitsIcEENS3_9allocatorIcEEEEJS9_S9_RKS9_EEET_DpOT0_, symObjAddr: 0x2C24, symBinAddr: 0x100005CE0, symSize: 0xD8 }
  - { offsetInCU: 0x2A018, offset: 0x2A018, size: 0x8, addend: 0x0, symName: __ZN8nlohmann16json_abi_v3_12_06detail13concat_lengthINSt3__112basic_stringIcNS3_11char_traitsIcEENS3_9allocatorIcEEEEJS9_S9_EEEmRKT_DpRKT0_, symObjAddr: 0x2E04, symBinAddr: 0x100005EC0, symSize: 0x48 }
  - { offsetInCU: 0x2A080, offset: 0x2A080, size: 0x8, addend: 0x0, symName: __ZN8nlohmann16json_abi_v3_12_06detail11concat_intoINSt3__112basic_stringIcNS3_11char_traitsIcEENS3_9allocatorIcEEEES9_JS9_RKS9_ELi0EEEvRT_OT0_DpOT1_, symObjAddr: 0x2E4C, symBinAddr: 0x100005F08, symSize: 0x44 }
  - { offsetInCU: 0x2A104, offset: 0x2A104, size: 0x8, addend: 0x0, symName: __ZN8nlohmann16json_abi_v3_12_06detail13concat_lengthINSt3__112basic_stringIcNS3_11char_traitsIcEENS3_9allocatorIcEEEEJS9_EEEmRKT_DpRKT0_, symObjAddr: 0x2E90, symBinAddr: 0x100005F4C, symSize: 0x40 }
  - { offsetInCU: 0x2A158, offset: 0x2A158, size: 0x8, addend: 0x0, symName: __ZN8nlohmann16json_abi_v3_12_06detail13concat_lengthINSt3__112basic_stringIcNS3_11char_traitsIcEENS3_9allocatorIcEEEEJEEEmRKT_DpRKT0_, symObjAddr: 0x2ED0, symBinAddr: 0x100005F8C, symSize: 0x38 }
  - { offsetInCU: 0x2A196, offset: 0x2A196, size: 0x8, addend: 0x0, symName: __ZN8nlohmann16json_abi_v3_12_06detail13concat_lengthEv, symObjAddr: 0x2F08, symBinAddr: 0x100005FC4, symSize: 0x8 }
  - { offsetInCU: 0x2A1B4, offset: 0x2A1B4, size: 0x8, addend: 0x0, symName: __ZN8nlohmann16json_abi_v3_12_06detail11concat_intoINSt3__112basic_stringIcNS3_11char_traitsIcEENS3_9allocatorIcEEEES9_JRKS9_ELi0EEEvRT_OT0_DpOT1_, symObjAddr: 0x2F10, symBinAddr: 0x100005FCC, symSize: 0x3C }
  - { offsetInCU: 0x2A222, offset: 0x2A222, size: 0x8, addend: 0x0, symName: __ZN8nlohmann16json_abi_v3_12_06detail11concat_intoINSt3__112basic_stringIcNS3_11char_traitsIcEENS3_9allocatorIcEEEERKS9_JELi0EEEvRT_OT0_DpOT1_, symObjAddr: 0x2F4C, symBinAddr: 0x100006008, symSize: 0x34 }
  - { offsetInCU: 0x2A27B, offset: 0x2A27B, size: 0x8, addend: 0x0, symName: __ZN8nlohmann16json_abi_v3_12_06detail11concat_intoINSt3__112basic_stringIcNS3_11char_traitsIcEENS3_9allocatorIcEEEEEEvRT_, symObjAddr: 0x2F80, symBinAddr: 0x10000603C, symSize: 0x10 }
  - { offsetInCU: 0x2A2AC, offset: 0x2A2AC, size: 0x8, addend: 0x0, symName: __ZN8nlohmann16json_abi_v3_12_06detail6concatINSt3__112basic_stringIcNS3_11char_traitsIcEENS3_9allocatorIcEEEEJRA17_KcRKS9_cS9_RA3_SA_EEET_DpOT0_, symObjAddr: 0x2F90, symBinAddr: 0x10000604C, symSize: 0xF0 }
  - { offsetInCU: 0x2A354, offset: 0x2A354, size: 0x8, addend: 0x0, symName: __ZN8nlohmann16json_abi_v3_12_06detail13concat_lengthIJNSt3__112basic_stringIcNS3_11char_traitsIcEENS3_9allocatorIcEEEEcS9_A3_cEEEmPKcDpRKT_, symObjAddr: 0x3080, symBinAddr: 0x10000613C, symSize: 0x58 }
  - { offsetInCU: 0x2A3DD, offset: 0x2A3DD, size: 0x8, addend: 0x0, symName: __ZN8nlohmann16json_abi_v3_12_06detail11concat_intoINSt3__112basic_stringIcNS3_11char_traitsIcEENS3_9allocatorIcEEEERA17_KcJRKS9_cS9_RA3_SA_ELi0EEEvRT_OT0_DpOT1_, symObjAddr: 0x30D8, symBinAddr: 0x100006194, symSize: 0x54 }
  - { offsetInCU: 0x2A48B, offset: 0x2A48B, size: 0x8, addend: 0x0, symName: __ZN8nlohmann16json_abi_v3_12_06detail13concat_lengthINSt3__112basic_stringIcNS3_11char_traitsIcEENS3_9allocatorIcEEEEJcS9_A3_cEEEmRKT_DpRKT0_, symObjAddr: 0x312C, symBinAddr: 0x1000061E8, symSize: 0x54 }
  - { offsetInCU: 0x2A509, offset: 0x2A509, size: 0x8, addend: 0x0, symName: __ZN8nlohmann16json_abi_v3_12_06detail13concat_lengthIJNSt3__112basic_stringIcNS3_11char_traitsIcEENS3_9allocatorIcEEEEA3_cEEEmcDpRKT_, symObjAddr: 0x3180, symBinAddr: 0x10000623C, symSize: 0x34 }
  - { offsetInCU: 0x2A565, offset: 0x2A565, size: 0x8, addend: 0x0, symName: __ZN8nlohmann16json_abi_v3_12_06detail13concat_lengthINSt3__112basic_stringIcNS3_11char_traitsIcEENS3_9allocatorIcEEEEJA3_cEEEmRKT_DpRKT0_, symObjAddr: 0x31B4, symBinAddr: 0x100006270, symSize: 0x40 }
  - { offsetInCU: 0x2A5B9, offset: 0x2A5B9, size: 0x8, addend: 0x0, symName: __ZN8nlohmann16json_abi_v3_12_06detail13concat_lengthIJEEEmPKcDpRKT_, symObjAddr: 0x31F4, symBinAddr: 0x1000062B0, symSize: 0x38 }
  - { offsetInCU: 0x2A5ED, offset: 0x2A5ED, size: 0x8, addend: 0x0, symName: __ZN8nlohmann16json_abi_v3_12_06detail11concat_intoINSt3__112basic_stringIcNS3_11char_traitsIcEENS3_9allocatorIcEEEERKS9_JcS9_RA3_KcELi0EEEvRT_OT0_DpOT1_, symObjAddr: 0x322C, symBinAddr: 0x1000062E8, symSize: 0x4C }
  - { offsetInCU: 0x2A685, offset: 0x2A685, size: 0x8, addend: 0x0, symName: __ZN8nlohmann16json_abi_v3_12_06detail11concat_intoINSt3__112basic_stringIcNS3_11char_traitsIcEENS3_9allocatorIcEEEEcJS9_RA3_KcELi0EEEvRT_OT0_DpOT1_, symObjAddr: 0x3278, symBinAddr: 0x100006334, symSize: 0x48 }
  - { offsetInCU: 0x2A708, offset: 0x2A708, size: 0x8, addend: 0x0, symName: __ZN8nlohmann16json_abi_v3_12_06detail11concat_intoINSt3__112basic_stringIcNS3_11char_traitsIcEENS3_9allocatorIcEEEES9_JRA3_KcELi0EEEvRT_OT0_DpOT1_, symObjAddr: 0x32F4, symBinAddr: 0x1000063B0, symSize: 0x3C }
  - { offsetInCU: 0x2A776, offset: 0x2A776, size: 0x8, addend: 0x0, symName: __ZN8nlohmann16json_abi_v3_12_06detail11concat_intoINSt3__112basic_stringIcNS3_11char_traitsIcEENS3_9allocatorIcEEEERA3_KcJELi0EEEvRT_OT0_DpOT1_, symObjAddr: 0x3330, symBinAddr: 0x1000063EC, symSize: 0x34 }
  - { offsetInCU: 0x2A7CF, offset: 0x2A7CF, size: 0x8, addend: 0x0, symName: __ZN8nlohmann16json_abi_v3_12_06detail13concat_lengthIJPKcEEEmS4_DpRKT_, symObjAddr: 0x35A0, symBinAddr: 0x10000665C, symSize: 0x44 }
  - { offsetInCU: 0x2A819, offset: 0x2A819, size: 0x8, addend: 0x0, symName: __ZN8nlohmann16json_abi_v3_12_06detail11concat_intoINSt3__112basic_stringIcNS3_11char_traitsIcEENS3_9allocatorIcEEEERA29_KcJPSA_ELi0EEEvRT_OT0_DpOT1_, symObjAddr: 0x35E4, symBinAddr: 0x1000066A0, symSize: 0x3C }
  - { offsetInCU: 0x2A887, offset: 0x2A887, size: 0x8, addend: 0x0, symName: __ZN8nlohmann16json_abi_v3_12_06detail11concat_intoINSt3__112basic_stringIcNS3_11char_traitsIcEENS3_9allocatorIcEEEEPKcJELi0EEEvRT_OT0_DpOT1_, symObjAddr: 0x3620, symBinAddr: 0x1000066DC, symSize: 0x38 }
  - { offsetInCU: 0x2A8DF, offset: 0x2A8DF, size: 0x8, addend: 0x0, symName: __ZN8nlohmann16json_abi_v3_12_06detail7to_jsonINS0_10basic_jsonINSt3__13mapENS4_6vectorENS4_12basic_stringIcNS4_11char_traitsIcEENS4_9allocatorIcEEEEbxydSA_NS0_14adl_serializerENS6_IhNSA_IhEEEEvEEA9_cLi0EEEvRT_RKT0_, symObjAddr: 0x10238, symBinAddr: 0x1000132F4, symSize: 0x2C }
  - { offsetInCU: 0x2AA10, offset: 0x2AA10, size: 0x8, addend: 0x0, symName: __ZN8nlohmann16json_abi_v3_12_06detail7to_jsonINS0_10basic_jsonINSt3__13mapENS4_6vectorENS4_12basic_stringIcNS4_11char_traitsIcEENS4_9allocatorIcEEEEbxydSA_NS0_14adl_serializerENS6_IhNSA_IhEEEEvEEA6_cLi0EEEvRT_RKT0_, symObjAddr: 0x10A04, symBinAddr: 0x100013AC0, symSize: 0x2C }
  - { offsetInCU: 0x2AA63, offset: 0x2AA63, size: 0x8, addend: 0x0, symName: __ZN8nlohmann16json_abi_v3_12_06detail7to_jsonINS0_10basic_jsonINSt3__13mapENS4_6vectorENS4_12basic_stringIcNS4_11char_traitsIcEENS4_9allocatorIcEEEEbxydSA_NS0_14adl_serializerENS6_IhNSA_IhEEEEvEEA5_cLi0EEEvRT_RKT0_, symObjAddr: 0x110D4, symBinAddr: 0x100014190, symSize: 0x2C }
  - { offsetInCU: 0x2AAB6, offset: 0x2AAB6, size: 0x8, addend: 0x0, symName: __ZN8nlohmann16json_abi_v3_12_06detail7to_jsonINS0_10basic_jsonINSt3__13mapENS4_6vectorENS4_12basic_stringIcNS4_11char_traitsIcEENS4_9allocatorIcEEEEbxydSA_NS0_14adl_serializerENS6_IhNSA_IhEEEEvEEEEvRT_ONSH_8string_tE, symObjAddr: 0x117A4, symBinAddr: 0x100014860, symSize: 0x2C }
  - { offsetInCU: 0x2AAFB, offset: 0x2AAFB, size: 0x8, addend: 0x0, symName: __ZN8nlohmann16json_abi_v3_12_06detail6concatINSt3__112basic_stringIcNS3_11char_traitsIcEENS3_9allocatorIcEEEEJRA52_KcPSA_EEET_DpOT0_, symObjAddr: 0x12778, symBinAddr: 0x100015834, symSize: 0xC4 }
  - { offsetInCU: 0x2AB63, offset: 0x2AB63, size: 0x8, addend: 0x0, symName: __ZN8nlohmann16json_abi_v3_12_06detail11concat_intoINSt3__112basic_stringIcNS3_11char_traitsIcEENS3_9allocatorIcEEEERA52_KcJPSA_ELi0EEEvRT_OT0_DpOT1_, symObjAddr: 0x1283C, symBinAddr: 0x1000158F8, symSize: 0x3C }
  - { offsetInCU: 0x2AC45, offset: 0x2AC45, size: 0x8, addend: 0x0, symName: __ZN8nlohmann16json_abi_v3_12_06detail6concatINSt3__112basic_stringIcNS3_11char_traitsIcEENS3_9allocatorIcEEEEJRA29_KcS9_RA5_SA_S9_EEET_DpOT0_, symObjAddr: 0x1EA44, symBinAddr: 0x100021B00, symSize: 0xE4 }
  - { offsetInCU: 0x2B0D9, offset: 0x2B0D9, size: 0x8, addend: 0x0, symName: __ZN8nlohmann16json_abi_v3_12_06detail6concatINSt3__112basic_stringIcNS3_11char_traitsIcEENS3_9allocatorIcEEEEJRA39_KcS9_EEET_DpOT0_, symObjAddr: 0x1EC38, symBinAddr: 0x100021CF4, symSize: 0xCC }
  - { offsetInCU: 0x2B142, offset: 0x2B142, size: 0x8, addend: 0x0, symName: __ZN8nlohmann16json_abi_v3_12_06detail13concat_lengthIJNSt3__112basic_stringIcNS3_11char_traitsIcEENS3_9allocatorIcEEEEA5_cS9_EEEmPKcDpRKT_, symObjAddr: 0x1ED80, symBinAddr: 0x100021E3C, symSize: 0x50 }
  - { offsetInCU: 0x2B1B6, offset: 0x2B1B6, size: 0x8, addend: 0x0, symName: __ZN8nlohmann16json_abi_v3_12_06detail11concat_intoINSt3__112basic_stringIcNS3_11char_traitsIcEENS3_9allocatorIcEEEERA29_KcJS9_RA5_SA_S9_ELi0EEEvRT_OT0_DpOT1_, symObjAddr: 0x1EDD0, symBinAddr: 0x100021E8C, symSize: 0x4C }
  - { offsetInCU: 0x2B24F, offset: 0x2B24F, size: 0x8, addend: 0x0, symName: __ZN8nlohmann16json_abi_v3_12_06detail13concat_lengthINSt3__112basic_stringIcNS3_11char_traitsIcEENS3_9allocatorIcEEEEJA5_cS9_EEEmRKT_DpRKT0_, symObjAddr: 0x1EE1C, symBinAddr: 0x100021ED8, symSize: 0x48 }
  - { offsetInCU: 0x2B2B8, offset: 0x2B2B8, size: 0x8, addend: 0x0, symName: __ZN8nlohmann16json_abi_v3_12_06detail13concat_lengthIJNSt3__112basic_stringIcNS3_11char_traitsIcEENS3_9allocatorIcEEEEEEEmPKcDpRKT_, symObjAddr: 0x1EE64, symBinAddr: 0x100021F20, symSize: 0x40 }
  - { offsetInCU: 0x2B302, offset: 0x2B302, size: 0x8, addend: 0x0, symName: __ZN8nlohmann16json_abi_v3_12_06detail11concat_intoINSt3__112basic_stringIcNS3_11char_traitsIcEENS3_9allocatorIcEEEES9_JRA5_KcS9_ELi0EEEvRT_OT0_DpOT1_, symObjAddr: 0x1EEA4, symBinAddr: 0x100021F60, symSize: 0x44 }
  - { offsetInCU: 0x2B385, offset: 0x2B385, size: 0x8, addend: 0x0, symName: __ZN8nlohmann16json_abi_v3_12_06detail11concat_intoINSt3__112basic_stringIcNS3_11char_traitsIcEENS3_9allocatorIcEEEERA5_KcJS9_ELi0EEEvRT_OT0_DpOT1_, symObjAddr: 0x1EEE8, symBinAddr: 0x100021FA4, symSize: 0x3C }
  - { offsetInCU: 0x2B3F3, offset: 0x2B3F3, size: 0x8, addend: 0x0, symName: __ZN8nlohmann16json_abi_v3_12_06detail11concat_intoINSt3__112basic_stringIcNS3_11char_traitsIcEENS3_9allocatorIcEEEES9_JELi0EEEvRT_OT0_DpOT1_, symObjAddr: 0x1EF24, symBinAddr: 0x100021FE0, symSize: 0x34 }
  - { offsetInCU: 0x2B44B, offset: 0x2B44B, size: 0x8, addend: 0x0, symName: __ZN8nlohmann16json_abi_v3_12_06detail11concat_intoINSt3__112basic_stringIcNS3_11char_traitsIcEENS3_9allocatorIcEEEERA39_KcJS9_ELi0EEEvRT_OT0_DpOT1_, symObjAddr: 0x1F040, symBinAddr: 0x1000220FC, symSize: 0x3C }
  - { offsetInCU: 0x2B4BA, offset: 0x2B4BA, size: 0x8, addend: 0x0, symName: __ZN8nlohmann16json_abi_v3_12_06detail8to_charsIdEEPcS3_PKcT_, symObjAddr: 0x1F834, symBinAddr: 0x1000228F0, symSize: 0x26C }
  - { offsetInCU: 0x2B6AA, offset: 0x2B6AA, size: 0x8, addend: 0x0, symName: __ZN8nlohmann16json_abi_v3_12_06detail13input_adapterINSt3__112basic_stringIcNS3_11char_traitsIcEENS3_9allocatorIcEEEEEENS1_36container_input_adapter_factory_impl31container_input_adapter_factoryIT_vE12adapter_typeERKSC_, symObjAddr: 0x21664, symBinAddr: 0x100024720, symSize: 0x34 }
  - { offsetInCU: 0x2B764, offset: 0x2B764, size: 0x8, addend: 0x0, symName: __ZN8nlohmann16json_abi_v3_12_06detail13input_adapterINSt3__111__wrap_iterIPKcEEEENS1_30iterator_input_adapter_factoryIT_vE12adapter_typeES9_S9_, symObjAddr: 0x26888, symBinAddr: 0x100029944, symSize: 0x4C }
  - { offsetInCU: 0x2C0C2, offset: 0x2C0C2, size: 0x8, addend: 0x0, symName: __ZN8nlohmann16json_abi_v3_12_06detail12unknown_sizeEv, symObjAddr: 0x2C84C, symBinAddr: 0x10002F908, symSize: 0x14 }
  - { offsetInCU: 0x2C195, offset: 0x2C195, size: 0x8, addend: 0x0, symName: __ZN8nlohmann16json_abi_v3_12_06detail6concatINSt3__112basic_stringIcNS3_11char_traitsIcEENS3_9allocatorIcEEEEJRA26_KcS9_cEEET_DpOT0_, symObjAddr: 0x2D274, symBinAddr: 0x100030330, symSize: 0xD8 }
  - { offsetInCU: 0x2C213, offset: 0x2C213, size: 0x8, addend: 0x0, symName: __ZN8nlohmann16json_abi_v3_12_06detail6concatINSt3__112basic_stringIcNS3_11char_traitsIcEENS3_9allocatorIcEEEEJRA24_KcS9_EEET_DpOT0_, symObjAddr: 0x2DD70, symBinAddr: 0x100030E2C, symSize: 0xCC }
  - { offsetInCU: 0x2C27B, offset: 0x2C27B, size: 0x8, addend: 0x0, symName: __ZN8nlohmann16json_abi_v3_12_06detail11concat_intoINSt3__112basic_stringIcNS3_11char_traitsIcEENS3_9allocatorIcEEEERA24_KcJS9_ELi0EEEvRT_OT0_DpOT1_, symObjAddr: 0x2F790, symBinAddr: 0x10003284C, symSize: 0x3C }
  - { offsetInCU: 0x2C35D, offset: 0x2C35D, size: 0x8, addend: 0x0, symName: __ZN8nlohmann16json_abi_v3_12_06detaileqENS1_20primitive_iterator_tES2_, symObjAddr: 0x30A94, symBinAddr: 0x100033B50, symSize: 0x28 }
  - { offsetInCU: 0x2C39D, offset: 0x2C39D, size: 0x8, addend: 0x0, symName: __ZN8nlohmann16json_abi_v3_12_06detail6concatINSt3__112basic_stringIcNS3_11char_traitsIcEENS3_9allocatorIcEEEEJRA25_KcPSA_EEET_DpOT0_, symObjAddr: 0x31008, symBinAddr: 0x1000340C4, symSize: 0xC4 }
  - { offsetInCU: 0x2C405, offset: 0x2C405, size: 0x8, addend: 0x0, symName: __ZN8nlohmann16json_abi_v3_12_06detail11concat_intoINSt3__112basic_stringIcNS3_11char_traitsIcEENS3_9allocatorIcEEEERA25_KcJPSA_ELi0EEEvRT_OT0_DpOT1_, symObjAddr: 0x31CAC, symBinAddr: 0x100034D68, symSize: 0x3C }
  - { offsetInCU: 0x2C473, offset: 0x2C473, size: 0x8, addend: 0x0, symName: __ZN8nlohmann16json_abi_v3_12_06detail7to_jsonINS0_10basic_jsonINSt3__13mapENS4_6vectorENS4_12basic_stringIcNS4_11char_traitsIcEENS4_9allocatorIcEEEEbxydSA_NS0_14adl_serializerENS6_IhNSA_IhEEEEvEESC_Li0EEEvRT_RKT0_, symObjAddr: 0x32090, symBinAddr: 0x10003514C, symSize: 0x2C }
  - { offsetInCU: 0x2C4C7, offset: 0x2C4C7, size: 0x8, addend: 0x0, symName: __ZN8nlohmann16json_abi_v3_12_06detail6concatINSt3__112basic_stringIcNS3_11char_traitsIcEENS3_9allocatorIcEEEEJRA23_KcS9_EEET_DpOT0_, symObjAddr: 0x325F4, symBinAddr: 0x1000356B0, symSize: 0xCC }
  - { offsetInCU: 0x2C52F, offset: 0x2C52F, size: 0x8, addend: 0x0, symName: __ZN8nlohmann16json_abi_v3_12_06detail11concat_intoINSt3__112basic_stringIcNS3_11char_traitsIcEENS3_9allocatorIcEEEERA23_KcJS9_ELi0EEEvRT_OT0_DpOT1_, symObjAddr: 0x326C0, symBinAddr: 0x10003577C, symSize: 0x3C }
  - { offsetInCU: 0x2C59E, offset: 0x2C59E, size: 0x8, addend: 0x0, symName: __ZN8nlohmann16json_abi_v3_12_06detail13concat_lengthIJNSt3__112basic_stringIcNS3_11char_traitsIcEENS3_9allocatorIcEEEEcEEEmPKcDpRKT_, symObjAddr: 0x32810, symBinAddr: 0x1000358CC, symSize: 0x48 }
  - { offsetInCU: 0x2C5FD, offset: 0x2C5FD, size: 0x8, addend: 0x0, symName: __ZN8nlohmann16json_abi_v3_12_06detail11concat_intoINSt3__112basic_stringIcNS3_11char_traitsIcEENS3_9allocatorIcEEEERA26_KcJS9_cELi0EEEvRT_OT0_DpOT1_, symObjAddr: 0x32858, symBinAddr: 0x100035914, symSize: 0x44 }
  - { offsetInCU: 0x2C681, offset: 0x2C681, size: 0x8, addend: 0x0, symName: __ZN8nlohmann16json_abi_v3_12_06detail13concat_lengthINSt3__112basic_stringIcNS3_11char_traitsIcEENS3_9allocatorIcEEEEJcEEEmRKT_DpRKT0_, symObjAddr: 0x3289C, symBinAddr: 0x100035958, symSize: 0x44 }
  - { offsetInCU: 0x2C6D5, offset: 0x2C6D5, size: 0x8, addend: 0x0, symName: __ZN8nlohmann16json_abi_v3_12_06detail13concat_lengthIJEEEmcDpRKT_, symObjAddr: 0x328E0, symBinAddr: 0x10003599C, symSize: 0x24 }
  - { offsetInCU: 0x2C705, offset: 0x2C705, size: 0x8, addend: 0x0, symName: __ZN8nlohmann16json_abi_v3_12_06detail11concat_intoINSt3__112basic_stringIcNS3_11char_traitsIcEENS3_9allocatorIcEEEES9_JcELi0EEEvRT_OT0_DpOT1_, symObjAddr: 0x32904, symBinAddr: 0x1000359C0, symSize: 0x3C }
  - { offsetInCU: 0x2C773, offset: 0x2C773, size: 0x8, addend: 0x0, symName: __ZN8nlohmann16json_abi_v3_12_06detail11concat_intoINSt3__112basic_stringIcNS3_11char_traitsIcEENS3_9allocatorIcEEEEcJELi0EEEvRT_OT0_DpOT1_, symObjAddr: 0x32940, symBinAddr: 0x1000359FC, symSize: 0x38 }
  - { offsetInCU: 0x2C7CB, offset: 0x2C7CB, size: 0x8, addend: 0x0, symName: __ZN8nlohmann16json_abi_v3_12_06detail7to_jsonINS0_10basic_jsonINSt3__13mapENS4_6vectorENS4_12basic_stringIcNS4_11char_traitsIcEENS4_9allocatorIcEEEEbxydSA_NS0_14adl_serializerENS6_IhNSA_IhEEEEvEEdLi0EEEvRT_T0_, symObjAddr: 0x32F78, symBinAddr: 0x100036034, symSize: 0x2C }
  - { offsetInCU: 0x2C84F, offset: 0x2C84F, size: 0x8, addend: 0x0, symName: __ZN8nlohmann16json_abi_v3_12_06detail7to_jsonINS0_10basic_jsonINSt3__13mapENS4_6vectorENS4_12basic_stringIcNS4_11char_traitsIcEENS4_9allocatorIcEEEEbxydSA_NS0_14adl_serializerENS6_IhNSA_IhEEEEvEEbLi0EEEvRT_T0_, symObjAddr: 0x335EC, symBinAddr: 0x1000366A8, symSize: 0x38 }
  - { offsetInCU: 0x2C8D3, offset: 0x2C8D3, size: 0x8, addend: 0x0, symName: __ZN8nlohmann16json_abi_v3_12_06detail7to_jsonINS0_10basic_jsonINSt3__13mapENS4_6vectorENS4_12basic_stringIcNS4_11char_traitsIcEENS4_9allocatorIcEEEEbxydSA_NS0_14adl_serializerENS6_IhNSA_IhEEEEvEExLi0EEEvRT_T0_, symObjAddr: 0x34150, symBinAddr: 0x10003720C, symSize: 0x2C }
  - { offsetInCU: 0x2C957, offset: 0x2C957, size: 0x8, addend: 0x0, symName: __ZN8nlohmann16json_abi_v3_12_06detail7to_jsonINS0_10basic_jsonINSt3__13mapENS4_6vectorENS4_12basic_stringIcNS4_11char_traitsIcEENS4_9allocatorIcEEEEbxydSA_NS0_14adl_serializerENS6_IhNSA_IhEEEEvEEyLi0EEEvRT_T0_, symObjAddr: 0x34C9C, symBinAddr: 0x100037D58, symSize: 0x2C }
  - { offsetInCU: 0x2C9DC, offset: 0x2C9DC, size: 0x8, addend: 0x0, symName: __ZN8nlohmann16json_abi_v3_12_06detail6concatINSt3__112basic_stringIcNS3_11char_traitsIcEENS3_9allocatorIcEEEEJS9_RA12_KcS9_RA3_SA_S9_RKS9_EEET_DpOT0_, symObjAddr: 0x34EF8, symBinAddr: 0x100037FB4, symSize: 0xFC }
  - { offsetInCU: 0x2CA99, offset: 0x2CA99, size: 0x8, addend: 0x0, symName: __ZN8nlohmann16json_abi_v3_12_06detail13concat_lengthINSt3__112basic_stringIcNS3_11char_traitsIcEENS3_9allocatorIcEEEEJA12_cS9_A3_cS9_S9_EEEmRKT_DpRKT0_, symObjAddr: 0x350F4, symBinAddr: 0x1000381B0, symSize: 0x60 }
  - { offsetInCU: 0x2CB40, offset: 0x2CB40, size: 0x8, addend: 0x0, symName: __ZN8nlohmann16json_abi_v3_12_06detail11concat_intoINSt3__112basic_stringIcNS3_11char_traitsIcEENS3_9allocatorIcEEEES9_JRA12_KcS9_RA3_SA_S9_RKS9_ELi0EEEvRT_OT0_DpOT1_, symObjAddr: 0x35154, symBinAddr: 0x100038210, symSize: 0x5C }
  - { offsetInCU: 0x2CC03, offset: 0x2CC03, size: 0x8, addend: 0x0, symName: __ZN8nlohmann16json_abi_v3_12_06detail13concat_lengthIJNSt3__112basic_stringIcNS3_11char_traitsIcEENS3_9allocatorIcEEEEA3_cS9_S9_EEEmPKcDpRKT_, symObjAddr: 0x351B0, symBinAddr: 0x10003826C, symSize: 0x58 }
  - { offsetInCU: 0x2CC8D, offset: 0x2CC8D, size: 0x8, addend: 0x0, symName: __ZN8nlohmann16json_abi_v3_12_06detail13concat_lengthINSt3__112basic_stringIcNS3_11char_traitsIcEENS3_9allocatorIcEEEEJA3_cS9_S9_EEEmRKT_DpRKT0_, symObjAddr: 0x35208, symBinAddr: 0x1000382C4, symSize: 0x50 }
  - { offsetInCU: 0x2CD0B, offset: 0x2CD0B, size: 0x8, addend: 0x0, symName: __ZN8nlohmann16json_abi_v3_12_06detail13concat_lengthIJNSt3__112basic_stringIcNS3_11char_traitsIcEENS3_9allocatorIcEEEES9_EEEmPKcDpRKT_, symObjAddr: 0x35258, symBinAddr: 0x100038314, symSize: 0x48 }
  - { offsetInCU: 0x2CD6A, offset: 0x2CD6A, size: 0x8, addend: 0x0, symName: __ZN8nlohmann16json_abi_v3_12_06detail11concat_intoINSt3__112basic_stringIcNS3_11char_traitsIcEENS3_9allocatorIcEEEERA12_KcJS9_RA3_SA_S9_RKS9_ELi0EEEvRT_OT0_DpOT1_, symObjAddr: 0x352A0, symBinAddr: 0x10003835C, symSize: 0x54 }
  - { offsetInCU: 0x2CE17, offset: 0x2CE17, size: 0x8, addend: 0x0, symName: __ZN8nlohmann16json_abi_v3_12_06detail11concat_intoINSt3__112basic_stringIcNS3_11char_traitsIcEENS3_9allocatorIcEEEES9_JRA3_KcS9_RKS9_ELi0EEEvRT_OT0_DpOT1_, symObjAddr: 0x352F4, symBinAddr: 0x1000383B0, symSize: 0x4C }
  - { offsetInCU: 0x2CEAF, offset: 0x2CEAF, size: 0x8, addend: 0x0, symName: __ZN8nlohmann16json_abi_v3_12_06detail11concat_intoINSt3__112basic_stringIcNS3_11char_traitsIcEENS3_9allocatorIcEEEERA3_KcJS9_RKS9_ELi0EEEvRT_OT0_DpOT1_, symObjAddr: 0x35340, symBinAddr: 0x1000383FC, symSize: 0x44 }
  - { offsetInCU: 0x2CF33, offset: 0x2CF33, size: 0x8, addend: 0x0, symName: __ZN8nlohmann16json_abi_v3_12_06detail6concatINSt3__112basic_stringIcNS3_11char_traitsIcEENS3_9allocatorIcEEEEJRA10_KcS9_SC_S9_EEET_DpOT0_, symObjAddr: 0x35384, symBinAddr: 0x100038440, symSize: 0xE4 }
  - { offsetInCU: 0x2CFC6, offset: 0x2CFC6, size: 0x8, addend: 0x0, symName: __ZN8nlohmann16json_abi_v3_12_06detail13concat_lengthIJNSt3__112basic_stringIcNS3_11char_traitsIcEENS3_9allocatorIcEEEEA10_cS9_EEEmPKcDpRKT_, symObjAddr: 0x35468, symBinAddr: 0x100038524, symSize: 0x50 }
  - { offsetInCU: 0x2D03A, offset: 0x2D03A, size: 0x8, addend: 0x0, symName: __ZN8nlohmann16json_abi_v3_12_06detail11concat_intoINSt3__112basic_stringIcNS3_11char_traitsIcEENS3_9allocatorIcEEEERA10_KcJS9_SC_S9_ELi0EEEvRT_OT0_DpOT1_, symObjAddr: 0x354B8, symBinAddr: 0x100038574, symSize: 0x4C }
  - { offsetInCU: 0x2D0D3, offset: 0x2D0D3, size: 0x8, addend: 0x0, symName: __ZN8nlohmann16json_abi_v3_12_06detail13concat_lengthINSt3__112basic_stringIcNS3_11char_traitsIcEENS3_9allocatorIcEEEEJA10_cS9_EEEmRKT_DpRKT0_, symObjAddr: 0x35504, symBinAddr: 0x1000385C0, symSize: 0x48 }
  - { offsetInCU: 0x2D13B, offset: 0x2D13B, size: 0x8, addend: 0x0, symName: __ZN8nlohmann16json_abi_v3_12_06detail11concat_intoINSt3__112basic_stringIcNS3_11char_traitsIcEENS3_9allocatorIcEEEES9_JRA10_KcS9_ELi0EEEvRT_OT0_DpOT1_, symObjAddr: 0x3554C, symBinAddr: 0x100038608, symSize: 0x44 }
  - { offsetInCU: 0x2D1BE, offset: 0x2D1BE, size: 0x8, addend: 0x0, symName: __ZN8nlohmann16json_abi_v3_12_06detail11concat_intoINSt3__112basic_stringIcNS3_11char_traitsIcEENS3_9allocatorIcEEEERA10_KcJS9_ELi0EEEvRT_OT0_DpOT1_, symObjAddr: 0x35590, symBinAddr: 0x10003864C, symSize: 0x3C }
  - { offsetInCU: 0x2D22D, offset: 0x2D22D, size: 0x8, addend: 0x0, symName: __ZN8nlohmann16json_abi_v3_12_06detail6concatINSt3__112basic_stringIcNS3_11char_traitsIcEENS3_9allocatorIcEEEEJRA15_KcRKS9_cEEET_DpOT0_, symObjAddr: 0x3565C, symBinAddr: 0x100038718, symSize: 0xD8 }
  - { offsetInCU: 0x2D2AB, offset: 0x2D2AB, size: 0x8, addend: 0x0, symName: __ZN8nlohmann16json_abi_v3_12_06detail6concatINSt3__112basic_stringIcNS3_11char_traitsIcEENS3_9allocatorIcEEEEJPKcRA15_SA_S9_cEEET_DpOT0_, symObjAddr: 0x35760, symBinAddr: 0x10003881C, symSize: 0xE8 }
  - { offsetInCU: 0x2D33E, offset: 0x2D33E, size: 0x8, addend: 0x0, symName: __ZN8nlohmann16json_abi_v3_12_06detail6concatINSt3__112basic_stringIcNS3_11char_traitsIcEENS3_9allocatorIcEEEEJRA12_KcPSA_EEET_DpOT0_, symObjAddr: 0x35860, symBinAddr: 0x10003891C, symSize: 0xC4 }
  - { offsetInCU: 0x2D3A6, offset: 0x2D3A6, size: 0x8, addend: 0x0, symName: __ZN8nlohmann16json_abi_v3_12_06detail11concat_intoINSt3__112basic_stringIcNS3_11char_traitsIcEENS3_9allocatorIcEEEERA15_KcJRKS9_cELi0EEEvRT_OT0_DpOT1_, symObjAddr: 0x35AB0, symBinAddr: 0x100038B6C, symSize: 0x44 }
  - { offsetInCU: 0x2D429, offset: 0x2D429, size: 0x8, addend: 0x0, symName: __ZN8nlohmann16json_abi_v3_12_06detail11concat_intoINSt3__112basic_stringIcNS3_11char_traitsIcEENS3_9allocatorIcEEEERKS9_JcELi0EEEvRT_OT0_DpOT1_, symObjAddr: 0x35AF4, symBinAddr: 0x100038BB0, symSize: 0x3C }
  - { offsetInCU: 0x2D498, offset: 0x2D498, size: 0x8, addend: 0x0, symName: __ZN8nlohmann16json_abi_v3_12_06detail13concat_lengthIJA15_cNSt3__112basic_stringIcNS4_11char_traitsIcEENS4_9allocatorIcEEEEcEEEmPKcDpRKT_, symObjAddr: 0x35B30, symBinAddr: 0x100038BEC, symSize: 0x50 }
  - { offsetInCU: 0x2D50C, offset: 0x2D50C, size: 0x8, addend: 0x0, symName: __ZN8nlohmann16json_abi_v3_12_06detail11concat_intoINSt3__112basic_stringIcNS3_11char_traitsIcEENS3_9allocatorIcEEEEPKcJRA15_SA_S9_cELi0EEEvRT_OT0_DpOT1_, symObjAddr: 0x35B80, symBinAddr: 0x100038C3C, symSize: 0x50 }
  - { offsetInCU: 0x2D5A4, offset: 0x2D5A4, size: 0x8, addend: 0x0, symName: __ZN8nlohmann16json_abi_v3_12_06detail11concat_intoINSt3__112basic_stringIcNS3_11char_traitsIcEENS3_9allocatorIcEEEERA15_KcJS9_cELi0EEEvRT_OT0_DpOT1_, symObjAddr: 0x35BD0, symBinAddr: 0x100038C8C, symSize: 0x44 }
  - { offsetInCU: 0x2D627, offset: 0x2D627, size: 0x8, addend: 0x0, symName: __ZN8nlohmann16json_abi_v3_12_06detail11concat_intoINSt3__112basic_stringIcNS3_11char_traitsIcEENS3_9allocatorIcEEEERA12_KcJPSA_ELi0EEEvRT_OT0_DpOT1_, symObjAddr: 0x35C14, symBinAddr: 0x100038CD0, symSize: 0x3C }
  - { offsetInCU: 0x2D696, offset: 0x2D696, size: 0x8, addend: 0x0, symName: __ZN8nlohmann16json_abi_v3_12_06detail6concatINSt3__112basic_stringIcNS3_11char_traitsIcEENS3_9allocatorIcEEEEJRA51_KcPSA_EEET_DpOT0_, symObjAddr: 0x38BE8, symBinAddr: 0x10003BCA4, symSize: 0xC4 }
  - { offsetInCU: 0x2D6FE, offset: 0x2D6FE, size: 0x8, addend: 0x0, symName: __ZN8nlohmann16json_abi_v3_12_06detail11concat_intoINSt3__112basic_stringIcNS3_11char_traitsIcEENS3_9allocatorIcEEEERA51_KcJPSA_ELi0EEEvRT_OT0_DpOT1_, symObjAddr: 0x38FFC, symBinAddr: 0x10003C0B8, symSize: 0x3C }
  - { offsetInCU: 0x35C18, offset: 0x35C18, size: 0x8, addend: 0x0, symName: __ZN8nlohmann16json_abi_v3_12_06detail12static_constINS1_10to_json_fnEE5valueE, symObjAddr: 0x3D351, symBinAddr: 0x100174FC1, symSize: 0x0 }
  - { offsetInCU: 0x36EC3, offset: 0x36EC3, size: 0x8, addend: 0x0, symName: __ZN8nlohmann16json_abi_v3_12_06detail10serializerINS0_10basic_jsonINSt3__13mapENS4_6vectorENS4_12basic_stringIcNS4_11char_traitsIcEENS4_9allocatorIcEEEEbxydSA_NS0_14adl_serializerENS6_IhNSA_IhEEEEvEEE6decodeERhRjh, symObjAddr: 0x1E878, symBinAddr: 0x100021934, symSize: 0x184 }
  - { offsetInCU: 0x36EE3, offset: 0x36EE3, size: 0x8, addend: 0x0, symName: __ZZN8nlohmann16json_abi_v3_12_06detail10serializerINS0_10basic_jsonINSt3__13mapENS4_6vectorENS4_12basic_stringIcNS4_11char_traitsIcEENS4_9allocatorIcEEEEbxydSA_NS0_14adl_serializerENS6_IhNSA_IhEEEEvEEE6decodeERhRjhE5utf8d, symObjAddr: 0x3D4E7, symBinAddr: 0x100175157, symSize: 0x0 }
  - { offsetInCU: 0x36F7F, offset: 0x36F7F, size: 0x8, addend: 0x0, symName: __ZN8nlohmann16json_abi_v3_12_06detail10serializerINS0_10basic_jsonINSt3__13mapENS4_6vectorENS4_12basic_stringIcNS4_11char_traitsIcEENS4_9allocatorIcEEEEbxydSA_NS0_14adl_serializerENS6_IhNSA_IhEEEEvEEE12dump_integerIhLi0EEEvT_, symObjAddr: 0x1DECC, symBinAddr: 0x100020F88, symSize: 0x2CC }
  - { offsetInCU: 0x36FA3, offset: 0x36FA3, size: 0x8, addend: 0x0, symName: __ZZN8nlohmann16json_abi_v3_12_06detail10serializerINS0_10basic_jsonINSt3__13mapENS4_6vectorENS4_12basic_stringIcNS4_11char_traitsIcEENS4_9allocatorIcEEEEbxydSA_NS0_14adl_serializerENS6_IhNSA_IhEEEEvEEE12dump_integerIhLi0EEEvT_E12digits_to_99, symObjAddr: 0x3D677, symBinAddr: 0x1001752E7, symSize: 0x0 }
  - { offsetInCU: 0x370C5, offset: 0x370C5, size: 0x8, addend: 0x0, symName: __ZN8nlohmann16json_abi_v3_12_06detail10serializerINS0_10basic_jsonINSt3__13mapENS4_6vectorENS4_12basic_stringIcNS4_11char_traitsIcEENS4_9allocatorIcEEEEbxydSA_NS0_14adl_serializerENS6_IhNSA_IhEEEEvEEE12dump_integerIyLi0EEEvT_, symObjAddr: 0x1E208, symBinAddr: 0x1000212C4, symSize: 0x2C8 }
  - { offsetInCU: 0x370E9, offset: 0x370E9, size: 0x8, addend: 0x0, symName: __ZZN8nlohmann16json_abi_v3_12_06detail10serializerINS0_10basic_jsonINSt3__13mapENS4_6vectorENS4_12basic_stringIcNS4_11char_traitsIcEENS4_9allocatorIcEEEEbxydSA_NS0_14adl_serializerENS6_IhNSA_IhEEEEvEEE12dump_integerIyLi0EEEvT_E12digits_to_99, symObjAddr: 0x3D73F, symBinAddr: 0x1001753AF, symSize: 0x0 }
  - { offsetInCU: 0x37187, offset: 0x37187, size: 0x8, addend: 0x0, symName: __ZN8nlohmann16json_abi_v3_12_06detail10serializerINS0_10basic_jsonINSt3__13mapENS4_6vectorENS4_12basic_stringIcNS4_11char_traitsIcEENS4_9allocatorIcEEEEbxydSA_NS0_14adl_serializerENS6_IhNSA_IhEEEEvEEE12dump_integerIxLi0EEEvT_, symObjAddr: 0x1E514, symBinAddr: 0x1000215D0, symSize: 0x2C8 }
  - { offsetInCU: 0x371AB, offset: 0x371AB, size: 0x8, addend: 0x0, symName: __ZZN8nlohmann16json_abi_v3_12_06detail10serializerINS0_10basic_jsonINSt3__13mapENS4_6vectorENS4_12basic_stringIcNS4_11char_traitsIcEENS4_9allocatorIcEEEEbxydSA_NS0_14adl_serializerENS6_IhNSA_IhEEEEvEEE12dump_integerIxLi0EEEvT_E12digits_to_99, symObjAddr: 0x3D807, symBinAddr: 0x100175477, symSize: 0x0 }
  - { offsetInCU: 0x37249, offset: 0x37249, size: 0x8, addend: 0x0, symName: __ZN8nlohmann16json_abi_v3_12_06detail10serializerINS0_10basic_jsonINSt3__13mapENS4_6vectorENS4_12basic_stringIcNS4_11char_traitsIcEENS4_9allocatorIcEEEEbxydSA_NS0_14adl_serializerENS6_IhNSA_IhEEEEvEEE10dump_floatEd, symObjAddr: 0x1E7DC, symBinAddr: 0x100021898, symSize: 0x6C }
  - { offsetInCU: 0x3726D, offset: 0x3726D, size: 0x8, addend: 0x0, symName: __ZZN8nlohmann16json_abi_v3_12_06detail10serializerINS0_10basic_jsonINSt3__13mapENS4_6vectorENS4_12basic_stringIcNS4_11char_traitsIcEENS4_9allocatorIcEEEEbxydSA_NS0_14adl_serializerENS6_IhNSA_IhEEEEvEEE10dump_floatEdE24is_ieee_single_or_double, symObjAddr: 0x3D8CF, symBinAddr: 0x10017553F, symSize: 0x0 }
  - { offsetInCU: 0x3769F, offset: 0x3769F, size: 0x8, addend: 0x0, symName: __ZNSt3__16vectorINS_4pairINS_12basic_stringIcNS_11char_traitsIcEENS_9allocatorIcEEEEbEENS5_IS8_EEE26__swap_out_circular_bufferERNS_14__split_bufferIS8_RS9_EE, symObjAddr: 0x6BF0, symBinAddr: 0x100009CAC, symSize: 0x110 }
  - { offsetInCU: 0x37A25, offset: 0x37A25, size: 0x8, addend: 0x0, symName: __ZNSt3__16vectorI6ImVec2NS_9allocatorIS1_EEE26__swap_out_circular_bufferERNS_14__split_bufferIS1_RS3_EE, symObjAddr: 0x9D6C, symBinAddr: 0x10000CE28, symSize: 0x110 }
  - { offsetInCU: 0x37A80, offset: 0x37A80, size: 0x8, addend: 0x0, symName: __ZNSt3__16vectorIN8nlohmann16json_abi_v3_12_010basic_jsonINS_3mapES0_NS_12basic_stringIcNS_11char_traitsIcEENS_9allocatorIcEEEEbxydS8_NS2_14adl_serializerENS0_IhNS8_IhEEEEvEENS8_ISE_EEE26__swap_out_circular_bufferERNS_14__split_bufferISE_RSF_EE, symObjAddr: 0xCBF4, symBinAddr: 0x10000FCB0, symSize: 0x110 }
  - { offsetInCU: 0x37E91, offset: 0x37E91, size: 0x8, addend: 0x0, symName: __ZNSt3__16vectorIcNS_9allocatorIcEEE26__swap_out_circular_bufferERNS_14__split_bufferIcRS2_EE, symObjAddr: 0x24AE8, symBinAddr: 0x100027BA4, symSize: 0x110 }
  - { offsetInCU: 0x381F3, offset: 0x381F3, size: 0x8, addend: 0x0, symName: __ZNSt3__16vectorIPN8nlohmann16json_abi_v3_12_010basic_jsonINS_3mapES0_NS_12basic_stringIcNS_11char_traitsIcEENS_9allocatorIcEEEEbxydS8_NS2_14adl_serializerENS0_IhNS8_IhEEEEvEENS8_ISF_EEE26__swap_out_circular_bufferERNS_14__split_bufferISF_RSG_EE, symObjAddr: 0x2E688, symBinAddr: 0x100031744, symSize: 0x110 }
  - { offsetInCU: 0x3A4BC, offset: 0x3A4BC, size: 0x8, addend: 0x0, symName: __ZNSt3__112basic_stringIcNS_11char_traitsIcEENS_9allocatorIcEEEC1B8ue170006ILi0EEEPKc, symObjAddr: 0x0, symBinAddr: 0x1000030BC, symSize: 0x34 }
  - { offsetInCU: 0x3A4FC, offset: 0x3A4FC, size: 0x8, addend: 0x0, symName: __ZNSt3__112basic_stringIcNS_11char_traitsIcEENS_9allocatorIcEEEC1B8ue170006Ev, symObjAddr: 0x12B4, symBinAddr: 0x100004370, symSize: 0x2C }
  - { offsetInCU: 0x3A53F, offset: 0x3A53F, size: 0x8, addend: 0x0, symName: __ZN8nlohmann16json_abi_v3_12_06detail8json_refINS0_10basic_jsonINSt3__13mapENS4_6vectorENS4_12basic_stringIcNS4_11char_traitsIcEENS4_9allocatorIcEEEEbxydSA_NS0_14adl_serializerENS6_IhNSA_IhEEEEvEEEC1IJRA9_KcELi0EEEDpOT_, symObjAddr: 0x1360, symBinAddr: 0x10000441C, symSize: 0x34 }
  - { offsetInCU: 0x3A5A3, offset: 0x3A5A3, size: 0x8, addend: 0x0, symName: __ZN8nlohmann16json_abi_v3_12_06detail8json_refINS0_10basic_jsonINSt3__13mapENS4_6vectorENS4_12basic_stringIcNS4_11char_traitsIcEENS4_9allocatorIcEEEEbxydSA_NS0_14adl_serializerENS6_IhNSA_IhEEEEvEEEC1IJRA6_KcELi0EEEDpOT_, symObjAddr: 0x1394, symBinAddr: 0x100004450, symSize: 0x34 }
  - { offsetInCU: 0x3A607, offset: 0x3A607, size: 0x8, addend: 0x0, symName: __ZN8nlohmann16json_abi_v3_12_06detail8json_refINS0_10basic_jsonINSt3__13mapENS4_6vectorENS4_12basic_stringIcNS4_11char_traitsIcEENS4_9allocatorIcEEEEbxydSA_NS0_14adl_serializerENS6_IhNSA_IhEEEEvEEEC1IJRA5_KcELi0EEEDpOT_, symObjAddr: 0x13C8, symBinAddr: 0x100004484, symSize: 0x34 }
  - { offsetInCU: 0x3A658, offset: 0x3A658, size: 0x8, addend: 0x0, symName: __ZN8nlohmann16json_abi_v3_12_06detail8json_refINS0_10basic_jsonINSt3__13mapENS4_6vectorENS4_12basic_stringIcNS4_11char_traitsIcEENS4_9allocatorIcEEEEbxydSA_NS0_14adl_serializerENS6_IhNSA_IhEEEEvEEEC1IJSC_ELi0EEEDpOT_, symObjAddr: 0x13FC, symBinAddr: 0x1000044B8, symSize: 0x34 }
  - { offsetInCU: 0x3A6A3, offset: 0x3A6A3, size: 0x8, addend: 0x0, symName: __ZN8nlohmann16json_abi_v3_12_06detail8json_refINS0_10basic_jsonINSt3__13mapENS4_6vectorENS4_12basic_stringIcNS4_11char_traitsIcEENS4_9allocatorIcEEEEbxydSA_NS0_14adl_serializerENS6_IhNSA_IhEEEEvEEEC1ESt16initializer_listISH_E, symObjAddr: 0x1430, symBinAddr: 0x1000044EC, symSize: 0x3C }
  - { offsetInCU: 0x3A6DD, offset: 0x3A6DD, size: 0x8, addend: 0x0, symName: __ZN8nlohmann16json_abi_v3_12_010basic_jsonINSt3__13mapENS2_6vectorENS2_12basic_stringIcNS2_11char_traitsIcEENS2_9allocatorIcEEEEbxydS8_NS0_14adl_serializerENS4_IhNS8_IhEEEEvEC1ESt16initializer_listINS0_6detail8json_refISE_EEEbNSG_7value_tE, symObjAddr: 0x146C, symBinAddr: 0x100004528, symSize: 0x58 }
  - { offsetInCU: 0x3A737, offset: 0x3A737, size: 0x8, addend: 0x0, symName: __ZN8nlohmann16json_abi_v3_12_06detail8json_refINS0_10basic_jsonINSt3__13mapENS4_6vectorENS4_12basic_stringIcNS4_11char_traitsIcEENS4_9allocatorIcEEEEbxydSA_NS0_14adl_serializerENS6_IhNSA_IhEEEEvEEED1Ev, symObjAddr: 0x14C4, symBinAddr: 0x100004580, symSize: 0x2C }
  - { offsetInCU: 0x3A761, offset: 0x3A761, size: 0x8, addend: 0x0, symName: __ZNK8nlohmann16json_abi_v3_12_010basic_jsonINSt3__13mapENS2_6vectorENS2_12basic_stringIcNS2_11char_traitsIcEENS2_9allocatorIcEEEEbxydS8_NS0_14adl_serializerENS4_IhNS8_IhEEEEvE4dumpEicbNS0_6detail15error_handler_tE, symObjAddr: 0x14F0, symBinAddr: 0x1000045AC, symSize: 0x1F4 }
  - { offsetInCU: 0x3A7ED, offset: 0x3A7ED, size: 0x8, addend: 0x0, symName: __ZNKSt3__112basic_stringIcNS_11char_traitsIcEENS_9allocatorIcEEE5c_strB8ue170006Ev, symObjAddr: 0x16E4, symBinAddr: 0x1000047A0, symSize: 0x24 }
  - { offsetInCU: 0x3A813, offset: 0x3A813, size: 0x8, addend: 0x0, symName: __ZN8nlohmann16json_abi_v3_12_010basic_jsonINSt3__13mapENS2_6vectorENS2_12basic_stringIcNS2_11char_traitsIcEENS2_9allocatorIcEEEEbxydS8_NS0_14adl_serializerENS4_IhNS8_IhEEEEvE5parseIRSA_EESE_OT_NS2_8functionIFbiNS0_6detail13parse_event_tERSE_EEEbb, symObjAddr: 0x1798, symBinAddr: 0x100004854, symSize: 0x1A4 }
  - { offsetInCU: 0x3A887, offset: 0x3A887, size: 0x8, addend: 0x0, symName: __ZNSt3__18functionIFbiN8nlohmann16json_abi_v3_12_06detail13parse_event_tERNS2_10basic_jsonINS_3mapENS_6vectorENS_12basic_stringIcNS_11char_traitsIcEENS_9allocatorIcEEEEbxydSB_NS2_14adl_serializerENS7_IhNSB_IhEEEEvEEEEC1B8ue170006EDn, symObjAddr: 0x193C, symBinAddr: 0x1000049F8, symSize: 0x34 }
  - { offsetInCU: 0x3A8BD, offset: 0x3A8BD, size: 0x8, addend: 0x0, symName: __ZNSt3__18functionIFbiN8nlohmann16json_abi_v3_12_06detail13parse_event_tERNS2_10basic_jsonINS_3mapENS_6vectorENS_12basic_stringIcNS_11char_traitsIcEENS_9allocatorIcEEEEbxydSB_NS2_14adl_serializerENS7_IhNSB_IhEEEEvEEEED1Ev, symObjAddr: 0x1970, symBinAddr: 0x100004A2C, symSize: 0x2C }
  - { offsetInCU: 0x3A902, offset: 0x3A902, size: 0x8, addend: 0x0, symName: __ZNK8nlohmann16json_abi_v3_12_010basic_jsonINSt3__13mapENS2_6vectorENS2_12basic_stringIcNS2_11char_traitsIcEENS2_9allocatorIcEEEEbxydS8_NS0_14adl_serializerENS4_IhNS8_IhEEEEvE8containsIRA11_KcLi0EEEbOT_, symObjAddr: 0x199C, symBinAddr: 0x100004A58, symSize: 0x88 }
  - { offsetInCU: 0x3A947, offset: 0x3A947, size: 0x8, addend: 0x0, symName: __ZN8nlohmann16json_abi_v3_12_010basic_jsonINSt3__13mapENS2_6vectorENS2_12basic_stringIcNS2_11char_traitsIcEENS2_9allocatorIcEEEEbxydS8_NS0_14adl_serializerENS4_IhNS8_IhEEEEvEixIKcEERSE_PT_, symObjAddr: 0x1A24, symBinAddr: 0x100004AE0, symSize: 0x78 }
  - { offsetInCU: 0x3A986, offset: 0x3A986, size: 0x8, addend: 0x0, symName: __ZNK8nlohmann16json_abi_v3_12_010basic_jsonINSt3__13mapENS2_6vectorENS2_12basic_stringIcNS2_11char_traitsIcEENS2_9allocatorIcEEEEbxydS8_NS0_14adl_serializerENS4_IhNS8_IhEEEEvE4sizeEv, symObjAddr: 0x1A9C, symBinAddr: 0x100004B58, symSize: 0xA4 }
  - { offsetInCU: 0x3A9AC, offset: 0x3A9AC, size: 0x8, addend: 0x0, symName: __ZN8nlohmann16json_abi_v3_12_010basic_jsonINSt3__13mapENS2_6vectorENS2_12basic_stringIcNS2_11char_traitsIcEENS2_9allocatorIcEEEEbxydS8_NS0_14adl_serializerENS4_IhNS8_IhEEEEvEixEm, symObjAddr: 0x1B68, symBinAddr: 0x100004C24, symSize: 0x1A8 }
  - { offsetInCU: 0x3A9FB, offset: 0x3A9FB, size: 0x8, addend: 0x0, symName: __ZNK8nlohmann16json_abi_v3_12_010basic_jsonINSt3__13mapENS2_6vectorENS2_12basic_stringIcNS2_11char_traitsIcEENS2_9allocatorIcEEEEbxydS8_NS0_14adl_serializerENS4_IhNS8_IhEEEEvE8containsIRA8_KcLi0EEEbOT_, symObjAddr: 0x1D10, symBinAddr: 0x100004DCC, symSize: 0x88 }
  - { offsetInCU: 0x3AA40, offset: 0x3AA40, size: 0x8, addend: 0x0, symName: __ZNK8nlohmann16json_abi_v3_12_010basic_jsonINSt3__13mapENS2_6vectorENS2_12basic_stringIcNS2_11char_traitsIcEENS2_9allocatorIcEEEEbxydS8_NS0_14adl_serializerENS4_IhNS8_IhEEEEvE8containsIRA6_KcLi0EEEbOT_, symObjAddr: 0x1D98, symBinAddr: 0x100004E54, symSize: 0x88 }
  - { offsetInCU: 0x3AA85, offset: 0x3AA85, size: 0x8, addend: 0x0, symName: __ZNK8nlohmann16json_abi_v3_12_010basic_jsonINSt3__13mapENS2_6vectorENS2_12basic_stringIcNS2_11char_traitsIcEENS2_9allocatorIcEEEEbxydS8_NS0_14adl_serializerENS4_IhNS8_IhEEEEvE3getISA_SA_EEDTcldtclL_ZNS2_7declvalIRKSE_EEDTclsr3stdE9__declvalIT_ELi0EEEvEE8get_implIT0_EtlNS0_6detail12priority_tagILj4EEEEEEv, symObjAddr: 0x1E20, symBinAddr: 0x100004EDC, symSize: 0x2C }
  - { offsetInCU: 0x3AABD, offset: 0x3AABD, size: 0x8, addend: 0x0, symName: __ZN8nlohmann16json_abi_v3_12_010basic_jsonINSt3__13mapENS2_6vectorENS2_12basic_stringIcNS2_11char_traitsIcEENS2_9allocatorIcEEEEbxydS8_NS0_14adl_serializerENS4_IhNS8_IhEEEEvED1Ev, symObjAddr: 0x1E4C, symBinAddr: 0x100004F08, symSize: 0x2C }
  - { offsetInCU: 0x3AAE7, offset: 0x3AAE7, size: 0x8, addend: 0x0, symName: _main, symObjAddr: 0x1E84, symBinAddr: 0x100004F40, symSize: 0xC4 }
  - { offsetInCU: 0x3AB00, offset: 0x3AB00, size: 0x8, addend: 0x0, symName: __Z12processInputP10GLFWwindow, symObjAddr: 0x20D4, symBinAddr: 0x100005190, symSize: 0x48 }
  - { offsetInCU: 0x3AB29, offset: 0x3AB29, size: 0x8, addend: 0x0, symName: __ZNSt3__112basic_stringIcNS_11char_traitsIcEENS_9allocatorIcEEEC2B8ue170006ILi0EEEPKc, symObjAddr: 0x211C, symBinAddr: 0x1000051D8, symSize: 0x58 }
  - { offsetInCU: 0x3AB6F, offset: 0x3AB6F, size: 0x8, addend: 0x0, symName: __ZNSt3__117__compressed_pairINS_12basic_stringIcNS_11char_traitsIcEENS_9allocatorIcEEE5__repES5_EC1B8ue170006INS_18__default_init_tagESA_EEOT_OT0_, symObjAddr: 0x2174, symBinAddr: 0x100005230, symSize: 0x3C }
  - { offsetInCU: 0x3ABC7, offset: 0x3ABC7, size: 0x8, addend: 0x0, symName: __ZNSt3__111char_traitsIcE6lengthB8ue170006EPKc, symObjAddr: 0x21B0, symBinAddr: 0x10000526C, symSize: 0x34 }
  - { offsetInCU: 0x3ABEA, offset: 0x3ABEA, size: 0x8, addend: 0x0, symName: __ZNSt3__117__compressed_pairINS_12basic_stringIcNS_11char_traitsIcEENS_9allocatorIcEEE5__repES5_EC2B8ue170006INS_18__default_init_tagESA_EEOT_OT0_, symObjAddr: 0x21E4, symBinAddr: 0x1000052A0, symSize: 0x3C }
  - { offsetInCU: 0x3AC42, offset: 0x3AC42, size: 0x8, addend: 0x0, symName: __ZNSt3__122__compressed_pair_elemINS_12basic_stringIcNS_11char_traitsIcEENS_9allocatorIcEEE5__repELi0ELb0EEC2B8ue170006ENS_18__default_init_tagE, symObjAddr: 0x2220, symBinAddr: 0x1000052DC, symSize: 0x14 }
  - { offsetInCU: 0x3AC77, offset: 0x3AC77, size: 0x8, addend: 0x0, symName: __ZNSt3__122__compressed_pair_elemINS_9allocatorIcEELi1ELb1EEC2B8ue170006ENS_18__default_init_tagE, symObjAddr: 0x2234, symBinAddr: 0x1000052F0, symSize: 0x2C }
  - { offsetInCU: 0x3ACAC, offset: 0x3ACAC, size: 0x8, addend: 0x0, symName: __ZNSt3__19allocatorIcEC2B8ue170006Ev, symObjAddr: 0x2260, symBinAddr: 0x10000531C, symSize: 0x2C }
  - { offsetInCU: 0x3ACD6, offset: 0x3ACD6, size: 0x8, addend: 0x0, symName: __ZNSt3__116__non_trivial_ifILb1ENS_9allocatorIcEEEC2B8ue170006Ev, symObjAddr: 0x228C, symBinAddr: 0x100005348, symSize: 0x14 }
  - { offsetInCU: 0x3AD00, offset: 0x3AD00, size: 0x8, addend: 0x0, symName: __ZNSt3__112basic_stringIcNS_11char_traitsIcEENS_9allocatorIcEEEC2B8ue170006Ev, symObjAddr: 0x22C4, symBinAddr: 0x100005380, symSize: 0x48 }
  - { offsetInCU: 0x3AD2A, offset: 0x3AD2A, size: 0x8, addend: 0x0, symName: __ZNSt3__112basic_stringIcNS_11char_traitsIcEENS_9allocatorIcEEE14__default_initB8ue170006Ev, symObjAddr: 0x230C, symBinAddr: 0x1000053C8, symSize: 0x40 }
  - { offsetInCU: 0x3AD50, offset: 0x3AD50, size: 0x8, addend: 0x0, symName: __ZNSt3__117__compressed_pairINS_12basic_stringIcNS_11char_traitsIcEENS_9allocatorIcEEE5__repES5_E5firstB8ue170006Ev, symObjAddr: 0x234C, symBinAddr: 0x100005408, symSize: 0x24 }
  - { offsetInCU: 0x3AD76, offset: 0x3AD76, size: 0x8, addend: 0x0, symName: __ZNSt3__122__compressed_pair_elemINS_12basic_stringIcNS_11char_traitsIcEENS_9allocatorIcEEE5__repELi0ELb0EE5__getB8ue170006Ev, symObjAddr: 0x2370, symBinAddr: 0x10000542C, symSize: 0x14 }
  - { offsetInCU: 0x3AD9C, offset: 0x3AD9C, size: 0x8, addend: 0x0, symName: __ZNSt3__112basic_stringIcNS_11char_traitsIcEENS_9allocatorIcEEE6appendB8ue170006ERKS5_, symObjAddr: 0x2384, symBinAddr: 0x100005440, symSize: 0x4C }
  - { offsetInCU: 0x3ADD2, offset: 0x3ADD2, size: 0x8, addend: 0x0, symName: __ZNSt3__112basic_stringIcNS_11char_traitsIcEENS_9allocatorIcEEEC1B8ue170006EOS5_, symObjAddr: 0x23D0, symBinAddr: 0x10000548C, symSize: 0x34 }
  - { offsetInCU: 0x3AE0C, offset: 0x3AE0C, size: 0x8, addend: 0x0, symName: __ZNKSt3__112basic_stringIcNS_11char_traitsIcEENS_9allocatorIcEEE4dataB8ue170006Ev, symObjAddr: 0x2404, symBinAddr: 0x1000054C0, symSize: 0x28 }
  - { offsetInCU: 0x3AE32, offset: 0x3AE32, size: 0x8, addend: 0x0, symName: __ZNKSt3__112basic_stringIcNS_11char_traitsIcEENS_9allocatorIcEEE4sizeB8ue170006Ev, symObjAddr: 0x242C, symBinAddr: 0x1000054E8, symSize: 0x54 }
  - { offsetInCU: 0x3AE58, offset: 0x3AE58, size: 0x8, addend: 0x0, symName: __ZNKSt3__112basic_stringIcNS_11char_traitsIcEENS_9allocatorIcEEE13__get_pointerB8ue170006Ev, symObjAddr: 0x2494, symBinAddr: 0x100005550, symSize: 0x54 }
  - { offsetInCU: 0x3AE7E, offset: 0x3AE7E, size: 0x8, addend: 0x0, symName: __ZNKSt3__112basic_stringIcNS_11char_traitsIcEENS_9allocatorIcEEE9__is_longB8ue170006Ev, symObjAddr: 0x24E8, symBinAddr: 0x1000055A4, symSize: 0x38 }
  - { offsetInCU: 0x3AEA4, offset: 0x3AEA4, size: 0x8, addend: 0x0, symName: __ZNKSt3__112basic_stringIcNS_11char_traitsIcEENS_9allocatorIcEEE18__get_long_pointerB8ue170006Ev, symObjAddr: 0x2520, symBinAddr: 0x1000055DC, symSize: 0x28 }
  - { offsetInCU: 0x3AECA, offset: 0x3AECA, size: 0x8, addend: 0x0, symName: __ZNKSt3__112basic_stringIcNS_11char_traitsIcEENS_9allocatorIcEEE19__get_short_pointerB8ue170006Ev, symObjAddr: 0x2548, symBinAddr: 0x100005604, symSize: 0x28 }
  - { offsetInCU: 0x3AEF0, offset: 0x3AEF0, size: 0x8, addend: 0x0, symName: __ZNKSt3__117__compressed_pairINS_12basic_stringIcNS_11char_traitsIcEENS_9allocatorIcEEE5__repES5_E5firstB8ue170006Ev, symObjAddr: 0x2570, symBinAddr: 0x10000562C, symSize: 0x24 }
  - { offsetInCU: 0x3AF16, offset: 0x3AF16, size: 0x8, addend: 0x0, symName: __ZNKSt3__122__compressed_pair_elemINS_12basic_stringIcNS_11char_traitsIcEENS_9allocatorIcEEE5__repELi0ELb0EE5__getB8ue170006Ev, symObjAddr: 0x2594, symBinAddr: 0x100005650, symSize: 0x14 }
  - { offsetInCU: 0x3AF3C, offset: 0x3AF3C, size: 0x8, addend: 0x0, symName: __ZNSt3__114pointer_traitsIPKcE10pointer_toB8ue170006ERS1_, symObjAddr: 0x25A8, symBinAddr: 0x100005664, symSize: 0x14 }
  - { offsetInCU: 0x3AF5F, offset: 0x3AF5F, size: 0x8, addend: 0x0, symName: __ZNKSt3__112basic_stringIcNS_11char_traitsIcEENS_9allocatorIcEEE15__get_long_sizeB8ue170006Ev, symObjAddr: 0x25BC, symBinAddr: 0x100005678, symSize: 0x28 }
  - { offsetInCU: 0x3AF85, offset: 0x3AF85, size: 0x8, addend: 0x0, symName: __ZNKSt3__112basic_stringIcNS_11char_traitsIcEENS_9allocatorIcEEE16__get_short_sizeB8ue170006Ev, symObjAddr: 0x25E4, symBinAddr: 0x1000056A0, symSize: 0x34 }
  - { offsetInCU: 0x3AFAB, offset: 0x3AFAB, size: 0x8, addend: 0x0, symName: __ZNSt3__112basic_stringIcNS_11char_traitsIcEENS_9allocatorIcEEEC2B8ue170006EOS5_, symObjAddr: 0x2618, symBinAddr: 0x1000056D4, symSize: 0x48 }
  - { offsetInCU: 0x3AFE5, offset: 0x3AFE5, size: 0x8, addend: 0x0, symName: __ZN8nlohmann16json_abi_v3_12_06detail8json_refINS0_10basic_jsonINSt3__13mapENS4_6vectorENS4_12basic_stringIcNS4_11char_traitsIcEENS4_9allocatorIcEEEEbxydSA_NS0_14adl_serializerENS6_IhNSA_IhEEEEvEEED2Ev, symObjAddr: 0x2660, symBinAddr: 0x10000571C, symSize: 0x2C }
  - { offsetInCU: 0x3B00F, offset: 0x3B00F, size: 0x8, addend: 0x0, symName: __ZNK8nlohmann16json_abi_v3_12_010basic_jsonINSt3__13mapENS2_6vectorENS2_12basic_stringIcNS2_11char_traitsIcEENS2_9allocatorIcEEEEbxydS8_NS0_14adl_serializerENS4_IhNS8_IhEEEEvE8get_implISA_Li0EEET_NS0_6detail12priority_tagILj0EEE, symObjAddr: 0x268C, symBinAddr: 0x100005748, symSize: 0xA8 }
  - { offsetInCU: 0x3B060, offset: 0x3B060, size: 0x8, addend: 0x0, symName: __ZN8nlohmann16json_abi_v3_12_014adl_serializerINSt3__112basic_stringIcNS2_11char_traitsIcEENS2_9allocatorIcEEEEvE9from_jsonIRKNS0_10basic_jsonINS2_3mapENS2_6vectorES8_bxydS6_S1_NSD_IhNS6_IhEEEEvEES8_EEDTcmclL_ZNS0_9from_jsonEEclsr3stdE7forwardIT_Efp_Efp0_Ecvv_EEOSJ_RT0_, symObjAddr: 0x2734, symBinAddr: 0x1000057F0, symSize: 0x34 }
  - { offsetInCU: 0x3B0AD, offset: 0x3B0AD, size: 0x8, addend: 0x0, symName: __ZNK8nlohmann16json_abi_v3_12_06detail12from_json_fnclINS0_10basic_jsonINSt3__13mapENS5_6vectorENS5_12basic_stringIcNS5_11char_traitsIcEENS5_9allocatorIcEEEEbxydSB_NS0_14adl_serializerENS7_IhNSB_IhEEEEvEERSD_EEDTcl9from_jsonfp_clsr3stdE7forwardIT0_Efp0_EEERKT_OSJ_, symObjAddr: 0x2768, symBinAddr: 0x100005824, symSize: 0x30 }
  - { offsetInCU: 0x3B105, offset: 0x3B105, size: 0x8, addend: 0x0, symName: __ZNK8nlohmann16json_abi_v3_12_010basic_jsonINSt3__13mapENS2_6vectorENS2_12basic_stringIcNS2_11char_traitsIcEENS2_9allocatorIcEEEEbxydS8_NS0_14adl_serializerENS4_IhNS8_IhEEEEvE9is_stringEv, symObjAddr: 0x28B0, symBinAddr: 0x10000596C, symSize: 0x24 }
  - { offsetInCU: 0x3B15F, offset: 0x3B15F, size: 0x8, addend: 0x0, symName: __ZN8nlohmann16json_abi_v3_12_06detail10type_error6createIPKNS0_10basic_jsonINSt3__13mapENS5_6vectorENS5_12basic_stringIcNS5_11char_traitsIcEENS5_9allocatorIcEEEEbxydSB_NS0_14adl_serializerENS7_IhNSB_IhEEEEvEELi0EEES2_iRKSD_T_, symObjAddr: 0x28D4, symBinAddr: 0x100005990, symSize: 0x130 }
  - { offsetInCU: 0x3B1C2, offset: 0x3B1C2, size: 0x8, addend: 0x0, symName: __ZNK8nlohmann16json_abi_v3_12_010basic_jsonINSt3__13mapENS2_6vectorENS2_12basic_stringIcNS2_11char_traitsIcEENS2_9allocatorIcEEEEbxydS8_NS0_14adl_serializerENS4_IhNS8_IhEEEEvE9type_nameEv, symObjAddr: 0x2AD0, symBinAddr: 0x100005B8C, symSize: 0xD8 }
  - { offsetInCU: 0x3B1E8, offset: 0x3B1E8, size: 0x8, addend: 0x0, symName: __ZN8nlohmann16json_abi_v3_12_06detail10type_errorD1Ev, symObjAddr: 0x2BD0, symBinAddr: 0x100005C8C, symSize: 0x2C }
  - { offsetInCU: 0x3B215, offset: 0x3B215, size: 0x8, addend: 0x0, symName: __ZNK8nlohmann16json_abi_v3_12_010basic_jsonINSt3__13mapENS2_6vectorENS2_12basic_stringIcNS2_11char_traitsIcEENS2_9allocatorIcEEEEbxydS8_NS0_14adl_serializerENS4_IhNS8_IhEEEEvE7get_ptrIPKSA_Li0EEEDTcldtclL_ZNS2_7declvalIRKSE_EEDTclsr3stdE9__declvalIT_ELi0EEEvEE12get_impl_ptrclsr3stdE7declvalISL_EEEEv, symObjAddr: 0x2BFC, symBinAddr: 0x100005CB8, symSize: 0x28 }
  - { offsetInCU: 0x3B24A, offset: 0x3B24A, size: 0x8, addend: 0x0, symName: __ZN8nlohmann16json_abi_v3_12_06detail9exception4nameERKNSt3__112basic_stringIcNS3_11char_traitsIcEENS3_9allocatorIcEEEEi, symObjAddr: 0x2CFC, symBinAddr: 0x100005DB8, symSize: 0xA0 }
  - { offsetInCU: 0x3B27F, offset: 0x3B27F, size: 0x8, addend: 0x0, symName: __ZN8nlohmann16json_abi_v3_12_06detail9exception11diagnosticsINS0_10basic_jsonINSt3__13mapENS5_6vectorENS5_12basic_stringIcNS5_11char_traitsIcEENS5_9allocatorIcEEEEbxydSB_NS0_14adl_serializerENS7_IhNSB_IhEEEEvEEEESD_PKT_, symObjAddr: 0x2D9C, symBinAddr: 0x100005E58, symSize: 0x2C }
  - { offsetInCU: 0x3B2AD, offset: 0x3B2AD, size: 0x8, addend: 0x0, symName: __ZN8nlohmann16json_abi_v3_12_06detail10type_errorC1EiPKc, symObjAddr: 0x2DC8, symBinAddr: 0x100005E84, symSize: 0x3C }
  - { offsetInCU: 0x3B2F7, offset: 0x3B2F7, size: 0x8, addend: 0x0, symName: __ZNSt3__112basic_stringIcNS_11char_traitsIcEENS_9allocatorIcEEEpLB8ue170006Ec, symObjAddr: 0x32C0, symBinAddr: 0x10000637C, symSize: 0x34 }
  - { offsetInCU: 0x3B32D, offset: 0x3B32D, size: 0x8, addend: 0x0, symName: __ZN8nlohmann16json_abi_v3_12_06detail9exception18get_byte_positionsINS0_10basic_jsonINSt3__13mapENS5_6vectorENS5_12basic_stringIcNS5_11char_traitsIcEENS5_9allocatorIcEEEEbxydSB_NS0_14adl_serializerENS7_IhNSB_IhEEEEvEEEESD_PKT_, symObjAddr: 0x3364, symBinAddr: 0x100006420, symSize: 0x3C }
  - { offsetInCU: 0x3B35B, offset: 0x3B35B, size: 0x8, addend: 0x0, symName: __ZN8nlohmann16json_abi_v3_12_06detail10type_errorC2EiPKc, symObjAddr: 0x33A0, symBinAddr: 0x10000645C, symSize: 0x54 }
  - { offsetInCU: 0x3B3A5, offset: 0x3B3A5, size: 0x8, addend: 0x0, symName: __ZN8nlohmann16json_abi_v3_12_06detail9exceptionC2EiPKc, symObjAddr: 0x33F4, symBinAddr: 0x1000064B0, symSize: 0x8C }
  - { offsetInCU: 0x3B3EF, offset: 0x3B3EF, size: 0x8, addend: 0x0, symName: __ZN8nlohmann16json_abi_v3_12_06detail10type_errorD0Ev, symObjAddr: 0x3480, symBinAddr: 0x10000653C, symSize: 0x30 }
  - { offsetInCU: 0x3B41C, offset: 0x3B41C, size: 0x8, addend: 0x0, symName: __ZNK8nlohmann16json_abi_v3_12_06detail9exception4whatEv, symObjAddr: 0x34B0, symBinAddr: 0x10000656C, symSize: 0x28 }
  - { offsetInCU: 0x3B442, offset: 0x3B442, size: 0x8, addend: 0x0, symName: __ZNSt9exceptionC2B8ue170006Ev, symObjAddr: 0x34D8, symBinAddr: 0x100006594, symSize: 0x24 }
  - { offsetInCU: 0x3B46C, offset: 0x3B46C, size: 0x8, addend: 0x0, symName: __ZN8nlohmann16json_abi_v3_12_06detail9exceptionD1Ev, symObjAddr: 0x34FC, symBinAddr: 0x1000065B8, symSize: 0x2C }
  - { offsetInCU: 0x3B499, offset: 0x3B499, size: 0x8, addend: 0x0, symName: __ZN8nlohmann16json_abi_v3_12_06detail9exceptionD0Ev, symObjAddr: 0x3528, symBinAddr: 0x1000065E4, symSize: 0x30 }
  - { offsetInCU: 0x3B4C6, offset: 0x3B4C6, size: 0x8, addend: 0x0, symName: __ZN8nlohmann16json_abi_v3_12_06detail9exceptionD2Ev, symObjAddr: 0x3558, symBinAddr: 0x100006614, symSize: 0x48 }
  - { offsetInCU: 0x3B4F3, offset: 0x3B4F3, size: 0x8, addend: 0x0, symName: __ZN8nlohmann16json_abi_v3_12_06detail10type_errorD2Ev, symObjAddr: 0x3658, symBinAddr: 0x100006714, symSize: 0x2C }
  - { offsetInCU: 0x3B520, offset: 0x3B520, size: 0x8, addend: 0x0, symName: __ZNK8nlohmann16json_abi_v3_12_010basic_jsonINSt3__13mapENS2_6vectorENS2_12basic_stringIcNS2_11char_traitsIcEENS2_9allocatorIcEEEEbxydS8_NS0_14adl_serializerENS4_IhNS8_IhEEEEvE12get_impl_ptrEPKSA_, symObjAddr: 0x3684, symBinAddr: 0x100006740, symSize: 0x54 }
  - { offsetInCU: 0x3B552, offset: 0x3B552, size: 0x8, addend: 0x0, symName: __ZN6ImVec2C1Eff, symObjAddr: 0x5A80, symBinAddr: 0x100008B3C, symSize: 0x3C }
  - { offsetInCU: 0x3B59C, offset: 0x3B59C, size: 0x8, addend: 0x0, symName: __ZN6ImVec4C1Effff, symObjAddr: 0x5ABC, symBinAddr: 0x100008B78, symSize: 0x4C }
  - { offsetInCU: 0x3B606, offset: 0x3B606, size: 0x8, addend: 0x0, symName: __ZNKSt3__112basic_stringIcNS_11char_traitsIcEENS_9allocatorIcEEE6substrB8ue170006Emm, symObjAddr: 0x5B08, symBinAddr: 0x100008BC4, symSize: 0x68 }
  - { offsetInCU: 0x3B64C, offset: 0x3B64C, size: 0x8, addend: 0x0, symName: __ZN6ImVec2C2Eff, symObjAddr: 0x5B9C, symBinAddr: 0x100008C58, symSize: 0x2C }
  - { offsetInCU: 0x3B696, offset: 0x3B696, size: 0x8, addend: 0x0, symName: __ZN6ImVec4C2Effff, symObjAddr: 0x5BC8, symBinAddr: 0x100008C84, symSize: 0x44 }
  - { offsetInCU: 0x3B700, offset: 0x3B700, size: 0x8, addend: 0x0, symName: __ZNSt3__19allocatorIcEC1B8ue170006Ev, symObjAddr: 0x5C0C, symBinAddr: 0x100008CC8, symSize: 0x2C }
  - { offsetInCU: 0x3B735, offset: 0x3B735, size: 0x8, addend: 0x0, symName: __ZNKSt3__16__lessIvvEclB8ue170006IffEEbRKT_RKT0_, symObjAddr: 0x5C8C, symBinAddr: 0x100008D48, symSize: 0x34 }
  - { offsetInCU: 0x3B789, offset: 0x3B789, size: 0x8, addend: 0x0, symName: __ZNSt3__16vectorINS_4pairINS_12basic_stringIcNS_11char_traitsIcEENS_9allocatorIcEEEEbEENS5_IS8_EEED1B8ue170006Ev, symObjAddr: 0x5CC0, symBinAddr: 0x100008D7C, symSize: 0x2C }
  - { offsetInCU: 0x3B7D0, offset: 0x3B7D0, size: 0x8, addend: 0x0, symName: __ZNSt3__110lock_guardINS_5mutexEEC1B8ue170006ERS1_, symObjAddr: 0x5CEC, symBinAddr: 0x100008DA8, symSize: 0x34 }
  - { offsetInCU: 0x3B808, offset: 0x3B808, size: 0x8, addend: 0x0, symName: __ZNSt3__16vectorINS_4pairINS_12basic_stringIcNS_11char_traitsIcEENS_9allocatorIcEEEEbEENS5_IS8_EEE5beginB8ue170006Ev, symObjAddr: 0x5D20, symBinAddr: 0x100008DDC, symSize: 0x30 }
  - { offsetInCU: 0x3B830, offset: 0x3B830, size: 0x8, addend: 0x0, symName: __ZNSt3__16vectorINS_4pairINS_12basic_stringIcNS_11char_traitsIcEENS_9allocatorIcEEEEbEENS5_IS8_EEE3endB8ue170006Ev, symObjAddr: 0x5D50, symBinAddr: 0x100008E0C, symSize: 0x30 }
  - { offsetInCU: 0x3B858, offset: 0x3B858, size: 0x8, addend: 0x0, symName: __ZNKSt3__111__wrap_iterIPNS_4pairINS_12basic_stringIcNS_11char_traitsIcEENS_9allocatorIcEEEEbEEEdeB8ue170006Ev, symObjAddr: 0x5DB4, symBinAddr: 0x100008E70, symSize: 0x18 }
  - { offsetInCU: 0x3B87E, offset: 0x3B87E, size: 0x8, addend: 0x0, symName: __ZNSt3__111__wrap_iterIPNS_4pairINS_12basic_stringIcNS_11char_traitsIcEENS_9allocatorIcEEEEbEEEppB8ue170006Ev, symObjAddr: 0x5E14, symBinAddr: 0x100008ED0, symSize: 0x20 }
  - { offsetInCU: 0x3B8A4, offset: 0x3B8A4, size: 0x8, addend: 0x0, symName: __ZNSt3__110lock_guardINS_5mutexEED1B8ue170006Ev, symObjAddr: 0x5E34, symBinAddr: 0x100008EF0, symSize: 0x2C }
  - { offsetInCU: 0x3B8D4, offset: 0x3B8D4, size: 0x8, addend: 0x0, symName: __ZNSt3__16vectorINS_4pairINS_12basic_stringIcNS_11char_traitsIcEENS_9allocatorIcEEEEbEENS5_IS8_EEE12emplace_backIJRS7_bEEERS8_DpOT_, symObjAddr: 0x5E60, symBinAddr: 0x100008F1C, symSize: 0x80 }
  - { offsetInCU: 0x3B932, offset: 0x3B932, size: 0x8, addend: 0x0, symName: __ZNSt3__16threadC1IZN7Atomica10ChatWindowEvEUlvE_JEvEEOT_DpOT0_, symObjAddr: 0x5EE0, symBinAddr: 0x100008F9C, symSize: 0x34 }
  - { offsetInCU: 0x3B97F, offset: 0x3B97F, size: 0x8, addend: 0x0, symName: __ZZN7Atomica10ChatWindowEvENUlvE_D1Ev, symObjAddr: 0x5F14, symBinAddr: 0x100008FD0, symSize: 0x2C }
  - { offsetInCU: 0x3B9AB, offset: 0x3B9AB, size: 0x8, addend: 0x0, symName: __ZNKSt3__16vectorINS_4pairINS_12basic_stringIcNS_11char_traitsIcEENS_9allocatorIcEEEEbEENS5_IS8_EEE4sizeB8ue170006Ev, symObjAddr: 0x5F40, symBinAddr: 0x100008FFC, symSize: 0x28 }
  - { offsetInCU: 0x3B9D1, offset: 0x3B9D1, size: 0x8, addend: 0x0, symName: __ZNSt3__16vectorINS_4pairINS_12basic_stringIcNS_11char_traitsIcEENS_9allocatorIcEEEEbEENS5_IS8_EEED2B8ue170006Ev, symObjAddr: 0x5F68, symBinAddr: 0x100009024, symSize: 0x44 }
  - { offsetInCU: 0x3B9FB, offset: 0x3B9FB, size: 0x8, addend: 0x0, symName: __ZNSt3__16vectorINS_4pairINS_12basic_stringIcNS_11char_traitsIcEENS_9allocatorIcEEEEbEENS5_IS8_EEE16__destroy_vectorC1B8ue170006ERSA_, symObjAddr: 0x5FAC, symBinAddr: 0x100009068, symSize: 0x34 }
  - { offsetInCU: 0x3BA35, offset: 0x3BA35, size: 0x8, addend: 0x0, symName: __ZNSt3__16vectorINS_4pairINS_12basic_stringIcNS_11char_traitsIcEENS_9allocatorIcEEEEbEENS5_IS8_EEE16__destroy_vectorclB8ue170006Ev, symObjAddr: 0x5FE0, symBinAddr: 0x10000909C, symSize: 0x90 }
  - { offsetInCU: 0x3BA5B, offset: 0x3BA5B, size: 0x8, addend: 0x0, symName: __ZNSt3__16vectorINS_4pairINS_12basic_stringIcNS_11char_traitsIcEENS_9allocatorIcEEEEbEENS5_IS8_EEE16__destroy_vectorC2B8ue170006ERSA_, symObjAddr: 0x6070, symBinAddr: 0x10000912C, symSize: 0x20 }
  - { offsetInCU: 0x3BA95, offset: 0x3BA95, size: 0x8, addend: 0x0, symName: __ZNSt3__16vectorINS_4pairINS_12basic_stringIcNS_11char_traitsIcEENS_9allocatorIcEEEEbEENS5_IS8_EEE7__clearB8ue170006Ev, symObjAddr: 0x6090, symBinAddr: 0x10000914C, symSize: 0x28 }
  - { offsetInCU: 0x3BABB, offset: 0x3BABB, size: 0x8, addend: 0x0, symName: __ZNKSt3__16vectorINS_4pairINS_12basic_stringIcNS_11char_traitsIcEENS_9allocatorIcEEEEbEENS5_IS8_EEE17__annotate_deleteB8ue170006Ev, symObjAddr: 0x60B8, symBinAddr: 0x100009174, symSize: 0xB8 }
  - { offsetInCU: 0x3BAE1, offset: 0x3BAE1, size: 0x8, addend: 0x0, symName: __ZNSt3__116allocator_traitsINS_9allocatorINS_4pairINS_12basic_stringIcNS_11char_traitsIcEENS1_IcEEEEbEEEEE10deallocateB8ue170006ERS9_PS8_m, symObjAddr: 0x6170, symBinAddr: 0x10000922C, symSize: 0x34 }
  - { offsetInCU: 0x3BB26, offset: 0x3BB26, size: 0x8, addend: 0x0, symName: __ZNSt3__16vectorINS_4pairINS_12basic_stringIcNS_11char_traitsIcEENS_9allocatorIcEEEEbEENS5_IS8_EEE7__allocB8ue170006Ev, symObjAddr: 0x61A4, symBinAddr: 0x100009260, symSize: 0x28 }
  - { offsetInCU: 0x3BB4C, offset: 0x3BB4C, size: 0x8, addend: 0x0, symName: __ZNKSt3__16vectorINS_4pairINS_12basic_stringIcNS_11char_traitsIcEENS_9allocatorIcEEEEbEENS5_IS8_EEE8capacityB8ue170006Ev, symObjAddr: 0x61CC, symBinAddr: 0x100009288, symSize: 0x40 }
  - { offsetInCU: 0x3BB72, offset: 0x3BB72, size: 0x8, addend: 0x0, symName: __ZNSt3__16vectorINS_4pairINS_12basic_stringIcNS_11char_traitsIcEENS_9allocatorIcEEEEbEENS5_IS8_EEE22__base_destruct_at_endB8ue170006EPS8_, symObjAddr: 0x620C, symBinAddr: 0x1000092C8, symSize: 0x8C }
  - { offsetInCU: 0x3BBB7, offset: 0x3BBB7, size: 0x8, addend: 0x0, symName: __ZNSt3__116allocator_traitsINS_9allocatorINS_4pairINS_12basic_stringIcNS_11char_traitsIcEENS1_IcEEEEbEEEEE7destroyB8ue170006IS8_vvEEvRS9_PT_, symObjAddr: 0x6298, symBinAddr: 0x100009354, symSize: 0x28 }
  - { offsetInCU: 0x3BBF3, offset: 0x3BBF3, size: 0x8, addend: 0x0, symName: __ZNSt3__14pairINS_12basic_stringIcNS_11char_traitsIcEENS_9allocatorIcEEEEbED1Ev, symObjAddr: 0x631C, symBinAddr: 0x1000093D8, symSize: 0x2C }
  - { offsetInCU: 0x3BC1F, offset: 0x3BC1F, size: 0x8, addend: 0x0, symName: __ZNSt3__14pairINS_12basic_stringIcNS_11char_traitsIcEENS_9allocatorIcEEEEbED2Ev, symObjAddr: 0x6348, symBinAddr: 0x100009404, symSize: 0x2C }
  - { offsetInCU: 0x3BC4B, offset: 0x3BC4B, size: 0x8, addend: 0x0, symName: __ZNKSt3__16vectorINS_4pairINS_12basic_stringIcNS_11char_traitsIcEENS_9allocatorIcEEEEbEENS5_IS8_EEE31__annotate_contiguous_containerB8ue170006EPKvSC_SC_SC_, symObjAddr: 0x6374, symBinAddr: 0x100009430, symSize: 0x20 }
  - { offsetInCU: 0x3BCA1, offset: 0x3BCA1, size: 0x8, addend: 0x0, symName: __ZNKSt3__16vectorINS_4pairINS_12basic_stringIcNS_11char_traitsIcEENS_9allocatorIcEEEEbEENS5_IS8_EEE4dataB8ue170006Ev, symObjAddr: 0x6394, symBinAddr: 0x100009450, symSize: 0x28 }
  - { offsetInCU: 0x3BCC7, offset: 0x3BCC7, size: 0x8, addend: 0x0, symName: __ZNSt3__19allocatorINS_4pairINS_12basic_stringIcNS_11char_traitsIcEENS0_IcEEEEbEEE10deallocateB8ue170006EPS7_m, symObjAddr: 0x63BC, symBinAddr: 0x100009478, symSize: 0x40 }
  - { offsetInCU: 0x3BD09, offset: 0x3BD09, size: 0x8, addend: 0x0, symName: __ZNSt3__117__compressed_pairIPNS_4pairINS_12basic_stringIcNS_11char_traitsIcEENS_9allocatorIcEEEEbEENS5_IS8_EEE6secondB8ue170006Ev, symObjAddr: 0x6524, symBinAddr: 0x1000095E0, symSize: 0x24 }
  - { offsetInCU: 0x3BD2F, offset: 0x3BD2F, size: 0x8, addend: 0x0, symName: __ZNSt3__122__compressed_pair_elemINS_9allocatorINS_4pairINS_12basic_stringIcNS_11char_traitsIcEENS1_IcEEEEbEEEELi1ELb1EE5__getB8ue170006Ev, symObjAddr: 0x6548, symBinAddr: 0x100009604, symSize: 0x14 }
  - { offsetInCU: 0x3BD55, offset: 0x3BD55, size: 0x8, addend: 0x0, symName: __ZNKSt3__16vectorINS_4pairINS_12basic_stringIcNS_11char_traitsIcEENS_9allocatorIcEEEEbEENS5_IS8_EEE9__end_capB8ue170006Ev, symObjAddr: 0x655C, symBinAddr: 0x100009618, symSize: 0x28 }
  - { offsetInCU: 0x3BD7B, offset: 0x3BD7B, size: 0x8, addend: 0x0, symName: __ZNKSt3__117__compressed_pairIPNS_4pairINS_12basic_stringIcNS_11char_traitsIcEENS_9allocatorIcEEEEbEENS5_IS8_EEE5firstB8ue170006Ev, symObjAddr: 0x6584, symBinAddr: 0x100009640, symSize: 0x24 }
  - { offsetInCU: 0x3BDA1, offset: 0x3BDA1, size: 0x8, addend: 0x0, symName: __ZNKSt3__122__compressed_pair_elemIPNS_4pairINS_12basic_stringIcNS_11char_traitsIcEENS_9allocatorIcEEEEbEELi0ELb0EE5__getB8ue170006Ev, symObjAddr: 0x65A8, symBinAddr: 0x100009664, symSize: 0x14 }
  - { offsetInCU: 0x3BDC7, offset: 0x3BDC7, size: 0x8, addend: 0x0, symName: __ZNSt3__110lock_guardINS_5mutexEEC2B8ue170006ERS1_, symObjAddr: 0x65BC, symBinAddr: 0x100009678, symSize: 0x3C }
  - { offsetInCU: 0x3BDFF, offset: 0x3BDFF, size: 0x8, addend: 0x0, symName: __ZNSt3__16vectorINS_4pairINS_12basic_stringIcNS_11char_traitsIcEENS_9allocatorIcEEEEbEENS5_IS8_EEE11__make_iterB8ue170006EPS8_, symObjAddr: 0x65F8, symBinAddr: 0x1000096B4, symSize: 0x30 }
  - { offsetInCU: 0x3BE35, offset: 0x3BE35, size: 0x8, addend: 0x0, symName: __ZNSt3__111__wrap_iterIPNS_4pairINS_12basic_stringIcNS_11char_traitsIcEENS_9allocatorIcEEEEbEEEC1B8ue170006ES9_, symObjAddr: 0x6628, symBinAddr: 0x1000096E4, symSize: 0x34 }
  - { offsetInCU: 0x3BE6D, offset: 0x3BE6D, size: 0x8, addend: 0x0, symName: __ZNSt3__111__wrap_iterIPNS_4pairINS_12basic_stringIcNS_11char_traitsIcEENS_9allocatorIcEEEEbEEEC2B8ue170006ES9_, symObjAddr: 0x665C, symBinAddr: 0x100009718, symSize: 0x20 }
  - { offsetInCU: 0x3BEA5, offset: 0x3BEA5, size: 0x8, addend: 0x0, symName: __ZNKSt3__111__wrap_iterIPNS_4pairINS_12basic_stringIcNS_11char_traitsIcEENS_9allocatorIcEEEEbEEE4baseB8ue170006Ev, symObjAddr: 0x66C4, symBinAddr: 0x100009780, symSize: 0x18 }
  - { offsetInCU: 0x3BECB, offset: 0x3BECB, size: 0x8, addend: 0x0, symName: __ZNSt3__110__get_pairILm0EE3getB8ue170006INS_12basic_stringIcNS_11char_traitsIcEENS_9allocatorIcEEEEbEERKT_RKNS_4pairIS9_T0_EE, symObjAddr: 0x66DC, symBinAddr: 0x100009798, symSize: 0x14 }
  - { offsetInCU: 0x3BF08, offset: 0x3BF08, size: 0x8, addend: 0x0, symName: __ZNSt3__110__get_pairILm1EE3getB8ue170006INS_12basic_stringIcNS_11char_traitsIcEENS_9allocatorIcEEEEbEERKT0_RKNS_4pairIT_S9_EE, symObjAddr: 0x66F0, symBinAddr: 0x1000097AC, symSize: 0x18 }
  - { offsetInCU: 0x3BF3F, offset: 0x3BF3F, size: 0x8, addend: 0x0, symName: __ZNSt3__110lock_guardINS_5mutexEED2B8ue170006Ev, symObjAddr: 0x6708, symBinAddr: 0x1000097C4, symSize: 0x30 }
  - { offsetInCU: 0x3BF69, offset: 0x3BF69, size: 0x8, addend: 0x0, symName: __ZNSt3__16vectorINS_4pairINS_12basic_stringIcNS_11char_traitsIcEENS_9allocatorIcEEEEbEENS5_IS8_EEE9__end_capB8ue170006Ev, symObjAddr: 0x6738, symBinAddr: 0x1000097F4, symSize: 0x28 }
  - { offsetInCU: 0x3BF8F, offset: 0x3BF8F, size: 0x8, addend: 0x0, symName: __ZNSt3__16vectorINS_4pairINS_12basic_stringIcNS_11char_traitsIcEENS_9allocatorIcEEEEbEENS5_IS8_EEE22__construct_one_at_endB8ue170006IJRS7_bEEEvDpOT_, symObjAddr: 0x6760, symBinAddr: 0x10000981C, symSize: 0x98 }
  - { offsetInCU: 0x3BFF4, offset: 0x3BFF4, size: 0x8, addend: 0x0, symName: __ZNSt3__16vectorINS_4pairINS_12basic_stringIcNS_11char_traitsIcEENS_9allocatorIcEEEEbEENS5_IS8_EEE24__emplace_back_slow_pathIJRS7_bEEEvDpOT_, symObjAddr: 0x67F8, symBinAddr: 0x1000098B4, symSize: 0xE0 }
  - { offsetInCU: 0x3C06A, offset: 0x3C06A, size: 0x8, addend: 0x0, symName: __ZNSt3__16vectorINS_4pairINS_12basic_stringIcNS_11char_traitsIcEENS_9allocatorIcEEEEbEENS5_IS8_EEE4backB8ue170006Ev, symObjAddr: 0x68D8, symBinAddr: 0x100009994, symSize: 0x1C }
  - { offsetInCU: 0x3C090, offset: 0x3C090, size: 0x8, addend: 0x0, symName: __ZNSt3__117__compressed_pairIPNS_4pairINS_12basic_stringIcNS_11char_traitsIcEENS_9allocatorIcEEEEbEENS5_IS8_EEE5firstB8ue170006Ev, symObjAddr: 0x68F4, symBinAddr: 0x1000099B0, symSize: 0x24 }
  - { offsetInCU: 0x3C0B6, offset: 0x3C0B6, size: 0x8, addend: 0x0, symName: __ZNSt3__122__compressed_pair_elemIPNS_4pairINS_12basic_stringIcNS_11char_traitsIcEENS_9allocatorIcEEEEbEELi0ELb0EE5__getB8ue170006Ev, symObjAddr: 0x6918, symBinAddr: 0x1000099D4, symSize: 0x14 }
  - { offsetInCU: 0x3C0F8, offset: 0x3C0F8, size: 0x8, addend: 0x0, symName: __ZNSt3__16vectorINS_4pairINS_12basic_stringIcNS_11char_traitsIcEENS_9allocatorIcEEEEbEENS5_IS8_EEE21_ConstructTransactionC1B8ue170006ERSA_m, symObjAddr: 0x692C, symBinAddr: 0x1000099E8, symSize: 0x3C }
  - { offsetInCU: 0x3C142, offset: 0x3C142, size: 0x8, addend: 0x0, symName: __ZNSt3__116allocator_traitsINS_9allocatorINS_4pairINS_12basic_stringIcNS_11char_traitsIcEENS1_IcEEEEbEEEEE9constructB8ue170006IS8_JRS7_bEvvEEvRS9_PT_DpOT0_, symObjAddr: 0x6968, symBinAddr: 0x100009A24, symSize: 0x38 }
  - { offsetInCU: 0x3C1AE, offset: 0x3C1AE, size: 0x8, addend: 0x0, symName: __ZNSt3__16vectorINS_4pairINS_12basic_stringIcNS_11char_traitsIcEENS_9allocatorIcEEEEbEENS5_IS8_EEE21_ConstructTransactionD1B8ue170006Ev, symObjAddr: 0x69A0, symBinAddr: 0x100009A5C, symSize: 0x2C }
  - { offsetInCU: 0x3C1D8, offset: 0x3C1D8, size: 0x8, addend: 0x0, symName: __ZNSt3__16vectorINS_4pairINS_12basic_stringIcNS_11char_traitsIcEENS_9allocatorIcEEEEbEENS5_IS8_EEE21_ConstructTransactionC2B8ue170006ERSA_m, symObjAddr: 0x69CC, symBinAddr: 0x100009A88, symSize: 0x44 }
  - { offsetInCU: 0x3C222, offset: 0x3C222, size: 0x8, addend: 0x0, symName: __ZNSt3__14pairINS_12basic_stringIcNS_11char_traitsIcEENS_9allocatorIcEEEEbEC1B8ue170006IRS6_bLPv0EEEOT_OT0_, symObjAddr: 0x6A54, symBinAddr: 0x100009B10, symSize: 0x3C }
  - { offsetInCU: 0x3C280, offset: 0x3C280, size: 0x8, addend: 0x0, symName: __ZNSt3__14pairINS_12basic_stringIcNS_11char_traitsIcEENS_9allocatorIcEEEEbEC2B8ue170006IRS6_bLPv0EEEOT_OT0_, symObjAddr: 0x6A90, symBinAddr: 0x100009B4C, symSize: 0x48 }
  - { offsetInCU: 0x3C2DE, offset: 0x3C2DE, size: 0x8, addend: 0x0, symName: __ZNSt3__16vectorINS_4pairINS_12basic_stringIcNS_11char_traitsIcEENS_9allocatorIcEEEEbEENS5_IS8_EEE21_ConstructTransactionD2B8ue170006Ev, symObjAddr: 0x6AD8, symBinAddr: 0x100009B94, symSize: 0x20 }
  - { offsetInCU: 0x3C308, offset: 0x3C308, size: 0x8, addend: 0x0, symName: __ZNKSt3__16vectorINS_4pairINS_12basic_stringIcNS_11char_traitsIcEENS_9allocatorIcEEEEbEENS5_IS8_EEE11__recommendB8ue170006Em, symObjAddr: 0x6AF8, symBinAddr: 0x100009BB4, symSize: 0xB4 }
  - { offsetInCU: 0x3C35E, offset: 0x3C35E, size: 0x8, addend: 0x0, symName: __ZNSt3__114__split_bufferINS_4pairINS_12basic_stringIcNS_11char_traitsIcEENS_9allocatorIcEEEEbEERNS5_IS8_EEEC1EmmSA_, symObjAddr: 0x6BAC, symBinAddr: 0x100009C68, symSize: 0x44 }
  - { offsetInCU: 0x3C3B4, offset: 0x3C3B4, size: 0x8, addend: 0x0, symName: __ZNSt3__114__split_bufferINS_4pairINS_12basic_stringIcNS_11char_traitsIcEENS_9allocatorIcEEEEbEERNS5_IS8_EEED1Ev, symObjAddr: 0x6D00, symBinAddr: 0x100009DBC, symSize: 0x2C }
  - { offsetInCU: 0x3C3E0, offset: 0x3C3E0, size: 0x8, addend: 0x0, symName: __ZNKSt3__16vectorINS_4pairINS_12basic_stringIcNS_11char_traitsIcEENS_9allocatorIcEEEEbEENS5_IS8_EEE8max_sizeEv, symObjAddr: 0x6D2C, symBinAddr: 0x100009DE8, symSize: 0x60 }
  - { offsetInCU: 0x3C408, offset: 0x3C408, size: 0x8, addend: 0x0, symName: __ZNKSt3__16vectorINS_4pairINS_12basic_stringIcNS_11char_traitsIcEENS_9allocatorIcEEEEbEENS5_IS8_EEE20__throw_length_errorB8ue170006Ev, symObjAddr: 0x6D8C, symBinAddr: 0x100009E48, symSize: 0x1C }
  - { offsetInCU: 0x3C439, offset: 0x3C439, size: 0x8, addend: 0x0, symName: __ZNSt3__116allocator_traitsINS_9allocatorINS_4pairINS_12basic_stringIcNS_11char_traitsIcEENS1_IcEEEEbEEEEE8max_sizeB8ue170006IS9_vvEEmRKS9_, symObjAddr: 0x6E00, symBinAddr: 0x100009EBC, symSize: 0x28 }
  - { offsetInCU: 0x3C465, offset: 0x3C465, size: 0x8, addend: 0x0, symName: __ZNKSt3__16vectorINS_4pairINS_12basic_stringIcNS_11char_traitsIcEENS_9allocatorIcEEEEbEENS5_IS8_EEE7__allocB8ue170006Ev, symObjAddr: 0x6E28, symBinAddr: 0x100009EE4, symSize: 0x28 }
  - { offsetInCU: 0x3C48B, offset: 0x3C48B, size: 0x8, addend: 0x0, symName: __ZNSt3__114numeric_limitsIlE3maxB8ue170006Ev, symObjAddr: 0x6E50, symBinAddr: 0x100009F0C, symSize: 0x14 }
  - { offsetInCU: 0x3C49F, offset: 0x3C49F, size: 0x8, addend: 0x0, symName: __ZNKSt3__16__lessIvvEclB8ue170006ImmEEbRKT_RKT0_, symObjAddr: 0x6EB8, symBinAddr: 0x100009F74, symSize: 0x34 }
  - { offsetInCU: 0x3C4F3, offset: 0x3C4F3, size: 0x8, addend: 0x0, symName: __ZNSt3__114numeric_limitsImE3maxB8ue170006Ev, symObjAddr: 0x6EEC, symBinAddr: 0x100009FA8, symSize: 0x14 }
  - { offsetInCU: 0x3C507, offset: 0x3C507, size: 0x8, addend: 0x0, symName: __ZNSt3__123__libcpp_numeric_limitsImLb1EE3maxB8ue170006Ev, symObjAddr: 0x6F00, symBinAddr: 0x100009FBC, symSize: 0x8 }
  - { offsetInCU: 0x3C51B, offset: 0x3C51B, size: 0x8, addend: 0x0, symName: __ZNKSt3__117__compressed_pairIPNS_4pairINS_12basic_stringIcNS_11char_traitsIcEENS_9allocatorIcEEEEbEENS5_IS8_EEE6secondB8ue170006Ev, symObjAddr: 0x6F08, symBinAddr: 0x100009FC4, symSize: 0x24 }
  - { offsetInCU: 0x3C541, offset: 0x3C541, size: 0x8, addend: 0x0, symName: __ZNKSt3__122__compressed_pair_elemINS_9allocatorINS_4pairINS_12basic_stringIcNS_11char_traitsIcEENS1_IcEEEEbEEEELi1ELb1EE5__getB8ue170006Ev, symObjAddr: 0x6F2C, symBinAddr: 0x100009FE8, symSize: 0x14 }
  - { offsetInCU: 0x3C567, offset: 0x3C567, size: 0x8, addend: 0x0, symName: __ZNSt3__123__libcpp_numeric_limitsIlLb1EE3maxB8ue170006Ev, symObjAddr: 0x6F40, symBinAddr: 0x100009FFC, symSize: 0x8 }
  - { offsetInCU: 0x3C57B, offset: 0x3C57B, size: 0x8, addend: 0x0, symName: __ZNSt12length_errorC1B8ue170006EPKc, symObjAddr: 0x6FAC, symBinAddr: 0x10000A068, symSize: 0x34 }
  - { offsetInCU: 0x3C5B3, offset: 0x3C5B3, size: 0x8, addend: 0x0, symName: __ZNSt12length_errorC2B8ue170006EPKc, symObjAddr: 0x6FE0, symBinAddr: 0x10000A09C, symSize: 0x4C }
  - { offsetInCU: 0x3C5EB, offset: 0x3C5EB, size: 0x8, addend: 0x0, symName: __ZNSt3__114__split_bufferINS_4pairINS_12basic_stringIcNS_11char_traitsIcEENS_9allocatorIcEEEEbEERNS5_IS8_EEEC2EmmSA_, symObjAddr: 0x7080, symBinAddr: 0x10000A13C, symSize: 0xD4 }
  - { offsetInCU: 0x3C664, offset: 0x3C664, size: 0x8, addend: 0x0, symName: __ZNSt3__117__compressed_pairIPNS_4pairINS_12basic_stringIcNS_11char_traitsIcEENS_9allocatorIcEEEEbEERNS5_IS8_EEEC1B8ue170006IDnSB_EEOT_OT0_, symObjAddr: 0x7154, symBinAddr: 0x10000A210, symSize: 0x3C }
  - { offsetInCU: 0x3C6BC, offset: 0x3C6BC, size: 0x8, addend: 0x0, symName: __ZNSt3__114__split_bufferINS_4pairINS_12basic_stringIcNS_11char_traitsIcEENS_9allocatorIcEEEEbEERNS5_IS8_EEE7__allocB8ue170006Ev, symObjAddr: 0x71D0, symBinAddr: 0x10000A28C, symSize: 0x28 }
  - { offsetInCU: 0x3C6E2, offset: 0x3C6E2, size: 0x8, addend: 0x0, symName: __ZNSt3__114__split_bufferINS_4pairINS_12basic_stringIcNS_11char_traitsIcEENS_9allocatorIcEEEEbEERNS5_IS8_EEE9__end_capB8ue170006Ev, symObjAddr: 0x71F8, symBinAddr: 0x10000A2B4, symSize: 0x28 }
  - { offsetInCU: 0x3C708, offset: 0x3C708, size: 0x8, addend: 0x0, symName: __ZNSt3__117__compressed_pairIPNS_4pairINS_12basic_stringIcNS_11char_traitsIcEENS_9allocatorIcEEEEbEERNS5_IS8_EEEC2B8ue170006IDnSB_EEOT_OT0_, symObjAddr: 0x7220, symBinAddr: 0x10000A2DC, symSize: 0x48 }
  - { offsetInCU: 0x3C760, offset: 0x3C760, size: 0x8, addend: 0x0, symName: __ZNSt3__122__compressed_pair_elemIPNS_4pairINS_12basic_stringIcNS_11char_traitsIcEENS_9allocatorIcEEEEbEELi0ELb0EEC2B8ue170006IDnvEEOT_, symObjAddr: 0x7268, symBinAddr: 0x10000A324, symSize: 0x1C }
  - { offsetInCU: 0x3C7A2, offset: 0x3C7A2, size: 0x8, addend: 0x0, symName: __ZNSt3__122__compressed_pair_elemIRNS_9allocatorINS_4pairINS_12basic_stringIcNS_11char_traitsIcEENS1_IcEEEEbEEEELi1ELb0EEC2B8ue170006ISA_vEEOT_, symObjAddr: 0x7284, symBinAddr: 0x10000A340, symSize: 0x20 }
  - { offsetInCU: 0x3C7E4, offset: 0x3C7E4, size: 0x8, addend: 0x0, symName: __ZNSt3__19allocatorINS_4pairINS_12basic_stringIcNS_11char_traitsIcEENS0_IcEEEEbEEE8allocateB8ue170006Em, symObjAddr: 0x72A4, symBinAddr: 0x10000A360, symSize: 0x58 }
  - { offsetInCU: 0x3C818, offset: 0x3C818, size: 0x8, addend: 0x0, symName: __ZNSt3__117__compressed_pairIPNS_4pairINS_12basic_stringIcNS_11char_traitsIcEENS_9allocatorIcEEEEbEERNS5_IS8_EEE6secondB8ue170006Ev, symObjAddr: 0x73E0, symBinAddr: 0x10000A49C, symSize: 0x28 }
  - { offsetInCU: 0x3C83E, offset: 0x3C83E, size: 0x8, addend: 0x0, symName: __ZNSt3__122__compressed_pair_elemIRNS_9allocatorINS_4pairINS_12basic_stringIcNS_11char_traitsIcEENS1_IcEEEEbEEEELi1ELb0EE5__getB8ue170006Ev, symObjAddr: 0x7408, symBinAddr: 0x10000A4C4, symSize: 0x18 }
  - { offsetInCU: 0x3C864, offset: 0x3C864, size: 0x8, addend: 0x0, symName: __ZNSt3__117__compressed_pairIPNS_4pairINS_12basic_stringIcNS_11char_traitsIcEENS_9allocatorIcEEEEbEERNS5_IS8_EEE5firstB8ue170006Ev, symObjAddr: 0x7420, symBinAddr: 0x10000A4DC, symSize: 0x24 }
  - { offsetInCU: 0x3C88A, offset: 0x3C88A, size: 0x8, addend: 0x0, symName: __ZNSt3__116reverse_iteratorIPNS_4pairINS_12basic_stringIcNS_11char_traitsIcEENS_9allocatorIcEEEEbEEEC1B8ue170006ES9_, symObjAddr: 0x7570, symBinAddr: 0x10000A62C, symSize: 0x34 }
  - { offsetInCU: 0x3C8C2, offset: 0x3C8C2, size: 0x8, addend: 0x0, symName: __ZNKSt3__116reverse_iteratorIPNS_4pairINS_12basic_stringIcNS_11char_traitsIcEENS_9allocatorIcEEEEbEEE4baseB8ue170006Ev, symObjAddr: 0x75A4, symBinAddr: 0x10000A660, symSize: 0x18 }
  - { offsetInCU: 0x3C8E8, offset: 0x3C8E8, size: 0x8, addend: 0x0, symName: __ZNKSt3__16vectorINS_4pairINS_12basic_stringIcNS_11char_traitsIcEENS_9allocatorIcEEEEbEENS5_IS8_EEE14__annotate_newB8ue170006Em, symObjAddr: 0x75F8, symBinAddr: 0x10000A6B4, symSize: 0xAC }
  - { offsetInCU: 0x3C91E, offset: 0x3C91E, size: 0x8, addend: 0x0, symName: __ZNSt3__129_AllocatorDestroyRangeReverseINS_9allocatorINS_4pairINS_12basic_stringIcNS_11char_traitsIcEENS1_IcEEEEbEEEENS_16reverse_iteratorIPS8_EEEC1B8ue170006ERS9_RSC_SF_, symObjAddr: 0x76F0, symBinAddr: 0x10000A7AC, symSize: 0x44 }
  - { offsetInCU: 0x3C978, offset: 0x3C978, size: 0x8, addend: 0x0, symName: __ZNSt3__116allocator_traitsINS_9allocatorINS_4pairINS_12basic_stringIcNS_11char_traitsIcEENS1_IcEEEEbEEEEE9constructB8ue170006IS8_JS8_EvvEEvRS9_PT_DpOT0_, symObjAddr: 0x777C, symBinAddr: 0x10000A838, symSize: 0x30 }
  - { offsetInCU: 0x3C9CF, offset: 0x3C9CF, size: 0x8, addend: 0x0, symName: __ZNKSt3__116reverse_iteratorIPNS_4pairINS_12basic_stringIcNS_11char_traitsIcEENS_9allocatorIcEEEEbEEEdeB8ue170006Ev, symObjAddr: 0x77D0, symBinAddr: 0x10000A88C, symSize: 0x28 }
  - { offsetInCU: 0x3CA03, offset: 0x3CA03, size: 0x8, addend: 0x0, symName: __ZNSt3__116reverse_iteratorIPNS_4pairINS_12basic_stringIcNS_11char_traitsIcEENS_9allocatorIcEEEEbEEEppB8ue170006Ev, symObjAddr: 0x77F8, symBinAddr: 0x10000A8B4, symSize: 0x20 }
  - { offsetInCU: 0x3CA29, offset: 0x3CA29, size: 0x8, addend: 0x0, symName: __ZNSt3__128__exception_guard_exceptionsINS_29_AllocatorDestroyRangeReverseINS_9allocatorINS_4pairINS_12basic_stringIcNS_11char_traitsIcEENS2_IcEEEEbEEEENS_16reverse_iteratorIPS9_EEEEE10__completeB8ue170006Ev, symObjAddr: 0x7818, symBinAddr: 0x10000A8D4, symSize: 0x1C }
  - { offsetInCU: 0x3CA4F, offset: 0x3CA4F, size: 0x8, addend: 0x0, symName: __ZNSt3__128__exception_guard_exceptionsINS_29_AllocatorDestroyRangeReverseINS_9allocatorINS_4pairINS_12basic_stringIcNS_11char_traitsIcEENS2_IcEEEEbEEEENS_16reverse_iteratorIPS9_EEEEED1B8ue170006Ev, symObjAddr: 0x7834, symBinAddr: 0x10000A8F0, symSize: 0x2C }
  - { offsetInCU: 0x3CA79, offset: 0x3CA79, size: 0x8, addend: 0x0, symName: __ZNSt3__128__exception_guard_exceptionsINS_29_AllocatorDestroyRangeReverseINS_9allocatorINS_4pairINS_12basic_stringIcNS_11char_traitsIcEENS2_IcEEEEbEEEENS_16reverse_iteratorIPS9_EEEEEC1B8ue170006ESE_, symObjAddr: 0x7860, symBinAddr: 0x10000A91C, symSize: 0x34 }
  - { offsetInCU: 0x3CAB2, offset: 0x3CAB2, size: 0x8, addend: 0x0, symName: __ZNSt3__128__exception_guard_exceptionsINS_29_AllocatorDestroyRangeReverseINS_9allocatorINS_4pairINS_12basic_stringIcNS_11char_traitsIcEENS2_IcEEEEbEEEENS_16reverse_iteratorIPS9_EEEEEC2B8ue170006ESE_, symObjAddr: 0x7894, symBinAddr: 0x10000A950, symSize: 0x30 }
  - { offsetInCU: 0x3CAEB, offset: 0x3CAEB, size: 0x8, addend: 0x0, symName: __ZNSt3__129_AllocatorDestroyRangeReverseINS_9allocatorINS_4pairINS_12basic_stringIcNS_11char_traitsIcEENS1_IcEEEEbEEEENS_16reverse_iteratorIPS8_EEEC2B8ue170006ERS9_RSC_SF_, symObjAddr: 0x78C4, symBinAddr: 0x10000A980, symSize: 0x38 }
  - { offsetInCU: 0x3CB45, offset: 0x3CB45, size: 0x8, addend: 0x0, symName: __ZNSt3__14pairINS_12basic_stringIcNS_11char_traitsIcEENS_9allocatorIcEEEEbEC1B8ue170006EOS7_, symObjAddr: 0x7938, symBinAddr: 0x10000A9F4, symSize: 0x34 }
  - { offsetInCU: 0x3CB7A, offset: 0x3CB7A, size: 0x8, addend: 0x0, symName: __ZNSt3__14pairINS_12basic_stringIcNS_11char_traitsIcEENS_9allocatorIcEEEEbEC2B8ue170006EOS7_, symObjAddr: 0x796C, symBinAddr: 0x10000AA28, symSize: 0x44 }
  - { offsetInCU: 0x3CBB5, offset: 0x3CBB5, size: 0x8, addend: 0x0, symName: __ZNSt3__119__to_address_helperINS_16reverse_iteratorIPNS_4pairINS_12basic_stringIcNS_11char_traitsIcEENS_9allocatorIcEEEEbEEEEvE6__callB8ue170006ERKSB_, symObjAddr: 0x79B0, symBinAddr: 0x10000AA6C, symSize: 0x38 }
  - { offsetInCU: 0x3CBD8, offset: 0x3CBD8, size: 0x8, addend: 0x0, symName: __ZNKSt3__116reverse_iteratorIPNS_4pairINS_12basic_stringIcNS_11char_traitsIcEENS_9allocatorIcEEEEbEEEptB8ue170006Ev, symObjAddr: 0x79E8, symBinAddr: 0x10000AAA4, symSize: 0x2C }
  - { offsetInCU: 0x3CBFE, offset: 0x3CBFE, size: 0x8, addend: 0x0, symName: __ZNSt3__128__exception_guard_exceptionsINS_29_AllocatorDestroyRangeReverseINS_9allocatorINS_4pairINS_12basic_stringIcNS_11char_traitsIcEENS2_IcEEEEbEEEENS_16reverse_iteratorIPS9_EEEEED2B8ue170006Ev, symObjAddr: 0x7AC4, symBinAddr: 0x10000AB80, symSize: 0x50 }
  - { offsetInCU: 0x3CC28, offset: 0x3CC28, size: 0x8, addend: 0x0, symName: __ZNKSt3__129_AllocatorDestroyRangeReverseINS_9allocatorINS_4pairINS_12basic_stringIcNS_11char_traitsIcEENS1_IcEEEEbEEEENS_16reverse_iteratorIPS8_EEEclB8ue170006Ev, symObjAddr: 0x7B14, symBinAddr: 0x10000ABD0, symSize: 0xB4 }
  - { offsetInCU: 0x3CC4F, offset: 0x3CC4F, size: 0x8, addend: 0x0, symName: __ZNSt3__116reverse_iteratorINS0_IPNS_4pairINS_12basic_stringIcNS_11char_traitsIcEENS_9allocatorIcEEEEbEEEEEC1B8ue170006ESA_, symObjAddr: 0x7C38, symBinAddr: 0x10000ACF4, symSize: 0x3C }
  - { offsetInCU: 0x3CC87, offset: 0x3CC87, size: 0x8, addend: 0x0, symName: __ZNSt3__116reverse_iteratorINS0_IPNS_4pairINS_12basic_stringIcNS_11char_traitsIcEENS_9allocatorIcEEEEbEEEEEppB8ue170006Ev, symObjAddr: 0x7CF8, symBinAddr: 0x10000ADB4, symSize: 0x30 }
  - { offsetInCU: 0x3CCAD, offset: 0x3CCAD, size: 0x8, addend: 0x0, symName: __ZNKSt3__116reverse_iteratorINS0_IPNS_4pairINS_12basic_stringIcNS_11char_traitsIcEENS_9allocatorIcEEEEbEEEEE4baseB8ue170006Ev, symObjAddr: 0x7D28, symBinAddr: 0x10000ADE4, symSize: 0x24 }
  - { offsetInCU: 0x3CCD9, offset: 0x3CCD9, size: 0x8, addend: 0x0, symName: __ZNSt3__119__to_address_helperINS_16reverse_iteratorINS1_IPNS_4pairINS_12basic_stringIcNS_11char_traitsIcEENS_9allocatorIcEEEEbEEEEEEvE6__callB8ue170006ERKSC_, symObjAddr: 0x7D4C, symBinAddr: 0x10000AE08, symSize: 0x38 }
  - { offsetInCU: 0x3CCFC, offset: 0x3CCFC, size: 0x8, addend: 0x0, symName: __ZNKSt3__116reverse_iteratorINS0_IPNS_4pairINS_12basic_stringIcNS_11char_traitsIcEENS_9allocatorIcEEEEbEEEEEptB8ue170006Ev, symObjAddr: 0x7D84, symBinAddr: 0x10000AE40, symSize: 0x4C }
  - { offsetInCU: 0x3CD22, offset: 0x3CD22, size: 0x8, addend: 0x0, symName: __ZNSt3__116reverse_iteratorIPNS_4pairINS_12basic_stringIcNS_11char_traitsIcEENS_9allocatorIcEEEEbEEEpLB8ue170006El, symObjAddr: 0x7E80, symBinAddr: 0x10000AF3C, symSize: 0x30 }
  - { offsetInCU: 0x3CD56, offset: 0x3CD56, size: 0x8, addend: 0x0, symName: __ZNSt3__116reverse_iteratorIPNS_4pairINS_12basic_stringIcNS_11char_traitsIcEENS_9allocatorIcEEEEbEEEmmB8ue170006Ev, symObjAddr: 0x7EB0, symBinAddr: 0x10000AF6C, symSize: 0x20 }
  - { offsetInCU: 0x3CD7C, offset: 0x3CD7C, size: 0x8, addend: 0x0, symName: __ZNSt3__116reverse_iteratorINS0_IPNS_4pairINS_12basic_stringIcNS_11char_traitsIcEENS_9allocatorIcEEEEbEEEEEC2B8ue170006ESA_, symObjAddr: 0x7ED0, symBinAddr: 0x10000AF8C, symSize: 0x2C }
  - { offsetInCU: 0x3CDB4, offset: 0x3CDB4, size: 0x8, addend: 0x0, symName: __ZNSt3__116reverse_iteratorIPNS_4pairINS_12basic_stringIcNS_11char_traitsIcEENS_9allocatorIcEEEEbEEEC2B8ue170006ES9_, symObjAddr: 0x7EFC, symBinAddr: 0x10000AFB8, symSize: 0x28 }
  - { offsetInCU: 0x3CDEC, offset: 0x3CDEC, size: 0x8, addend: 0x0, symName: __ZNSt3__114__split_bufferINS_4pairINS_12basic_stringIcNS_11char_traitsIcEENS_9allocatorIcEEEEbEERNS5_IS8_EEED2Ev, symObjAddr: 0x7F24, symBinAddr: 0x10000AFE0, symSize: 0x8C }
  - { offsetInCU: 0x3CE18, offset: 0x3CE18, size: 0x8, addend: 0x0, symName: __ZNSt3__114__split_bufferINS_4pairINS_12basic_stringIcNS_11char_traitsIcEENS_9allocatorIcEEEEbEERNS5_IS8_EEE5clearB8ue170006Ev, symObjAddr: 0x7FB0, symBinAddr: 0x10000B06C, symSize: 0x28 }
  - { offsetInCU: 0x3CE3E, offset: 0x3CE3E, size: 0x8, addend: 0x0, symName: __ZNKSt3__114__split_bufferINS_4pairINS_12basic_stringIcNS_11char_traitsIcEENS_9allocatorIcEEEEbEERNS5_IS8_EEE8capacityB8ue170006Ev, symObjAddr: 0x7FD8, symBinAddr: 0x10000B094, symSize: 0x40 }
  - { offsetInCU: 0x3CE64, offset: 0x3CE64, size: 0x8, addend: 0x0, symName: __ZNSt3__114__split_bufferINS_4pairINS_12basic_stringIcNS_11char_traitsIcEENS_9allocatorIcEEEEbEERNS5_IS8_EEE17__destruct_at_endB8ue170006EPS8_, symObjAddr: 0x8018, symBinAddr: 0x10000B0D4, symSize: 0x2C }
  - { offsetInCU: 0x3CE98, offset: 0x3CE98, size: 0x8, addend: 0x0, symName: __ZNSt3__114__split_bufferINS_4pairINS_12basic_stringIcNS_11char_traitsIcEENS_9allocatorIcEEEEbEERNS5_IS8_EEE17__destruct_at_endB8ue170006EPS8_NS_17integral_constantIbLb0EEE, symObjAddr: 0x8044, symBinAddr: 0x10000B100, symSize: 0x80 }
  - { offsetInCU: 0x3CED9, offset: 0x3CED9, size: 0x8, addend: 0x0, symName: __ZNKSt3__114__split_bufferINS_4pairINS_12basic_stringIcNS_11char_traitsIcEENS_9allocatorIcEEEEbEERNS5_IS8_EEE9__end_capB8ue170006Ev, symObjAddr: 0x80C4, symBinAddr: 0x10000B180, symSize: 0x28 }
  - { offsetInCU: 0x3CEFF, offset: 0x3CEFF, size: 0x8, addend: 0x0, symName: __ZNKSt3__117__compressed_pairIPNS_4pairINS_12basic_stringIcNS_11char_traitsIcEENS_9allocatorIcEEEEbEERNS5_IS8_EEE5firstB8ue170006Ev, symObjAddr: 0x80EC, symBinAddr: 0x10000B1A8, symSize: 0x24 }
  - { offsetInCU: 0x3CF25, offset: 0x3CF25, size: 0x8, addend: 0x0, symName: __ZNSt3__16threadC2IZN7Atomica10ChatWindowEvEUlvE_JEvEEOT_DpOT0_, symObjAddr: 0x8110, symBinAddr: 0x10000B1CC, symSize: 0x148 }
  - { offsetInCU: 0x3CF9C, offset: 0x3CF9C, size: 0x8, addend: 0x0, symName: __ZNSt3__110unique_ptrINS_15__thread_structENS_14default_deleteIS1_EEEC1B8ue170006ILb1EvEEPS1_, symObjAddr: 0x8258, symBinAddr: 0x10000B314, symSize: 0x34 }
  - { offsetInCU: 0x3CFDF, offset: 0x3CFDF, size: 0x8, addend: 0x0, symName: __ZNSt3__15tupleIJNS_10unique_ptrINS_15__thread_structENS_14default_deleteIS2_EEEEZN7Atomica10ChatWindowEvEUlvE_EEC1B8ue170006IJS5_S7_ELi0EEEDpOT_, symObjAddr: 0x828C, symBinAddr: 0x10000B348, symSize: 0x3C }
  - { offsetInCU: 0x3D0E6, offset: 0x3D0E6, size: 0x8, addend: 0x0, symName: __ZNSt3__110unique_ptrINS_5tupleIJNS0_INS_15__thread_structENS_14default_deleteIS2_EEEEZN7Atomica10ChatWindowEvEUlvE_EEENS3_IS8_EEEC1B8ue170006ILb1EvEEPS8_, symObjAddr: 0x82C8, symBinAddr: 0x10000B384, symSize: 0x34 }
  - { offsetInCU: 0x3D129, offset: 0x3D129, size: 0x8, addend: 0x0, symName: __ZNKSt3__110unique_ptrINS_5tupleIJNS0_INS_15__thread_structENS_14default_deleteIS2_EEEEZN7Atomica10ChatWindowEvEUlvE_EEENS3_IS8_EEE3getB8ue170006Ev, symObjAddr: 0x83C4, symBinAddr: 0x10000B480, symSize: 0x28 }
  - { offsetInCU: 0x3D14F, offset: 0x3D14F, size: 0x8, addend: 0x0, symName: __ZNSt3__110unique_ptrINS_5tupleIJNS0_INS_15__thread_structENS_14default_deleteIS2_EEEEZN7Atomica10ChatWindowEvEUlvE_EEENS3_IS8_EEE7releaseB8ue170006Ev, symObjAddr: 0x83EC, symBinAddr: 0x10000B4A8, symSize: 0x44 }
  - { offsetInCU: 0x3D184, offset: 0x3D184, size: 0x8, addend: 0x0, symName: __ZNSt3__110unique_ptrINS_5tupleIJNS0_INS_15__thread_structENS_14default_deleteIS2_EEEEZN7Atomica10ChatWindowEvEUlvE_EEENS3_IS8_EEED1B8ue170006Ev, symObjAddr: 0x8430, symBinAddr: 0x10000B4EC, symSize: 0x2C }
  - { offsetInCU: 0x3D1AE, offset: 0x3D1AE, size: 0x8, addend: 0x0, symName: __ZNSt3__110unique_ptrINS_15__thread_structENS_14default_deleteIS1_EEED1B8ue170006Ev, symObjAddr: 0x845C, symBinAddr: 0x10000B518, symSize: 0x2C }
  - { offsetInCU: 0x3D1D8, offset: 0x3D1D8, size: 0x8, addend: 0x0, symName: __ZNSt3__110unique_ptrINS_15__thread_structENS_14default_deleteIS1_EEEC2B8ue170006ILb1EvEEPS1_, symObjAddr: 0x8488, symBinAddr: 0x10000B544, symSize: 0x44 }
  - { offsetInCU: 0x3D221, offset: 0x3D221, size: 0x8, addend: 0x0, symName: __ZNSt3__117__compressed_pairIPNS_15__thread_structENS_14default_deleteIS1_EEEC1B8ue170006IRS2_NS_16__value_init_tagEEEOT_OT0_, symObjAddr: 0x84CC, symBinAddr: 0x10000B588, symSize: 0x3C }
  - { offsetInCU: 0x3D279, offset: 0x3D279, size: 0x8, addend: 0x0, symName: __ZNSt3__117__compressed_pairIPNS_15__thread_structENS_14default_deleteIS1_EEEC2B8ue170006IRS2_NS_16__value_init_tagEEEOT_OT0_, symObjAddr: 0x8508, symBinAddr: 0x10000B5C4, symSize: 0x40 }
  - { offsetInCU: 0x3D2D1, offset: 0x3D2D1, size: 0x8, addend: 0x0, symName: __ZNSt3__122__compressed_pair_elemIPNS_15__thread_structELi0ELb0EEC2B8ue170006IRS2_vEEOT_, symObjAddr: 0x8548, symBinAddr: 0x10000B604, symSize: 0x24 }
  - { offsetInCU: 0x3D313, offset: 0x3D313, size: 0x8, addend: 0x0, symName: __ZNSt3__122__compressed_pair_elemINS_14default_deleteINS_15__thread_structEEELi1ELb1EEC2B8ue170006ENS_16__value_init_tagE, symObjAddr: 0x856C, symBinAddr: 0x10000B628, symSize: 0x14 }
  - { offsetInCU: 0x3D348, offset: 0x3D348, size: 0x8, addend: 0x0, symName: __ZNSt3__15tupleIJNS_10unique_ptrINS_15__thread_structENS_14default_deleteIS2_EEEEZN7Atomica10ChatWindowEvEUlvE_EEC2B8ue170006IJS5_S7_ELi0EEEDpOT_, symObjAddr: 0x8580, symBinAddr: 0x10000B63C, symSize: 0x3C }
  - { offsetInCU: 0x3D3A8, offset: 0x3D3A8, size: 0x8, addend: 0x0, symName: __ZNSt3__112__tuple_implINS_15__tuple_indicesIJLm0ELm1EEEEJNS_10unique_ptrINS_15__thread_structENS_14default_deleteIS4_EEEEZN7Atomica10ChatWindowEvEUlvE_EEC1B8ue170006IJLm0ELm1EEJS7_S9_EJEJEJS7_S9_EEENS1_IJXspT_EEEENS_13__tuple_typesIJDpT0_EEENS1_IJXspT1_EEEENSD_IJDpT2_EEEDpOT3_, symObjAddr: 0x85BC, symBinAddr: 0x10000B678, symSize: 0x3C }
  - { offsetInCU: 0x3D45E, offset: 0x3D45E, size: 0x8, addend: 0x0, symName: __ZNSt3__112__tuple_implINS_15__tuple_indicesIJLm0ELm1EEEEJNS_10unique_ptrINS_15__thread_structENS_14default_deleteIS4_EEEEZN7Atomica10ChatWindowEvEUlvE_EEC2B8ue170006IJLm0ELm1EEJS7_S9_EJEJEJS7_S9_EEENS1_IJXspT_EEEENS_13__tuple_typesIJDpT0_EEENS1_IJXspT1_EEEENSD_IJDpT2_EEEDpOT3_, symObjAddr: 0x85F8, symBinAddr: 0x10000B6B4, symSize: 0x48 }
  - { offsetInCU: 0x3D514, offset: 0x3D514, size: 0x8, addend: 0x0, symName: __ZNSt3__112__tuple_leafILm0ENS_10unique_ptrINS_15__thread_structENS_14default_deleteIS2_EEEELb0EEC2B8ue170006IS5_vEEOT_, symObjAddr: 0x8640, symBinAddr: 0x10000B6FC, symSize: 0x34 }
  - { offsetInCU: 0x3D558, offset: 0x3D558, size: 0x8, addend: 0x0, symName: __ZNSt3__112__tuple_leafILm1EZN7Atomica10ChatWindowEvEUlvE_Lb0EEC2B8ue170006IS2_vEEOT_, symObjAddr: 0x8674, symBinAddr: 0x10000B730, symSize: 0x34 }
  - { offsetInCU: 0x3D59C, offset: 0x3D59C, size: 0x8, addend: 0x0, symName: __ZNSt3__110unique_ptrINS_15__thread_structENS_14default_deleteIS1_EEEC1B8ue170006EOS4_, symObjAddr: 0x86A8, symBinAddr: 0x10000B764, symSize: 0x34 }
  - { offsetInCU: 0x3D5D4, offset: 0x3D5D4, size: 0x8, addend: 0x0, symName: __ZNSt3__110unique_ptrINS_15__thread_structENS_14default_deleteIS1_EEEC2B8ue170006EOS4_, symObjAddr: 0x86DC, symBinAddr: 0x10000B798, symSize: 0x60 }
  - { offsetInCU: 0x3D60C, offset: 0x3D60C, size: 0x8, addend: 0x0, symName: __ZNSt3__110unique_ptrINS_15__thread_structENS_14default_deleteIS1_EEE7releaseB8ue170006Ev, symObjAddr: 0x873C, symBinAddr: 0x10000B7F8, symSize: 0x44 }
  - { offsetInCU: 0x3D641, offset: 0x3D641, size: 0x8, addend: 0x0, symName: __ZNSt3__110unique_ptrINS_15__thread_structENS_14default_deleteIS1_EEE11get_deleterB8ue170006Ev, symObjAddr: 0x8780, symBinAddr: 0x10000B83C, symSize: 0x24 }
  - { offsetInCU: 0x3D673, offset: 0x3D673, size: 0x8, addend: 0x0, symName: __ZNSt3__117__compressed_pairIPNS_15__thread_structENS_14default_deleteIS1_EEEC1B8ue170006IS2_S4_EEOT_OT0_, symObjAddr: 0x87A4, symBinAddr: 0x10000B860, symSize: 0x3C }
  - { offsetInCU: 0x3D6CB, offset: 0x3D6CB, size: 0x8, addend: 0x0, symName: __ZNSt3__117__compressed_pairIPNS_15__thread_structENS_14default_deleteIS1_EEE5firstB8ue170006Ev, symObjAddr: 0x87E0, symBinAddr: 0x10000B89C, symSize: 0x24 }
  - { offsetInCU: 0x3D6F1, offset: 0x3D6F1, size: 0x8, addend: 0x0, symName: __ZNSt3__122__compressed_pair_elemIPNS_15__thread_structELi0ELb0EE5__getB8ue170006Ev, symObjAddr: 0x8804, symBinAddr: 0x10000B8C0, symSize: 0x14 }
  - { offsetInCU: 0x3D717, offset: 0x3D717, size: 0x8, addend: 0x0, symName: __ZNSt3__117__compressed_pairIPNS_15__thread_structENS_14default_deleteIS1_EEE6secondB8ue170006Ev, symObjAddr: 0x8818, symBinAddr: 0x10000B8D4, symSize: 0x24 }
  - { offsetInCU: 0x3D73D, offset: 0x3D73D, size: 0x8, addend: 0x0, symName: __ZNSt3__122__compressed_pair_elemINS_14default_deleteINS_15__thread_structEEELi1ELb1EE5__getB8ue170006Ev, symObjAddr: 0x883C, symBinAddr: 0x10000B8F8, symSize: 0x14 }
  - { offsetInCU: 0x3D763, offset: 0x3D763, size: 0x8, addend: 0x0, symName: __ZNSt3__117__compressed_pairIPNS_15__thread_structENS_14default_deleteIS1_EEEC2B8ue170006IS2_S4_EEOT_OT0_, symObjAddr: 0x8850, symBinAddr: 0x10000B90C, symSize: 0x44 }
  - { offsetInCU: 0x3D7BB, offset: 0x3D7BB, size: 0x8, addend: 0x0, symName: __ZNSt3__122__compressed_pair_elemIPNS_15__thread_structELi0ELb0EEC2B8ue170006IS2_vEEOT_, symObjAddr: 0x8894, symBinAddr: 0x10000B950, symSize: 0x24 }
  - { offsetInCU: 0x3D7FD, offset: 0x3D7FD, size: 0x8, addend: 0x0, symName: __ZNSt3__122__compressed_pair_elemINS_14default_deleteINS_15__thread_structEEELi1ELb1EEC2B8ue170006IS3_vEEOT_, symObjAddr: 0x88B8, symBinAddr: 0x10000B974, symSize: 0x18 }
  - { offsetInCU: 0x3D83F, offset: 0x3D83F, size: 0x8, addend: 0x0, symName: __ZZN7Atomica10ChatWindowEvENUlvE_C1EOS0_, symObjAddr: 0x88D0, symBinAddr: 0x10000B98C, symSize: 0x34 }
  - { offsetInCU: 0x3D874, offset: 0x3D874, size: 0x8, addend: 0x0, symName: __ZZN7Atomica10ChatWindowEvENUlvE_C2EOS0_, symObjAddr: 0x8904, symBinAddr: 0x10000B9C0, symSize: 0x6C }
  - { offsetInCU: 0x3D8A9, offset: 0x3D8A9, size: 0x8, addend: 0x0, symName: __ZNSt3__110unique_ptrINS_5tupleIJNS0_INS_15__thread_structENS_14default_deleteIS2_EEEEZN7Atomica10ChatWindowEvEUlvE_EEENS3_IS8_EEEC2B8ue170006ILb1EvEEPS8_, symObjAddr: 0x8970, symBinAddr: 0x10000BA2C, symSize: 0x44 }
  - { offsetInCU: 0x3D8EC, offset: 0x3D8EC, size: 0x8, addend: 0x0, symName: __ZNSt3__117__compressed_pairIPNS_5tupleIJNS_10unique_ptrINS_15__thread_structENS_14default_deleteIS3_EEEEZN7Atomica10ChatWindowEvEUlvE_EEENS4_IS9_EEEC1B8ue170006IRSA_NS_16__value_init_tagEEEOT_OT0_, symObjAddr: 0x89B4, symBinAddr: 0x10000BA70, symSize: 0x3C }
  - { offsetInCU: 0x3D944, offset: 0x3D944, size: 0x8, addend: 0x0, symName: __ZNSt3__117__compressed_pairIPNS_5tupleIJNS_10unique_ptrINS_15__thread_structENS_14default_deleteIS3_EEEEZN7Atomica10ChatWindowEvEUlvE_EEENS4_IS9_EEEC2B8ue170006IRSA_NS_16__value_init_tagEEEOT_OT0_, symObjAddr: 0x89F0, symBinAddr: 0x10000BAAC, symSize: 0x40 }
  - { offsetInCU: 0x3D99C, offset: 0x3D99C, size: 0x8, addend: 0x0, symName: __ZNSt3__122__compressed_pair_elemIPNS_5tupleIJNS_10unique_ptrINS_15__thread_structENS_14default_deleteIS3_EEEEZN7Atomica10ChatWindowEvEUlvE_EEELi0ELb0EEC2B8ue170006IRSA_vEEOT_, symObjAddr: 0x8A30, symBinAddr: 0x10000BAEC, symSize: 0x24 }
  - { offsetInCU: 0x3D9DE, offset: 0x3D9DE, size: 0x8, addend: 0x0, symName: __ZNSt3__122__compressed_pair_elemINS_14default_deleteINS_5tupleIJNS_10unique_ptrINS_15__thread_structENS1_IS4_EEEEZN7Atomica10ChatWindowEvEUlvE_EEEEELi1ELb1EEC2B8ue170006ENS_16__value_init_tagE, symObjAddr: 0x8A54, symBinAddr: 0x10000BB10, symSize: 0x14 }
  - { offsetInCU: 0x3DA46, offset: 0x3DA46, size: 0x8, addend: 0x0, symName: __ZNSt3__121__thread_specific_ptrINS_15__thread_structEE11set_pointerEPS1_, symObjAddr: 0x8A68, symBinAddr: 0x10000BB24, symSize: 0x30 }
  - { offsetInCU: 0x3DA7B, offset: 0x3DA7B, size: 0x8, addend: 0x0, symName: __ZNSt3__112__tuple_leafILm0ENS_10unique_ptrINS_15__thread_structENS_14default_deleteIS2_EEEELb0EE3getB8ue170006Ev, symObjAddr: 0x8B10, symBinAddr: 0x10000BBCC, symSize: 0x14 }
  - { offsetInCU: 0x3DAA1, offset: 0x3DAA1, size: 0x8, addend: 0x0, symName: __ZZN7Atomica10ChatWindowEvENUlvE_clEv, symObjAddr: 0x8B70, symBinAddr: 0x10000BC2C, symSize: 0x108 }
  - { offsetInCU: 0x3DAFB, offset: 0x3DAFB, size: 0x8, addend: 0x0, symName: __ZNSt3__112__tuple_leafILm1EZN7Atomica10ChatWindowEvEUlvE_Lb0EE3getB8ue170006Ev, symObjAddr: 0x8C78, symBinAddr: 0x10000BD34, symSize: 0x14 }
  - { offsetInCU: 0x3DB21, offset: 0x3DB21, size: 0x8, addend: 0x0, symName: __ZNKSt3__117__compressed_pairIPNS_5tupleIJNS_10unique_ptrINS_15__thread_structENS_14default_deleteIS3_EEEEZN7Atomica10ChatWindowEvEUlvE_EEENS4_IS9_EEE5firstB8ue170006Ev, symObjAddr: 0x8C8C, symBinAddr: 0x10000BD48, symSize: 0x24 }
  - { offsetInCU: 0x3DB47, offset: 0x3DB47, size: 0x8, addend: 0x0, symName: __ZNKSt3__122__compressed_pair_elemIPNS_5tupleIJNS_10unique_ptrINS_15__thread_structENS_14default_deleteIS3_EEEEZN7Atomica10ChatWindowEvEUlvE_EEELi0ELb0EE5__getB8ue170006Ev, symObjAddr: 0x8CB0, symBinAddr: 0x10000BD6C, symSize: 0x14 }
  - { offsetInCU: 0x3DB6D, offset: 0x3DB6D, size: 0x8, addend: 0x0, symName: __ZNSt3__117__compressed_pairIPNS_5tupleIJNS_10unique_ptrINS_15__thread_structENS_14default_deleteIS3_EEEEZN7Atomica10ChatWindowEvEUlvE_EEENS4_IS9_EEE5firstB8ue170006Ev, symObjAddr: 0x8CC4, symBinAddr: 0x10000BD80, symSize: 0x24 }
  - { offsetInCU: 0x3DB93, offset: 0x3DB93, size: 0x8, addend: 0x0, symName: __ZNSt3__122__compressed_pair_elemIPNS_5tupleIJNS_10unique_ptrINS_15__thread_structENS_14default_deleteIS3_EEEEZN7Atomica10ChatWindowEvEUlvE_EEELi0ELb0EE5__getB8ue170006Ev, symObjAddr: 0x8CE8, symBinAddr: 0x10000BDA4, symSize: 0x14 }
  - { offsetInCU: 0x3DBB9, offset: 0x3DBB9, size: 0x8, addend: 0x0, symName: __ZNSt3__110unique_ptrINS_5tupleIJNS0_INS_15__thread_structENS_14default_deleteIS2_EEEEZN7Atomica10ChatWindowEvEUlvE_EEENS3_IS8_EEED2B8ue170006Ev, symObjAddr: 0x8CFC, symBinAddr: 0x10000BDB8, symSize: 0x30 }
  - { offsetInCU: 0x3DBE3, offset: 0x3DBE3, size: 0x8, addend: 0x0, symName: __ZNSt3__110unique_ptrINS_5tupleIJNS0_INS_15__thread_structENS_14default_deleteIS2_EEEEZN7Atomica10ChatWindowEvEUlvE_EEENS3_IS8_EEE5resetB8ue170006EPS8_, symObjAddr: 0x8D2C, symBinAddr: 0x10000BDE8, symSize: 0x78 }
  - { offsetInCU: 0x3DC28, offset: 0x3DC28, size: 0x8, addend: 0x0, symName: __ZNSt3__117__compressed_pairIPNS_5tupleIJNS_10unique_ptrINS_15__thread_structENS_14default_deleteIS3_EEEEZN7Atomica10ChatWindowEvEUlvE_EEENS4_IS9_EEE6secondB8ue170006Ev, symObjAddr: 0x8DA4, symBinAddr: 0x10000BE60, symSize: 0x24 }
  - { offsetInCU: 0x3DC4E, offset: 0x3DC4E, size: 0x8, addend: 0x0, symName: __ZNKSt3__114default_deleteINS_5tupleIJNS_10unique_ptrINS_15__thread_structENS0_IS3_EEEEZN7Atomica10ChatWindowEvEUlvE_EEEEclB8ue170006EPS8_, symObjAddr: 0x8DC8, symBinAddr: 0x10000BE84, symSize: 0x4C }
  - { offsetInCU: 0x3DC82, offset: 0x3DC82, size: 0x8, addend: 0x0, symName: __ZNSt3__122__compressed_pair_elemINS_14default_deleteINS_5tupleIJNS_10unique_ptrINS_15__thread_structENS1_IS4_EEEEZN7Atomica10ChatWindowEvEUlvE_EEEEELi1ELb1EE5__getB8ue170006Ev, symObjAddr: 0x8E14, symBinAddr: 0x10000BED0, symSize: 0x14 }
  - { offsetInCU: 0x3DCA8, offset: 0x3DCA8, size: 0x8, addend: 0x0, symName: __ZNSt3__15tupleIJNS_10unique_ptrINS_15__thread_structENS_14default_deleteIS2_EEEEZN7Atomica10ChatWindowEvEUlvE_EED1Ev, symObjAddr: 0x8E28, symBinAddr: 0x10000BEE4, symSize: 0x2C }
  - { offsetInCU: 0x3DCD5, offset: 0x3DCD5, size: 0x8, addend: 0x0, symName: __ZNSt3__15tupleIJNS_10unique_ptrINS_15__thread_structENS_14default_deleteIS2_EEEEZN7Atomica10ChatWindowEvEUlvE_EED2Ev, symObjAddr: 0x8E54, symBinAddr: 0x10000BF10, symSize: 0x2C }
  - { offsetInCU: 0x3DD02, offset: 0x3DD02, size: 0x8, addend: 0x0, symName: __ZNSt3__112__tuple_implINS_15__tuple_indicesIJLm0ELm1EEEEJNS_10unique_ptrINS_15__thread_structENS_14default_deleteIS4_EEEEZN7Atomica10ChatWindowEvEUlvE_EED1Ev, symObjAddr: 0x8E80, symBinAddr: 0x10000BF3C, symSize: 0x2C }
  - { offsetInCU: 0x3DD2F, offset: 0x3DD2F, size: 0x8, addend: 0x0, symName: __ZNSt3__112__tuple_implINS_15__tuple_indicesIJLm0ELm1EEEEJNS_10unique_ptrINS_15__thread_structENS_14default_deleteIS4_EEEEZN7Atomica10ChatWindowEvEUlvE_EED2Ev, symObjAddr: 0x8EAC, symBinAddr: 0x10000BF68, symSize: 0x38 }
  - { offsetInCU: 0x3DD5C, offset: 0x3DD5C, size: 0x8, addend: 0x0, symName: __ZNSt3__112__tuple_leafILm1EZN7Atomica10ChatWindowEvEUlvE_Lb0EED2Ev, symObjAddr: 0x8EE4, symBinAddr: 0x10000BFA0, symSize: 0x2C }
  - { offsetInCU: 0x3DD89, offset: 0x3DD89, size: 0x8, addend: 0x0, symName: __ZNSt3__112__tuple_leafILm0ENS_10unique_ptrINS_15__thread_structENS_14default_deleteIS2_EEEELb0EED2Ev, symObjAddr: 0x8F10, symBinAddr: 0x10000BFCC, symSize: 0x2C }
  - { offsetInCU: 0x3DDB6, offset: 0x3DDB6, size: 0x8, addend: 0x0, symName: __ZNSt3__110unique_ptrINS_15__thread_structENS_14default_deleteIS1_EEED2B8ue170006Ev, symObjAddr: 0x8F3C, symBinAddr: 0x10000BFF8, symSize: 0x30 }
  - { offsetInCU: 0x3DDE0, offset: 0x3DDE0, size: 0x8, addend: 0x0, symName: __ZNSt3__110unique_ptrINS_15__thread_structENS_14default_deleteIS1_EEE5resetB8ue170006EPS1_, symObjAddr: 0x8F6C, symBinAddr: 0x10000C028, symSize: 0x78 }
  - { offsetInCU: 0x3DE25, offset: 0x3DE25, size: 0x8, addend: 0x0, symName: __ZNKSt3__114default_deleteINS_15__thread_structEEclB8ue170006EPS1_, symObjAddr: 0x8FE4, symBinAddr: 0x10000C0A0, symSize: 0x4C }
  - { offsetInCU: 0x3DE59, offset: 0x3DE59, size: 0x8, addend: 0x0, symName: __ZZN7Atomica10ChatWindowEvENUlvE_D2Ev, symObjAddr: 0x9030, symBinAddr: 0x10000C0EC, symSize: 0x38 }
  - { offsetInCU: 0x3DE85, offset: 0x3DE85, size: 0x8, addend: 0x0, symName: __ZNSt3__16vectorI6ImVec2NS_9allocatorIS1_EEED1B8ue170006Ev, symObjAddr: 0x9094, symBinAddr: 0x10000C150, symSize: 0x2C }
  - { offsetInCU: 0x3DEAF, offset: 0x3DEAF, size: 0x8, addend: 0x0, symName: __ZNKSt3__16vectorI6ImVec2NS_9allocatorIS1_EEE4sizeB8ue170006Ev, symObjAddr: 0x90C0, symBinAddr: 0x10000C17C, symSize: 0x28 }
  - { offsetInCU: 0x3DED5, offset: 0x3DED5, size: 0x8, addend: 0x0, symName: __ZNSt3__16vectorI6ImVec2NS_9allocatorIS1_EEE6resizeEm, symObjAddr: 0x90E8, symBinAddr: 0x10000C1A4, symSize: 0x94 }
  - { offsetInCU: 0x3DF1C, offset: 0x3DF1C, size: 0x8, addend: 0x0, symName: __Z3cosB8ue170006f, symObjAddr: 0x91A8, symBinAddr: 0x10000C264, symSize: 0x24 }
  - { offsetInCU: 0x3DF4C, offset: 0x3DF4C, size: 0x8, addend: 0x0, symName: __Z3sinB8ue170006f, symObjAddr: 0x91CC, symBinAddr: 0x10000C288, symSize: 0x24 }
  - { offsetInCU: 0x3DF7C, offset: 0x3DF7C, size: 0x8, addend: 0x0, symName: __ZNSt3__16vectorI6ImVec2NS_9allocatorIS1_EEEixB8ue170006Em, symObjAddr: 0x91F0, symBinAddr: 0x10000C2AC, symSize: 0x24 }
  - { offsetInCU: 0x3DFBF, offset: 0x3DFBF, size: 0x8, addend: 0x0, symName: __ZZN7Atomica17ConstructorWindowEvENKUl6ImVec2PKcjE_clES0_S2_j, symObjAddr: 0x9214, symBinAddr: 0x10000C2D0, symSize: 0xA8 }
  - { offsetInCU: 0x3E033, offset: 0x3E033, size: 0x8, addend: 0x0, symName: __ZZN7Atomica17ConstructorWindowEvENKUl6ImVec2S0_E_clES0_S0_, symObjAddr: 0x92BC, symBinAddr: 0x10000C378, symSize: 0x58 }
  - { offsetInCU: 0x3E09B, offset: 0x3E09B, size: 0x8, addend: 0x0, symName: __ZNSt3__16vectorI6ImVec2NS_9allocatorIS1_EEE5eraseB8ue170006ENS_11__wrap_iterIPKS1_EE, symObjAddr: 0x9314, symBinAddr: 0x10000C3D0, symSize: 0x94 }
  - { offsetInCU: 0x3E0F1, offset: 0x3E0F1, size: 0x8, addend: 0x0, symName: __ZNSt3__16vectorI6ImVec2NS_9allocatorIS1_EEE5beginB8ue170006Ev, symObjAddr: 0x93A8, symBinAddr: 0x10000C464, symSize: 0x30 }
  - { offsetInCU: 0x3E119, offset: 0x3E119, size: 0x8, addend: 0x0, symName: __ZNKSt3__111__wrap_iterIP6ImVec2EplB8ue170006El, symObjAddr: 0x93D8, symBinAddr: 0x10000C494, symSize: 0x3C }
  - { offsetInCU: 0x3E167, offset: 0x3E167, size: 0x8, addend: 0x0, symName: __ZNSt3__111__wrap_iterIPK6ImVec2EC1B8ue170006IPS1_EERKNS0_IT_EEPNS_9enable_ifIXsr14is_convertibleIS7_S3_EE5valueEvE4typeE, symObjAddr: 0x9414, symBinAddr: 0x10000C4D0, symSize: 0x3C }
  - { offsetInCU: 0x3E1B3, offset: 0x3E1B3, size: 0x8, addend: 0x0, symName: __Z4fabsB8ue170006f, symObjAddr: 0x9450, symBinAddr: 0x10000C50C, symSize: 0x18 }
  - { offsetInCU: 0x3E1E3, offset: 0x3E1E3, size: 0x8, addend: 0x0, symName: __ZNSt3__16vectorI6ImVec2NS_9allocatorIS1_EEED2B8ue170006Ev, symObjAddr: 0x94BC, symBinAddr: 0x10000C578, symSize: 0x44 }
  - { offsetInCU: 0x3E20D, offset: 0x3E20D, size: 0x8, addend: 0x0, symName: __ZNSt3__16vectorI6ImVec2NS_9allocatorIS1_EEE16__destroy_vectorC1B8ue170006ERS4_, symObjAddr: 0x9500, symBinAddr: 0x10000C5BC, symSize: 0x34 }
  - { offsetInCU: 0x3E247, offset: 0x3E247, size: 0x8, addend: 0x0, symName: __ZNSt3__16vectorI6ImVec2NS_9allocatorIS1_EEE16__destroy_vectorclB8ue170006Ev, symObjAddr: 0x9534, symBinAddr: 0x10000C5F0, symSize: 0x90 }
  - { offsetInCU: 0x3E26D, offset: 0x3E26D, size: 0x8, addend: 0x0, symName: __ZNSt3__16vectorI6ImVec2NS_9allocatorIS1_EEE16__destroy_vectorC2B8ue170006ERS4_, symObjAddr: 0x95C4, symBinAddr: 0x10000C680, symSize: 0x20 }
  - { offsetInCU: 0x3E2A7, offset: 0x3E2A7, size: 0x8, addend: 0x0, symName: __ZNSt3__16vectorI6ImVec2NS_9allocatorIS1_EEE7__clearB8ue170006Ev, symObjAddr: 0x95E4, symBinAddr: 0x10000C6A0, symSize: 0x28 }
  - { offsetInCU: 0x3E2CD, offset: 0x3E2CD, size: 0x8, addend: 0x0, symName: __ZNKSt3__16vectorI6ImVec2NS_9allocatorIS1_EEE17__annotate_deleteB8ue170006Ev, symObjAddr: 0x960C, symBinAddr: 0x10000C6C8, symSize: 0xB8 }
  - { offsetInCU: 0x3E2F3, offset: 0x3E2F3, size: 0x8, addend: 0x0, symName: __ZNSt3__116allocator_traitsINS_9allocatorI6ImVec2EEE10deallocateB8ue170006ERS3_PS2_m, symObjAddr: 0x96C4, symBinAddr: 0x10000C780, symSize: 0x34 }
  - { offsetInCU: 0x3E338, offset: 0x3E338, size: 0x8, addend: 0x0, symName: __ZNSt3__16vectorI6ImVec2NS_9allocatorIS1_EEE7__allocB8ue170006Ev, symObjAddr: 0x96F8, symBinAddr: 0x10000C7B4, symSize: 0x28 }
  - { offsetInCU: 0x3E35E, offset: 0x3E35E, size: 0x8, addend: 0x0, symName: __ZNKSt3__16vectorI6ImVec2NS_9allocatorIS1_EEE8capacityB8ue170006Ev, symObjAddr: 0x9720, symBinAddr: 0x10000C7DC, symSize: 0x40 }
  - { offsetInCU: 0x3E384, offset: 0x3E384, size: 0x8, addend: 0x0, symName: __ZNSt3__16vectorI6ImVec2NS_9allocatorIS1_EEE22__base_destruct_at_endB8ue170006EPS1_, symObjAddr: 0x9760, symBinAddr: 0x10000C81C, symSize: 0x8C }
  - { offsetInCU: 0x3E3C9, offset: 0x3E3C9, size: 0x8, addend: 0x0, symName: __ZNSt3__116allocator_traitsINS_9allocatorI6ImVec2EEE7destroyB8ue170006IS2_vvEEvRS3_PT_, symObjAddr: 0x97EC, symBinAddr: 0x10000C8A8, symSize: 0x28 }
  - { offsetInCU: 0x3E405, offset: 0x3E405, size: 0x8, addend: 0x0, symName: __ZNKSt3__16vectorI6ImVec2NS_9allocatorIS1_EEE31__annotate_contiguous_containerB8ue170006EPKvS6_S6_S6_, symObjAddr: 0x985C, symBinAddr: 0x10000C918, symSize: 0x20 }
  - { offsetInCU: 0x3E45B, offset: 0x3E45B, size: 0x8, addend: 0x0, symName: __ZNKSt3__16vectorI6ImVec2NS_9allocatorIS1_EEE4dataB8ue170006Ev, symObjAddr: 0x987C, symBinAddr: 0x10000C938, symSize: 0x28 }
  - { offsetInCU: 0x3E481, offset: 0x3E481, size: 0x8, addend: 0x0, symName: __ZNSt3__19allocatorI6ImVec2E10deallocateB8ue170006EPS1_m, symObjAddr: 0x98A4, symBinAddr: 0x10000C960, symSize: 0x40 }
  - { offsetInCU: 0x3E4C3, offset: 0x3E4C3, size: 0x8, addend: 0x0, symName: __ZNSt3__117__compressed_pairIP6ImVec2NS_9allocatorIS1_EEE6secondB8ue170006Ev, symObjAddr: 0x98E4, symBinAddr: 0x10000C9A0, symSize: 0x24 }
  - { offsetInCU: 0x3E4E9, offset: 0x3E4E9, size: 0x8, addend: 0x0, symName: __ZNSt3__122__compressed_pair_elemINS_9allocatorI6ImVec2EELi1ELb1EE5__getB8ue170006Ev, symObjAddr: 0x9908, symBinAddr: 0x10000C9C4, symSize: 0x14 }
  - { offsetInCU: 0x3E50F, offset: 0x3E50F, size: 0x8, addend: 0x0, symName: __ZNKSt3__16vectorI6ImVec2NS_9allocatorIS1_EEE9__end_capB8ue170006Ev, symObjAddr: 0x991C, symBinAddr: 0x10000C9D8, symSize: 0x28 }
  - { offsetInCU: 0x3E535, offset: 0x3E535, size: 0x8, addend: 0x0, symName: __ZNKSt3__117__compressed_pairIP6ImVec2NS_9allocatorIS1_EEE5firstB8ue170006Ev, symObjAddr: 0x9944, symBinAddr: 0x10000CA00, symSize: 0x24 }
  - { offsetInCU: 0x3E55B, offset: 0x3E55B, size: 0x8, addend: 0x0, symName: __ZNKSt3__122__compressed_pair_elemIP6ImVec2Li0ELb0EE5__getB8ue170006Ev, symObjAddr: 0x9968, symBinAddr: 0x10000CA24, symSize: 0x14 }
  - { offsetInCU: 0x3E581, offset: 0x3E581, size: 0x8, addend: 0x0, symName: __ZNSt3__16vectorI6ImVec2NS_9allocatorIS1_EEE8__appendEm, symObjAddr: 0x997C, symBinAddr: 0x10000CA38, symSize: 0x108 }
  - { offsetInCU: 0x3E5DD, offset: 0x3E5DD, size: 0x8, addend: 0x0, symName: __ZNSt3__16vectorI6ImVec2NS_9allocatorIS1_EEE17__destruct_at_endB8ue170006EPS1_, symObjAddr: 0x9A84, symBinAddr: 0x10000CB40, symSize: 0x4C }
  - { offsetInCU: 0x3E622, offset: 0x3E622, size: 0x8, addend: 0x0, symName: __ZNSt3__16vectorI6ImVec2NS_9allocatorIS1_EEE9__end_capB8ue170006Ev, symObjAddr: 0x9AD0, symBinAddr: 0x10000CB8C, symSize: 0x28 }
  - { offsetInCU: 0x3E648, offset: 0x3E648, size: 0x8, addend: 0x0, symName: __ZNSt3__16vectorI6ImVec2NS_9allocatorIS1_EEE18__construct_at_endEm, symObjAddr: 0x9AF8, symBinAddr: 0x10000CBB4, symSize: 0xC8 }
  - { offsetInCU: 0x3E6BB, offset: 0x3E6BB, size: 0x8, addend: 0x0, symName: __ZNKSt3__16vectorI6ImVec2NS_9allocatorIS1_EEE11__recommendB8ue170006Em, symObjAddr: 0x9BC0, symBinAddr: 0x10000CC7C, symSize: 0xB4 }
  - { offsetInCU: 0x3E711, offset: 0x3E711, size: 0x8, addend: 0x0, symName: __ZNSt3__114__split_bufferI6ImVec2RNS_9allocatorIS1_EEEC1EmmS4_, symObjAddr: 0x9C74, symBinAddr: 0x10000CD30, symSize: 0x44 }
  - { offsetInCU: 0x3E767, offset: 0x3E767, size: 0x8, addend: 0x0, symName: __ZNSt3__114__split_bufferI6ImVec2RNS_9allocatorIS1_EEE18__construct_at_endEm, symObjAddr: 0x9CB8, symBinAddr: 0x10000CD74, symSize: 0xB4 }
  - { offsetInCU: 0x3E7AC, offset: 0x3E7AC, size: 0x8, addend: 0x0, symName: __ZNSt3__114__split_bufferI6ImVec2RNS_9allocatorIS1_EEED1Ev, symObjAddr: 0x9E7C, symBinAddr: 0x10000CF38, symSize: 0x2C }
  - { offsetInCU: 0x3E7D8, offset: 0x3E7D8, size: 0x8, addend: 0x0, symName: __ZNSt3__117__compressed_pairIP6ImVec2NS_9allocatorIS1_EEE5firstB8ue170006Ev, symObjAddr: 0x9EA8, symBinAddr: 0x10000CF64, symSize: 0x24 }
  - { offsetInCU: 0x3E7FE, offset: 0x3E7FE, size: 0x8, addend: 0x0, symName: __ZNSt3__122__compressed_pair_elemIP6ImVec2Li0ELb0EE5__getB8ue170006Ev, symObjAddr: 0x9ECC, symBinAddr: 0x10000CF88, symSize: 0x14 }
  - { offsetInCU: 0x3E840, offset: 0x3E840, size: 0x8, addend: 0x0, symName: __ZNSt3__16vectorI6ImVec2NS_9allocatorIS1_EEE21_ConstructTransactionC1B8ue170006ERS4_m, symObjAddr: 0x9EE0, symBinAddr: 0x10000CF9C, symSize: 0x3C }
  - { offsetInCU: 0x3E88A, offset: 0x3E88A, size: 0x8, addend: 0x0, symName: __ZNSt3__116allocator_traitsINS_9allocatorI6ImVec2EEE9constructB8ue170006IS2_JEvvEEvRS3_PT_DpOT0_, symObjAddr: 0x9F1C, symBinAddr: 0x10000CFD8, symSize: 0x28 }
  - { offsetInCU: 0x3E8CB, offset: 0x3E8CB, size: 0x8, addend: 0x0, symName: __ZNSt3__16vectorI6ImVec2NS_9allocatorIS1_EEE21_ConstructTransactionD1B8ue170006Ev, symObjAddr: 0x9F44, symBinAddr: 0x10000D000, symSize: 0x2C }
  - { offsetInCU: 0x3E8F5, offset: 0x3E8F5, size: 0x8, addend: 0x0, symName: __ZNSt3__16vectorI6ImVec2NS_9allocatorIS1_EEE21_ConstructTransactionC2B8ue170006ERS4_m, symObjAddr: 0x9F70, symBinAddr: 0x10000D02C, symSize: 0x44 }
  - { offsetInCU: 0x3E93F, offset: 0x3E93F, size: 0x8, addend: 0x0, symName: __ZN6ImVec2C1Ev, symObjAddr: 0x9FE8, symBinAddr: 0x10000D0A4, symSize: 0x2C }
  - { offsetInCU: 0x3E969, offset: 0x3E969, size: 0x8, addend: 0x0, symName: __ZN6ImVec2C2Ev, symObjAddr: 0xA014, symBinAddr: 0x10000D0D0, symSize: 0x20 }
  - { offsetInCU: 0x3E993, offset: 0x3E993, size: 0x8, addend: 0x0, symName: __ZNSt3__16vectorI6ImVec2NS_9allocatorIS1_EEE21_ConstructTransactionD2B8ue170006Ev, symObjAddr: 0xA034, symBinAddr: 0x10000D0F0, symSize: 0x20 }
  - { offsetInCU: 0x3E9BD, offset: 0x3E9BD, size: 0x8, addend: 0x0, symName: __ZNKSt3__16vectorI6ImVec2NS_9allocatorIS1_EEE8max_sizeEv, symObjAddr: 0xA054, symBinAddr: 0x10000D110, symSize: 0x60 }
  - { offsetInCU: 0x3E9E5, offset: 0x3E9E5, size: 0x8, addend: 0x0, symName: __ZNKSt3__16vectorI6ImVec2NS_9allocatorIS1_EEE20__throw_length_errorB8ue170006Ev, symObjAddr: 0xA0B4, symBinAddr: 0x10000D170, symSize: 0x1C }
  - { offsetInCU: 0x3EA16, offset: 0x3EA16, size: 0x8, addend: 0x0, symName: __ZNSt3__116allocator_traitsINS_9allocatorI6ImVec2EEE8max_sizeB8ue170006IS3_vvEEmRKS3_, symObjAddr: 0xA0D0, symBinAddr: 0x10000D18C, symSize: 0x28 }
  - { offsetInCU: 0x3EA42, offset: 0x3EA42, size: 0x8, addend: 0x0, symName: __ZNKSt3__16vectorI6ImVec2NS_9allocatorIS1_EEE7__allocB8ue170006Ev, symObjAddr: 0xA0F8, symBinAddr: 0x10000D1B4, symSize: 0x28 }
  - { offsetInCU: 0x3EA68, offset: 0x3EA68, size: 0x8, addend: 0x0, symName: __ZNKSt3__117__compressed_pairIP6ImVec2NS_9allocatorIS1_EEE6secondB8ue170006Ev, symObjAddr: 0xA120, symBinAddr: 0x10000D1DC, symSize: 0x24 }
  - { offsetInCU: 0x3EA8E, offset: 0x3EA8E, size: 0x8, addend: 0x0, symName: __ZNKSt3__122__compressed_pair_elemINS_9allocatorI6ImVec2EELi1ELb1EE5__getB8ue170006Ev, symObjAddr: 0xA144, symBinAddr: 0x10000D200, symSize: 0x14 }
  - { offsetInCU: 0x3EAB4, offset: 0x3EAB4, size: 0x8, addend: 0x0, symName: __ZNSt3__114__split_bufferI6ImVec2RNS_9allocatorIS1_EEEC2EmmS4_, symObjAddr: 0xA158, symBinAddr: 0x10000D214, symSize: 0xD4 }
  - { offsetInCU: 0x3EB27, offset: 0x3EB27, size: 0x8, addend: 0x0, symName: __ZNSt3__117__compressed_pairIP6ImVec2RNS_9allocatorIS1_EEEC1B8ue170006IDnS5_EEOT_OT0_, symObjAddr: 0xA22C, symBinAddr: 0x10000D2E8, symSize: 0x3C }
  - { offsetInCU: 0x3EB7F, offset: 0x3EB7F, size: 0x8, addend: 0x0, symName: __ZNSt3__114__split_bufferI6ImVec2RNS_9allocatorIS1_EEE7__allocB8ue170006Ev, symObjAddr: 0xA2A8, symBinAddr: 0x10000D364, symSize: 0x28 }
  - { offsetInCU: 0x3EBA5, offset: 0x3EBA5, size: 0x8, addend: 0x0, symName: __ZNSt3__114__split_bufferI6ImVec2RNS_9allocatorIS1_EEE9__end_capB8ue170006Ev, symObjAddr: 0xA2D0, symBinAddr: 0x10000D38C, symSize: 0x28 }
  - { offsetInCU: 0x3EBCB, offset: 0x3EBCB, size: 0x8, addend: 0x0, symName: __ZNSt3__117__compressed_pairIP6ImVec2RNS_9allocatorIS1_EEEC2B8ue170006IDnS5_EEOT_OT0_, symObjAddr: 0xA2F8, symBinAddr: 0x10000D3B4, symSize: 0x48 }
  - { offsetInCU: 0x3EC23, offset: 0x3EC23, size: 0x8, addend: 0x0, symName: __ZNSt3__122__compressed_pair_elemIP6ImVec2Li0ELb0EEC2B8ue170006IDnvEEOT_, symObjAddr: 0xA340, symBinAddr: 0x10000D3FC, symSize: 0x1C }
  - { offsetInCU: 0x3EC65, offset: 0x3EC65, size: 0x8, addend: 0x0, symName: __ZNSt3__122__compressed_pair_elemIRNS_9allocatorI6ImVec2EELi1ELb0EEC2B8ue170006IS4_vEEOT_, symObjAddr: 0xA35C, symBinAddr: 0x10000D418, symSize: 0x20 }
  - { offsetInCU: 0x3ECA7, offset: 0x3ECA7, size: 0x8, addend: 0x0, symName: __ZNSt3__19allocatorI6ImVec2E8allocateB8ue170006Em, symObjAddr: 0xA37C, symBinAddr: 0x10000D438, symSize: 0x58 }
  - { offsetInCU: 0x3ECDB, offset: 0x3ECDB, size: 0x8, addend: 0x0, symName: __ZNSt3__117__compressed_pairIP6ImVec2RNS_9allocatorIS1_EEE6secondB8ue170006Ev, symObjAddr: 0xA3D4, symBinAddr: 0x10000D490, symSize: 0x28 }
  - { offsetInCU: 0x3ED01, offset: 0x3ED01, size: 0x8, addend: 0x0, symName: __ZNSt3__122__compressed_pair_elemIRNS_9allocatorI6ImVec2EELi1ELb0EE5__getB8ue170006Ev, symObjAddr: 0xA3FC, symBinAddr: 0x10000D4B8, symSize: 0x18 }
  - { offsetInCU: 0x3ED27, offset: 0x3ED27, size: 0x8, addend: 0x0, symName: __ZNSt3__117__compressed_pairIP6ImVec2RNS_9allocatorIS1_EEE5firstB8ue170006Ev, symObjAddr: 0xA414, symBinAddr: 0x10000D4D0, symSize: 0x24 }
  - { offsetInCU: 0x3ED59, offset: 0x3ED59, size: 0x8, addend: 0x0, symName: __ZNSt3__114__split_bufferI6ImVec2RNS_9allocatorIS1_EEE21_ConstructTransactionC1B8ue170006EPPS1_m, symObjAddr: 0xA438, symBinAddr: 0x10000D4F4, symSize: 0x3C }
  - { offsetInCU: 0x3ED9F, offset: 0x3ED9F, size: 0x8, addend: 0x0, symName: __ZNSt3__114__split_bufferI6ImVec2RNS_9allocatorIS1_EEE21_ConstructTransactionD1B8ue170006Ev, symObjAddr: 0xA474, symBinAddr: 0x10000D530, symSize: 0x2C }
  - { offsetInCU: 0x3EDC9, offset: 0x3EDC9, size: 0x8, addend: 0x0, symName: __ZNSt3__114__split_bufferI6ImVec2RNS_9allocatorIS1_EEE21_ConstructTransactionC2B8ue170006EPPS1_m, symObjAddr: 0xA4A0, symBinAddr: 0x10000D55C, symSize: 0x44 }
  - { offsetInCU: 0x3EE0F, offset: 0x3EE0F, size: 0x8, addend: 0x0, symName: __ZNSt3__114__split_bufferI6ImVec2RNS_9allocatorIS1_EEE21_ConstructTransactionD2B8ue170006Ev, symObjAddr: 0xA4E4, symBinAddr: 0x10000D5A0, symSize: 0x20 }
  - { offsetInCU: 0x3EE39, offset: 0x3EE39, size: 0x8, addend: 0x0, symName: __ZNSt3__116reverse_iteratorIP6ImVec2EC1B8ue170006ES2_, symObjAddr: 0xA57C, symBinAddr: 0x10000D638, symSize: 0x34 }
  - { offsetInCU: 0x3EE71, offset: 0x3EE71, size: 0x8, addend: 0x0, symName: __ZNKSt3__116reverse_iteratorIP6ImVec2E4baseB8ue170006Ev, symObjAddr: 0xA5B0, symBinAddr: 0x10000D66C, symSize: 0x18 }
  - { offsetInCU: 0x3EE97, offset: 0x3EE97, size: 0x8, addend: 0x0, symName: __ZNKSt3__16vectorI6ImVec2NS_9allocatorIS1_EEE14__annotate_newB8ue170006Em, symObjAddr: 0xA604, symBinAddr: 0x10000D6C0, symSize: 0xAC }
  - { offsetInCU: 0x3EEF5, offset: 0x3EEF5, size: 0x8, addend: 0x0, symName: __ZNKSt3__111__move_loopINS_17_ClassicAlgPolicyEEclB8ue170006INS_16reverse_iteratorIP6ImVec2EES7_S7_EENS_4pairIT_T1_EES9_T0_SA_, symObjAddr: 0xA968, symBinAddr: 0x10000DA24, symSize: 0xA0 }
  - { offsetInCU: 0x3EF60, offset: 0x3EF60, size: 0x8, addend: 0x0, symName: __ZNSt3__119__unwrap_range_implINS_16reverse_iteratorIP6ImVec2EES4_E8__unwrapB8ue170006ES4_S4_, symObjAddr: 0xAB54, symBinAddr: 0x10000DC10, symSize: 0x84 }
  - { offsetInCU: 0x3EF97, offset: 0x3EF97, size: 0x8, addend: 0x0, symName: __ZNSt3__14pairINS_16reverse_iteratorIP6ImVec2EES4_EC1B8ue170006IS4_S4_LPv0EEEOT_OT0_, symObjAddr: 0xABD8, symBinAddr: 0x10000DC94, symSize: 0x3C }
  - { offsetInCU: 0x3EFF5, offset: 0x3EFF5, size: 0x8, addend: 0x0, symName: __ZNSt3__14pairINS_16reverse_iteratorIP6ImVec2EES4_EC2B8ue170006IS4_S4_LPv0EEEOT_OT0_, symObjAddr: 0xAC14, symBinAddr: 0x10000DCD0, symSize: 0x34 }
  - { offsetInCU: 0x3F059, offset: 0x3F059, size: 0x8, addend: 0x0, symName: __ZNSt3__18_IterOpsINS_17_ClassicAlgPolicyEE11__iter_moveB8ue170006IRNS_16reverse_iteratorIP6ImVec2EEEENS_9enable_ifIXsr12is_referenceIDTdeclsr3stdE7declvalIRT_EEEEE5valueEDTclsr3stdE4movedeclsr3stdE7declvalISB_EEEEE4typeEOSA_, symObjAddr: 0xAC90, symBinAddr: 0x10000DD4C, symSize: 0x28 }
  - { offsetInCU: 0x3F085, offset: 0x3F085, size: 0x8, addend: 0x0, symName: __ZNKSt3__116reverse_iteratorIP6ImVec2EdeB8ue170006Ev, symObjAddr: 0xACB8, symBinAddr: 0x10000DD74, symSize: 0x28 }
  - { offsetInCU: 0x3F0B9, offset: 0x3F0B9, size: 0x8, addend: 0x0, symName: __ZNSt3__116reverse_iteratorIP6ImVec2EppB8ue170006Ev, symObjAddr: 0xACE0, symBinAddr: 0x10000DD9C, symSize: 0x20 }
  - { offsetInCU: 0x3F0DF, offset: 0x3F0DF, size: 0x8, addend: 0x0, symName: __ZNSt3__18_IterOpsINS_17_ClassicAlgPolicyEE25__validate_iter_referenceB8ue170006IRNS_16reverse_iteratorIP6ImVec2EEEEvv, symObjAddr: 0xAD00, symBinAddr: 0x10000DDBC, symSize: 0x4 }
  - { offsetInCU: 0x3F0FD, offset: 0x3F0FD, size: 0x8, addend: 0x0, symName: __ZNSt3__118__unwrap_iter_implINS_16reverse_iteratorIP6ImVec2EELb0EE8__unwrapB8ue170006ES4_, symObjAddr: 0xAD04, symBinAddr: 0x10000DDC0, symSize: 0x24 }
  - { offsetInCU: 0x3F120, offset: 0x3F120, size: 0x8, addend: 0x0, symName: __ZNSt3__119__unwrap_range_implINS_16reverse_iteratorIP6ImVec2EES4_E8__rewrapB8ue170006ES4_S4_, symObjAddr: 0xAD28, symBinAddr: 0x10000DDE4, symSize: 0x5C }
  - { offsetInCU: 0x3F151, offset: 0x3F151, size: 0x8, addend: 0x0, symName: __ZNSt3__118__unwrap_iter_implINS_16reverse_iteratorIP6ImVec2EELb0EE8__rewrapB8ue170006ES4_S4_, symObjAddr: 0xAD84, symBinAddr: 0x10000DE40, symSize: 0x2C }
  - { offsetInCU: 0x3F17F, offset: 0x3F17F, size: 0x8, addend: 0x0, symName: __ZNSt3__116reverse_iteratorIP6ImVec2EC2B8ue170006ES2_, symObjAddr: 0xADB0, symBinAddr: 0x10000DE6C, symSize: 0x28 }
  - { offsetInCU: 0x3F1B7, offset: 0x3F1B7, size: 0x8, addend: 0x0, symName: __ZNSt3__114__split_bufferI6ImVec2RNS_9allocatorIS1_EEED2Ev, symObjAddr: 0xADD8, symBinAddr: 0x10000DE94, symSize: 0x8C }
  - { offsetInCU: 0x3F1E3, offset: 0x3F1E3, size: 0x8, addend: 0x0, symName: __ZNSt3__114__split_bufferI6ImVec2RNS_9allocatorIS1_EEE5clearB8ue170006Ev, symObjAddr: 0xAE64, symBinAddr: 0x10000DF20, symSize: 0x28 }
  - { offsetInCU: 0x3F209, offset: 0x3F209, size: 0x8, addend: 0x0, symName: __ZNKSt3__114__split_bufferI6ImVec2RNS_9allocatorIS1_EEE8capacityB8ue170006Ev, symObjAddr: 0xAE8C, symBinAddr: 0x10000DF48, symSize: 0x40 }
  - { offsetInCU: 0x3F22F, offset: 0x3F22F, size: 0x8, addend: 0x0, symName: __ZNSt3__114__split_bufferI6ImVec2RNS_9allocatorIS1_EEE17__destruct_at_endB8ue170006EPS1_, symObjAddr: 0xAECC, symBinAddr: 0x10000DF88, symSize: 0x2C }
  - { offsetInCU: 0x3F263, offset: 0x3F263, size: 0x8, addend: 0x0, symName: __ZNSt3__114__split_bufferI6ImVec2RNS_9allocatorIS1_EEE17__destruct_at_endB8ue170006EPS1_NS_17integral_constantIbLb0EEE, symObjAddr: 0xAEF8, symBinAddr: 0x10000DFB4, symSize: 0x80 }
  - { offsetInCU: 0x3F2A4, offset: 0x3F2A4, size: 0x8, addend: 0x0, symName: __ZNKSt3__114__split_bufferI6ImVec2RNS_9allocatorIS1_EEE9__end_capB8ue170006Ev, symObjAddr: 0xAF78, symBinAddr: 0x10000E034, symSize: 0x28 }
  - { offsetInCU: 0x3F2CA, offset: 0x3F2CA, size: 0x8, addend: 0x0, symName: __ZNKSt3__117__compressed_pairIP6ImVec2RNS_9allocatorIS1_EEE5firstB8ue170006Ev, symObjAddr: 0xAFA0, symBinAddr: 0x10000E05C, symSize: 0x24 }
  - { offsetInCU: 0x3F2F0, offset: 0x3F2F0, size: 0x8, addend: 0x0, symName: __ZNKSt3__16vectorI6ImVec2NS_9allocatorIS1_EEE17__annotate_shrinkB8ue170006Em, symObjAddr: 0xAFC4, symBinAddr: 0x10000E080, symSize: 0xB4 }
  - { offsetInCU: 0x3F32C, offset: 0x3F32C, size: 0x8, addend: 0x0, symName: __ZNKSt3__16__lessIvvEclB8ue170006IiiEEbRKT_RKT0_, symObjAddr: 0xB0CC, symBinAddr: 0x10000E188, symSize: 0x34 }
  - { offsetInCU: 0x3F380, offset: 0x3F380, size: 0x8, addend: 0x0, symName: __ZNKSt3__16vectorI6ImVec2NS_9allocatorIS1_EEE6cbeginB8ue170006Ev, symObjAddr: 0xB148, symBinAddr: 0x10000E204, symSize: 0x2C }
  - { offsetInCU: 0x3F3A6, offset: 0x3F3A6, size: 0x8, addend: 0x0, symName: __ZNSt3__16vectorI6ImVec2NS_9allocatorIS1_EEE11__make_iterB8ue170006EPS1_, symObjAddr: 0xB1B4, symBinAddr: 0x10000E270, symSize: 0x30 }
  - { offsetInCU: 0x3F3DC, offset: 0x3F3DC, size: 0x8, addend: 0x0, symName: __ZNKSt3__111__wrap_iterIPK6ImVec2E4baseB8ue170006Ev, symObjAddr: 0xB1E4, symBinAddr: 0x10000E2A0, symSize: 0x18 }
  - { offsetInCU: 0x3F402, offset: 0x3F402, size: 0x8, addend: 0x0, symName: __ZNKSt3__16vectorI6ImVec2NS_9allocatorIS1_EEE5beginB8ue170006Ev, symObjAddr: 0xB1FC, symBinAddr: 0x10000E2B8, symSize: 0x30 }
  - { offsetInCU: 0x3F42A, offset: 0x3F42A, size: 0x8, addend: 0x0, symName: __ZNKSt3__16vectorI6ImVec2NS_9allocatorIS1_EEE11__make_iterB8ue170006EPKS1_, symObjAddr: 0xB22C, symBinAddr: 0x10000E2E8, symSize: 0x30 }
  - { offsetInCU: 0x3F460, offset: 0x3F460, size: 0x8, addend: 0x0, symName: __ZNSt3__111__wrap_iterIPK6ImVec2EC1B8ue170006ES3_, symObjAddr: 0xB25C, symBinAddr: 0x10000E318, symSize: 0x34 }
  - { offsetInCU: 0x3F498, offset: 0x3F498, size: 0x8, addend: 0x0, symName: __ZNSt3__111__wrap_iterIPK6ImVec2EC2B8ue170006ES3_, symObjAddr: 0xB290, symBinAddr: 0x10000E34C, symSize: 0x20 }
  - { offsetInCU: 0x3F4F8, offset: 0x3F4F8, size: 0x8, addend: 0x0, symName: __ZNKSt3__114__move_trivialclB8ue170006I6ImVec2S2_Li0EEENS_4pairIPT_PT0_EES5_S5_S7_, symObjAddr: 0xB428, symBinAddr: 0x10000E4E4, symSize: 0x48 }
  - { offsetInCU: 0x3F560, offset: 0x3F560, size: 0x8, addend: 0x0, symName: __ZNSt3__119__unwrap_range_implIP6ImVec2S2_E8__unwrapB8ue170006ES2_S2_, symObjAddr: 0xB534, symBinAddr: 0x10000E5F0, symSize: 0x58 }
  - { offsetInCU: 0x3F597, offset: 0x3F597, size: 0x8, addend: 0x0, symName: __ZNSt3__14pairIP6ImVec2S2_EC1B8ue170006IS2_S2_LPv0EEEOT_OT0_, symObjAddr: 0xB58C, symBinAddr: 0x10000E648, symSize: 0x3C }
  - { offsetInCU: 0x3F5F5, offset: 0x3F5F5, size: 0x8, addend: 0x0, symName: __ZNSt3__14pairIP6ImVec2S2_EC2B8ue170006IS2_S2_LPv0EEEOT_OT0_, symObjAddr: 0xB5C8, symBinAddr: 0x10000E684, symSize: 0x34 }
  - { offsetInCU: 0x3F653, offset: 0x3F653, size: 0x8, addend: 0x0, symName: __ZNSt3__14pairIP6ImVec2S2_EC1B8ue170006IRS2_S2_LPv0EEEOT_OT0_, symObjAddr: 0xB718, symBinAddr: 0x10000E7D4, symSize: 0x3C }
  - { offsetInCU: 0x3F6B1, offset: 0x3F6B1, size: 0x8, addend: 0x0, symName: __ZNSt3__14pairIP6ImVec2S2_EC2B8ue170006IRS2_S2_LPv0EEEOT_OT0_, symObjAddr: 0xB754, symBinAddr: 0x10000E810, symSize: 0x34 }
  - { offsetInCU: 0x3F70F, offset: 0x3F70F, size: 0x8, addend: 0x0, symName: __ZNSt3__118__unwrap_iter_implIP6ImVec2Lb1EE8__unwrapB8ue170006ES2_, symObjAddr: 0xB788, symBinAddr: 0x10000E844, symSize: 0x24 }
  - { offsetInCU: 0x3F732, offset: 0x3F732, size: 0x8, addend: 0x0, symName: __ZNSt3__119__unwrap_range_implIP6ImVec2S2_E8__rewrapB8ue170006ES2_S2_, symObjAddr: 0xB7AC, symBinAddr: 0x10000E868, symSize: 0x2C }
  - { offsetInCU: 0x3F763, offset: 0x3F763, size: 0x8, addend: 0x0, symName: __ZNSt3__118__unwrap_iter_implIP6ImVec2Lb1EE8__rewrapB8ue170006ES2_S2_, symObjAddr: 0xB7D8, symBinAddr: 0x10000E894, symSize: 0x50 }
  - { offsetInCU: 0x3F794, offset: 0x3F794, size: 0x8, addend: 0x0, symName: __ZNSt3__111__wrap_iterIP6ImVec2EC1B8ue170006ES2_, symObjAddr: 0xB828, symBinAddr: 0x10000E8E4, symSize: 0x34 }
  - { offsetInCU: 0x3F7CC, offset: 0x3F7CC, size: 0x8, addend: 0x0, symName: __ZNSt3__111__wrap_iterIP6ImVec2EC2B8ue170006ES2_, symObjAddr: 0xB85C, symBinAddr: 0x10000E918, symSize: 0x20 }
  - { offsetInCU: 0x3F804, offset: 0x3F804, size: 0x8, addend: 0x0, symName: __ZNSt3__111__wrap_iterIP6ImVec2EpLB8ue170006El, symObjAddr: 0xB87C, symBinAddr: 0x10000E938, symSize: 0x28 }
  - { offsetInCU: 0x3F838, offset: 0x3F838, size: 0x8, addend: 0x0, symName: __ZNSt3__111__wrap_iterIPK6ImVec2EC2B8ue170006IPS1_EERKNS0_IT_EEPNS_9enable_ifIXsr14is_convertibleIS7_S3_EE5valueEvE4typeE, symObjAddr: 0xB8A4, symBinAddr: 0x10000E960, symSize: 0x40 }
  - { offsetInCU: 0x3F884, offset: 0x3F884, size: 0x8, addend: 0x0, symName: __ZNKSt3__111__wrap_iterIP6ImVec2E4baseB8ue170006Ev, symObjAddr: 0xB8E4, symBinAddr: 0x10000E9A0, symSize: 0x18 }
  - { offsetInCU: 0x3F8AA, offset: 0x3F8AA, size: 0x8, addend: 0x0, symName: __ZNSt3__18functionIFbiN8nlohmann16json_abi_v3_12_06detail13parse_event_tERNS2_10basic_jsonINS_3mapENS_6vectorENS_12basic_stringIcNS_11char_traitsIcEENS_9allocatorIcEEEEbxydSB_NS2_14adl_serializerENS7_IhNSB_IhEEEEvEEEEC2B8ue170006EDn, symObjAddr: 0xB8FC, symBinAddr: 0x10000E9B8, symSize: 0x30 }
  - { offsetInCU: 0x3F8E0, offset: 0x3F8E0, size: 0x8, addend: 0x0, symName: __ZNSt3__110__function12__value_funcIFbiN8nlohmann16json_abi_v3_12_06detail13parse_event_tERNS3_10basic_jsonINS_3mapENS_6vectorENS_12basic_stringIcNS_11char_traitsIcEENS_9allocatorIcEEEEbxydSC_NS3_14adl_serializerENS8_IhNSC_IhEEEEvEEEEC1B8ue170006Ev, symObjAddr: 0xB92C, symBinAddr: 0x10000E9E8, symSize: 0x2C }
  - { offsetInCU: 0x3F90A, offset: 0x3F90A, size: 0x8, addend: 0x0, symName: __ZNSt3__110__function12__value_funcIFbiN8nlohmann16json_abi_v3_12_06detail13parse_event_tERNS3_10basic_jsonINS_3mapENS_6vectorENS_12basic_stringIcNS_11char_traitsIcEENS_9allocatorIcEEEEbxydSC_NS3_14adl_serializerENS8_IhNSC_IhEEEEvEEEEC2B8ue170006Ev, symObjAddr: 0xB958, symBinAddr: 0x10000EA14, symSize: 0x18 }
  - { offsetInCU: 0x3F934, offset: 0x3F934, size: 0x8, addend: 0x0, symName: __ZNSt3__18functionIFbiN8nlohmann16json_abi_v3_12_06detail13parse_event_tERNS2_10basic_jsonINS_3mapENS_6vectorENS_12basic_stringIcNS_11char_traitsIcEENS_9allocatorIcEEEEbxydSB_NS2_14adl_serializerENS7_IhNSB_IhEEEEvEEEED2Ev, symObjAddr: 0xB970, symBinAddr: 0x10000EA2C, symSize: 0x2C }
  - { offsetInCU: 0x3F960, offset: 0x3F960, size: 0x8, addend: 0x0, symName: __ZNSt3__110__function12__value_funcIFbiN8nlohmann16json_abi_v3_12_06detail13parse_event_tERNS3_10basic_jsonINS_3mapENS_6vectorENS_12basic_stringIcNS_11char_traitsIcEENS_9allocatorIcEEEEbxydSC_NS3_14adl_serializerENS8_IhNSC_IhEEEEvEEEED1B8ue170006Ev, symObjAddr: 0xB99C, symBinAddr: 0x10000EA58, symSize: 0x2C }
  - { offsetInCU: 0x3F98A, offset: 0x3F98A, size: 0x8, addend: 0x0, symName: __ZNSt3__110__function12__value_funcIFbiN8nlohmann16json_abi_v3_12_06detail13parse_event_tERNS3_10basic_jsonINS_3mapENS_6vectorENS_12basic_stringIcNS_11char_traitsIcEENS_9allocatorIcEEEEbxydSC_NS3_14adl_serializerENS8_IhNSC_IhEEEEvEEEED2B8ue170006Ev, symObjAddr: 0xB9C8, symBinAddr: 0x10000EA84, symSize: 0x90 }
  - { offsetInCU: 0x3F9B4, offset: 0x3F9B4, size: 0x8, addend: 0x0, symName: __ZN8nlohmann16json_abi_v3_12_010basic_jsonINSt3__13mapENS2_6vectorENS2_12basic_stringIcNS2_11char_traitsIcEENS2_9allocatorIcEEEEbxydS8_NS0_14adl_serializerENS4_IhNS8_IhEEEEvED2Ev, symObjAddr: 0xBA58, symBinAddr: 0x10000EB14, symSize: 0x3C }
  - { offsetInCU: 0x3F9DE, offset: 0x3F9DE, size: 0x8, addend: 0x0, symName: __ZNK8nlohmann16json_abi_v3_12_010basic_jsonINSt3__13mapENS2_6vectorENS2_12basic_stringIcNS2_11char_traitsIcEENS2_9allocatorIcEEEEbxydS8_NS0_14adl_serializerENS4_IhNS8_IhEEEEvE16assert_invariantEb, symObjAddr: 0xBA94, symBinAddr: 0x10000EB50, symSize: 0x1F0 }
  - { offsetInCU: 0x3FA14, offset: 0x3FA14, size: 0x8, addend: 0x0, symName: __ZN8nlohmann16json_abi_v3_12_010basic_jsonINSt3__13mapENS2_6vectorENS2_12basic_stringIcNS2_11char_traitsIcEENS2_9allocatorIcEEEEbxydS8_NS0_14adl_serializerENS4_IhNS8_IhEEEEvE4dataD1Ev, symObjAddr: 0xBC84, symBinAddr: 0x10000ED40, symSize: 0x2C }
  - { offsetInCU: 0x3FA3E, offset: 0x3FA3E, size: 0x8, addend: 0x0, symName: __ZN8nlohmann16json_abi_v3_12_010basic_jsonINSt3__13mapENS2_6vectorENS2_12basic_stringIcNS2_11char_traitsIcEENS2_9allocatorIcEEEEbxydS8_NS0_14adl_serializerENS4_IhNS8_IhEEEEvE4dataD2Ev, symObjAddr: 0xBCB0, symBinAddr: 0x10000ED6C, symSize: 0x3C }
  - { offsetInCU: 0x3FA68, offset: 0x3FA68, size: 0x8, addend: 0x0, symName: __ZN8nlohmann16json_abi_v3_12_010basic_jsonINSt3__13mapENS2_6vectorENS2_12basic_stringIcNS2_11char_traitsIcEENS2_9allocatorIcEEEEbxydS8_NS0_14adl_serializerENS4_IhNS8_IhEEEEvE10json_value7destroyENS0_6detail7value_tE, symObjAddr: 0xBCEC, symBinAddr: 0x10000EDA8, symSize: 0x518 }
  - { offsetInCU: 0x3FBE7, offset: 0x3FBE7, size: 0x8, addend: 0x0, symName: __ZNSt3__16vectorIN8nlohmann16json_abi_v3_12_010basic_jsonINS_3mapES0_NS_12basic_stringIcNS_11char_traitsIcEENS_9allocatorIcEEEEbxydS8_NS2_14adl_serializerENS0_IhNS8_IhEEEEvEENS8_ISE_EEEC1B8ue170006Ev, symObjAddr: 0xC22C, symBinAddr: 0x10000F2E8, symSize: 0x2C }
  - { offsetInCU: 0x3FC11, offset: 0x3FC11, size: 0x8, addend: 0x0, symName: __ZNSt3__16vectorIN8nlohmann16json_abi_v3_12_010basic_jsonINS_3mapES0_NS_12basic_stringIcNS_11char_traitsIcEENS_9allocatorIcEEEEbxydS8_NS2_14adl_serializerENS0_IhNS8_IhEEEEvEENS8_ISE_EEE7reserveEm, symObjAddr: 0xC258, symBinAddr: 0x10000F314, symSize: 0xE8 }
  - { offsetInCU: 0x3FC6E, offset: 0x3FC6E, size: 0x8, addend: 0x0, symName: __ZNKSt3__16vectorIN8nlohmann16json_abi_v3_12_010basic_jsonINS_3mapES0_NS_12basic_stringIcNS_11char_traitsIcEENS_9allocatorIcEEEEbxydS8_NS2_14adl_serializerENS0_IhNS8_IhEEEEvEENS8_ISE_EEE4sizeB8ue170006Ev, symObjAddr: 0xC340, symBinAddr: 0x10000F3FC, symSize: 0x28 }
  - { offsetInCU: 0x3FC94, offset: 0x3FC94, size: 0x8, addend: 0x0, symName: __ZNSt3__16vectorIN8nlohmann16json_abi_v3_12_010basic_jsonINS_3mapES0_NS_12basic_stringIcNS_11char_traitsIcEENS_9allocatorIcEEEEbxydS8_NS2_14adl_serializerENS0_IhNS8_IhEEEEvEENS8_ISE_EEE5beginB8ue170006Ev, symObjAddr: 0xC3C8, symBinAddr: 0x10000F484, symSize: 0x30 }
  - { offsetInCU: 0x3FCBC, offset: 0x3FCBC, size: 0x8, addend: 0x0, symName: __ZNSt3__16vectorIN8nlohmann16json_abi_v3_12_010basic_jsonINS_3mapES0_NS_12basic_stringIcNS_11char_traitsIcEENS_9allocatorIcEEEEbxydS8_NS2_14adl_serializerENS0_IhNS8_IhEEEEvEENS8_ISE_EEE3endB8ue170006Ev, symObjAddr: 0xC3F8, symBinAddr: 0x10000F4B4, symSize: 0x30 }
  - { offsetInCU: 0x3FCE4, offset: 0x3FCE4, size: 0x8, addend: 0x0, symName: __ZNKSt3__13mapINS_12basic_stringIcNS_11char_traitsIcEENS_9allocatorIcEEEEN8nlohmann16json_abi_v3_12_010basic_jsonIS0_NS_6vectorES6_bxydS4_NS8_14adl_serializerENSA_IhNS4_IhEEEEvEENS_4lessIvEENS4_INS_4pairIKS6_SE_EEEEE4sizeB8ue170006Ev, symObjAddr: 0xC454, symBinAddr: 0x10000F510, symSize: 0x28 }
  - { offsetInCU: 0x3FD0A, offset: 0x3FD0A, size: 0x8, addend: 0x0, symName: __ZNSt3__13mapINS_12basic_stringIcNS_11char_traitsIcEENS_9allocatorIcEEEEN8nlohmann16json_abi_v3_12_010basic_jsonIS0_NS_6vectorES6_bxydS4_NS8_14adl_serializerENSA_IhNS4_IhEEEEvEENS_4lessIvEENS4_INS_4pairIKS6_SE_EEEEE5beginB8ue170006Ev, symObjAddr: 0xC47C, symBinAddr: 0x10000F538, symSize: 0x38 }
  - { offsetInCU: 0x3FD30, offset: 0x3FD30, size: 0x8, addend: 0x0, symName: __ZNSt3__13mapINS_12basic_stringIcNS_11char_traitsIcEENS_9allocatorIcEEEEN8nlohmann16json_abi_v3_12_010basic_jsonIS0_NS_6vectorES6_bxydS4_NS8_14adl_serializerENSA_IhNS4_IhEEEEvEENS_4lessIvEENS4_INS_4pairIKS6_SE_EEEEE3endB8ue170006Ev, symObjAddr: 0xC4B4, symBinAddr: 0x10000F570, symSize: 0x38 }
  - { offsetInCU: 0x3FD56, offset: 0x3FD56, size: 0x8, addend: 0x0, symName: __ZNKSt3__114__map_iteratorINS_15__tree_iteratorINS_12__value_typeINS_12basic_stringIcNS_11char_traitsIcEENS_9allocatorIcEEEEN8nlohmann16json_abi_v3_12_010basic_jsonINS_3mapENS_6vectorES8_bxydS6_NSA_14adl_serializerENSD_IhNS6_IhEEEEvEEEEPNS_11__tree_nodeISI_PvEElEEEdeB8ue170006Ev, symObjAddr: 0xC51C, symBinAddr: 0x10000F5D8, symSize: 0x28 }
  - { offsetInCU: 0x3FD7C, offset: 0x3FD7C, size: 0x8, addend: 0x0, symName: __ZNSt3__16vectorIN8nlohmann16json_abi_v3_12_010basic_jsonINS_3mapES0_NS_12basic_stringIcNS_11char_traitsIcEENS_9allocatorIcEEEEbxydS8_NS2_14adl_serializerENS0_IhNS8_IhEEEEvEENS8_ISE_EEE9push_backB8ue170006EOSE_, symObjAddr: 0xC544, symBinAddr: 0x10000F600, symSize: 0x6C }
  - { offsetInCU: 0x3FDB4, offset: 0x3FDB4, size: 0x8, addend: 0x0, symName: __ZNSt3__114__map_iteratorINS_15__tree_iteratorINS_12__value_typeINS_12basic_stringIcNS_11char_traitsIcEENS_9allocatorIcEEEEN8nlohmann16json_abi_v3_12_010basic_jsonINS_3mapENS_6vectorES8_bxydS6_NSA_14adl_serializerENSD_IhNS6_IhEEEEvEEEEPNS_11__tree_nodeISI_PvEElEEEppB8ue170006Ev, symObjAddr: 0xC5B0, symBinAddr: 0x10000F66C, symSize: 0x2C }
  - { offsetInCU: 0x3FDDA, offset: 0x3FDDA, size: 0x8, addend: 0x0, symName: __ZNKSt3__16vectorIN8nlohmann16json_abi_v3_12_010basic_jsonINS_3mapES0_NS_12basic_stringIcNS_11char_traitsIcEENS_9allocatorIcEEEEbxydS8_NS2_14adl_serializerENS0_IhNS8_IhEEEEvEENS8_ISE_EEE5emptyB8ue170006Ev, symObjAddr: 0xC5DC, symBinAddr: 0x10000F698, symSize: 0x28 }
  - { offsetInCU: 0x3FE00, offset: 0x3FE00, size: 0x8, addend: 0x0, symName: __ZNSt3__16vectorIN8nlohmann16json_abi_v3_12_010basic_jsonINS_3mapES0_NS_12basic_stringIcNS_11char_traitsIcEENS_9allocatorIcEEEEbxydS8_NS2_14adl_serializerENS0_IhNS8_IhEEEEvEENS8_ISE_EEE4backB8ue170006Ev, symObjAddr: 0xC604, symBinAddr: 0x10000F6C0, symSize: 0x1C }
  - { offsetInCU: 0x3FE26, offset: 0x3FE26, size: 0x8, addend: 0x0, symName: __ZN8nlohmann16json_abi_v3_12_010basic_jsonINSt3__13mapENS2_6vectorENS2_12basic_stringIcNS2_11char_traitsIcEENS2_9allocatorIcEEEEbxydS8_NS0_14adl_serializerENS4_IhNS8_IhEEEEvEC1EOSE_, symObjAddr: 0xC620, symBinAddr: 0x10000F6DC, symSize: 0x34 }
  - { offsetInCU: 0x3FE60, offset: 0x3FE60, size: 0x8, addend: 0x0, symName: __ZNSt3__16vectorIN8nlohmann16json_abi_v3_12_010basic_jsonINS_3mapES0_NS_12basic_stringIcNS_11char_traitsIcEENS_9allocatorIcEEEEbxydS8_NS2_14adl_serializerENS0_IhNS8_IhEEEEvEENS8_ISE_EEE8pop_backEv, symObjAddr: 0xC654, symBinAddr: 0x10000F710, symSize: 0x2C }
  - { offsetInCU: 0x3FE88, offset: 0x3FE88, size: 0x8, addend: 0x0, symName: __ZNK8nlohmann16json_abi_v3_12_010basic_jsonINSt3__13mapENS2_6vectorENS2_12basic_stringIcNS2_11char_traitsIcEENS2_9allocatorIcEEEEbxydS8_NS0_14adl_serializerENS4_IhNS8_IhEEEEvE8is_arrayEv, symObjAddr: 0xC680, symBinAddr: 0x10000F73C, symSize: 0x24 }
  - { offsetInCU: 0x3FEAE, offset: 0x3FEAE, size: 0x8, addend: 0x0, symName: __ZNSt3__16vectorIN8nlohmann16json_abi_v3_12_010basic_jsonINS_3mapES0_NS_12basic_stringIcNS_11char_traitsIcEENS_9allocatorIcEEEEbxydS8_NS2_14adl_serializerENS0_IhNS8_IhEEEEvEENS8_ISE_EEE5clearB8ue170006Ev, symObjAddr: 0xC6A4, symBinAddr: 0x10000F760, symSize: 0x44 }
  - { offsetInCU: 0x3FEE3, offset: 0x3FEE3, size: 0x8, addend: 0x0, symName: __ZNK8nlohmann16json_abi_v3_12_010basic_jsonINSt3__13mapENS2_6vectorENS2_12basic_stringIcNS2_11char_traitsIcEENS2_9allocatorIcEEEEbxydS8_NS0_14adl_serializerENS4_IhNS8_IhEEEEvE9is_objectEv, symObjAddr: 0xC6E8, symBinAddr: 0x10000F7A4, symSize: 0x24 }
  - { offsetInCU: 0x3FF09, offset: 0x3FF09, size: 0x8, addend: 0x0, symName: __ZNSt3__13mapINS_12basic_stringIcNS_11char_traitsIcEENS_9allocatorIcEEEEN8nlohmann16json_abi_v3_12_010basic_jsonIS0_NS_6vectorES6_bxydS4_NS8_14adl_serializerENSA_IhNS4_IhEEEEvEENS_4lessIvEENS4_INS_4pairIKS6_SE_EEEEE5clearB8ue170006Ev, symObjAddr: 0xC70C, symBinAddr: 0x10000F7C8, symSize: 0x24 }
  - { offsetInCU: 0x3FF2F, offset: 0x3FF2F, size: 0x8, addend: 0x0, symName: __ZNSt3__16vectorIN8nlohmann16json_abi_v3_12_010basic_jsonINS_3mapES0_NS_12basic_stringIcNS_11char_traitsIcEENS_9allocatorIcEEEEbxydS8_NS2_14adl_serializerENS0_IhNS8_IhEEEEvEENS8_ISE_EEED1B8ue170006Ev, symObjAddr: 0xC730, symBinAddr: 0x10000F7EC, symSize: 0x2C }
  - { offsetInCU: 0x3FF65, offset: 0x3FF65, size: 0x8, addend: 0x0, symName: __ZNSt3__19allocatorINS_3mapINS_12basic_stringIcNS_11char_traitsIcEENS0_IcEEEEN8nlohmann16json_abi_v3_12_010basic_jsonIS1_NS_6vectorES6_bxydS0_NS8_14adl_serializerENSA_IhNS0_IhEEEEvEENS_4lessIvEENS0_INS_4pairIKS6_SE_EEEEEEEC1B8ue170006Ev, symObjAddr: 0xC75C, symBinAddr: 0x10000F818, symSize: 0x2C }
  - { offsetInCU: 0x3FF95, offset: 0x3FF95, size: 0x8, addend: 0x0, symName: __ZNSt3__116allocator_traitsINS_9allocatorINS_3mapINS_12basic_stringIcNS_11char_traitsIcEENS1_IcEEEEN8nlohmann16json_abi_v3_12_010basic_jsonIS2_NS_6vectorES7_bxydS1_NS9_14adl_serializerENSB_IhNS1_IhEEEEvEENS_4lessIvEENS1_INS_4pairIKS7_SF_EEEEEEEEE7destroyB8ue170006ISM_vvEEvRSN_PT_, symObjAddr: 0xC788, symBinAddr: 0x10000F844, symSize: 0x28 }
  - { offsetInCU: 0x3FFD1, offset: 0x3FFD1, size: 0x8, addend: 0x0, symName: __ZNSt3__116allocator_traitsINS_9allocatorINS_3mapINS_12basic_stringIcNS_11char_traitsIcEENS1_IcEEEEN8nlohmann16json_abi_v3_12_010basic_jsonIS2_NS_6vectorES7_bxydS1_NS9_14adl_serializerENSB_IhNS1_IhEEEEvEENS_4lessIvEENS1_INS_4pairIKS7_SF_EEEEEEEEE10deallocateB8ue170006ERSN_PSM_m, symObjAddr: 0xC7B0, symBinAddr: 0x10000F86C, symSize: 0x34 }
  - { offsetInCU: 0x40022, offset: 0x40022, size: 0x8, addend: 0x0, symName: __ZNSt3__19allocatorINS_6vectorIN8nlohmann16json_abi_v3_12_010basic_jsonINS_3mapES1_NS_12basic_stringIcNS_11char_traitsIcEENS0_IcEEEEbxydS0_NS3_14adl_serializerENS1_IhNS0_IhEEEEvEENS0_ISE_EEEEEC1B8ue170006Ev, symObjAddr: 0xC7E4, symBinAddr: 0x10000F8A0, symSize: 0x2C }
  - { offsetInCU: 0x40052, offset: 0x40052, size: 0x8, addend: 0x0, symName: __ZNSt3__116allocator_traitsINS_9allocatorINS_6vectorIN8nlohmann16json_abi_v3_12_010basic_jsonINS_3mapES2_NS_12basic_stringIcNS_11char_traitsIcEENS1_IcEEEEbxydS1_NS4_14adl_serializerENS2_IhNS1_IhEEEEvEENS1_ISF_EEEEEEE7destroyB8ue170006ISH_vvEEvRSI_PT_, symObjAddr: 0xC810, symBinAddr: 0x10000F8CC, symSize: 0x28 }
  - { offsetInCU: 0x4008E, offset: 0x4008E, size: 0x8, addend: 0x0, symName: __ZNSt3__116allocator_traitsINS_9allocatorINS_6vectorIN8nlohmann16json_abi_v3_12_010basic_jsonINS_3mapES2_NS_12basic_stringIcNS_11char_traitsIcEENS1_IcEEEEbxydS1_NS4_14adl_serializerENS2_IhNS1_IhEEEEvEENS1_ISF_EEEEEEE10deallocateB8ue170006ERSI_PSH_m, symObjAddr: 0xC838, symBinAddr: 0x10000F8F4, symSize: 0x34 }
  - { offsetInCU: 0x400D3, offset: 0x400D3, size: 0x8, addend: 0x0, symName: __ZNSt3__19allocatorINS_12basic_stringIcNS_11char_traitsIcEENS0_IcEEEEEC1B8ue170006Ev, symObjAddr: 0xC86C, symBinAddr: 0x10000F928, symSize: 0x2C }
  - { offsetInCU: 0x400FD, offset: 0x400FD, size: 0x8, addend: 0x0, symName: __ZNSt3__116allocator_traitsINS_9allocatorINS_12basic_stringIcNS_11char_traitsIcEENS1_IcEEEEEEE7destroyB8ue170006IS6_vvEEvRS7_PT_, symObjAddr: 0xC898, symBinAddr: 0x10000F954, symSize: 0x28 }
  - { offsetInCU: 0x40139, offset: 0x40139, size: 0x8, addend: 0x0, symName: __ZNSt3__116allocator_traitsINS_9allocatorINS_12basic_stringIcNS_11char_traitsIcEENS1_IcEEEEEEE10deallocateB8ue170006ERS7_PS6_m, symObjAddr: 0xC8C0, symBinAddr: 0x10000F97C, symSize: 0x34 }
  - { offsetInCU: 0x4018A, offset: 0x4018A, size: 0x8, addend: 0x0, symName: __ZNSt3__19allocatorIN8nlohmann16json_abi_v3_12_027byte_container_with_subtypeINS_6vectorIhNS0_IhEEEEEEEC1B8ue170006Ev, symObjAddr: 0xC8F4, symBinAddr: 0x10000F9B0, symSize: 0x2C }
  - { offsetInCU: 0x401BA, offset: 0x401BA, size: 0x8, addend: 0x0, symName: __ZNSt3__116allocator_traitsINS_9allocatorIN8nlohmann16json_abi_v3_12_027byte_container_with_subtypeINS_6vectorIhNS1_IhEEEEEEEEE7destroyB8ue170006IS8_vvEEvRS9_PT_, symObjAddr: 0xC920, symBinAddr: 0x10000F9DC, symSize: 0x28 }
  - { offsetInCU: 0x401F6, offset: 0x401F6, size: 0x8, addend: 0x0, symName: __ZNSt3__116allocator_traitsINS_9allocatorIN8nlohmann16json_abi_v3_12_027byte_container_with_subtypeINS_6vectorIhNS1_IhEEEEEEEEE10deallocateB8ue170006ERS9_PS8_m, symObjAddr: 0xC948, symBinAddr: 0x10000FA04, symSize: 0x34 }
  - { offsetInCU: 0x4023B, offset: 0x4023B, size: 0x8, addend: 0x0, symName: __ZNSt3__16vectorIN8nlohmann16json_abi_v3_12_010basic_jsonINS_3mapES0_NS_12basic_stringIcNS_11char_traitsIcEENS_9allocatorIcEEEEbxydS8_NS2_14adl_serializerENS0_IhNS8_IhEEEEvEENS8_ISE_EEEC2B8ue170006Ev, symObjAddr: 0xC97C, symBinAddr: 0x10000FA38, symSize: 0x4C }
  - { offsetInCU: 0x40265, offset: 0x40265, size: 0x8, addend: 0x0, symName: __ZNSt3__117__compressed_pairIPN8nlohmann16json_abi_v3_12_010basic_jsonINS_3mapENS_6vectorENS_12basic_stringIcNS_11char_traitsIcEENS_9allocatorIcEEEEbxydS9_NS2_14adl_serializerENS5_IhNS9_IhEEEEvEENS9_ISF_EEEC1B8ue170006IDnNS_18__default_init_tagEEEOT_OT0_, symObjAddr: 0xC9C8, symBinAddr: 0x10000FA84, symSize: 0x3C }
  - { offsetInCU: 0x402BD, offset: 0x402BD, size: 0x8, addend: 0x0, symName: __ZNSt3__117__compressed_pairIPN8nlohmann16json_abi_v3_12_010basic_jsonINS_3mapENS_6vectorENS_12basic_stringIcNS_11char_traitsIcEENS_9allocatorIcEEEEbxydS9_NS2_14adl_serializerENS5_IhNS9_IhEEEEvEENS9_ISF_EEEC2B8ue170006IDnNS_18__default_init_tagEEEOT_OT0_, symObjAddr: 0xCA04, symBinAddr: 0x10000FAC0, symSize: 0x40 }
  - { offsetInCU: 0x40315, offset: 0x40315, size: 0x8, addend: 0x0, symName: __ZNSt3__122__compressed_pair_elemIPN8nlohmann16json_abi_v3_12_010basic_jsonINS_3mapENS_6vectorENS_12basic_stringIcNS_11char_traitsIcEENS_9allocatorIcEEEEbxydS9_NS2_14adl_serializerENS5_IhNS9_IhEEEEvEELi0ELb0EEC2B8ue170006IDnvEEOT_, symObjAddr: 0xCA44, symBinAddr: 0x10000FB00, symSize: 0x1C }
  - { offsetInCU: 0x40357, offset: 0x40357, size: 0x8, addend: 0x0, symName: __ZNSt3__122__compressed_pair_elemINS_9allocatorIN8nlohmann16json_abi_v3_12_010basic_jsonINS_3mapENS_6vectorENS_12basic_stringIcNS_11char_traitsIcEENS1_IcEEEEbxydS1_NS3_14adl_serializerENS6_IhNS1_IhEEEEvEEEELi1ELb1EEC2B8ue170006ENS_18__default_init_tagE, symObjAddr: 0xCA60, symBinAddr: 0x10000FB1C, symSize: 0x2C }
  - { offsetInCU: 0x4038C, offset: 0x4038C, size: 0x8, addend: 0x0, symName: __ZNSt3__19allocatorIN8nlohmann16json_abi_v3_12_010basic_jsonINS_3mapENS_6vectorENS_12basic_stringIcNS_11char_traitsIcEENS0_IcEEEEbxydS0_NS2_14adl_serializerENS5_IhNS0_IhEEEEvEEEC2B8ue170006Ev, symObjAddr: 0xCA8C, symBinAddr: 0x10000FB48, symSize: 0x2C }
  - { offsetInCU: 0x403B6, offset: 0x403B6, size: 0x8, addend: 0x0, symName: __ZNSt3__116__non_trivial_ifILb1ENS_9allocatorIN8nlohmann16json_abi_v3_12_010basic_jsonINS_3mapENS_6vectorENS_12basic_stringIcNS_11char_traitsIcEENS1_IcEEEEbxydS1_NS3_14adl_serializerENS6_IhNS1_IhEEEEvEEEEEC2B8ue170006Ev, symObjAddr: 0xCAB8, symBinAddr: 0x10000FB74, symSize: 0x14 }
  - { offsetInCU: 0x403E0, offset: 0x403E0, size: 0x8, addend: 0x0, symName: __ZNKSt3__16vectorIN8nlohmann16json_abi_v3_12_010basic_jsonINS_3mapES0_NS_12basic_stringIcNS_11char_traitsIcEENS_9allocatorIcEEEEbxydS8_NS2_14adl_serializerENS0_IhNS8_IhEEEEvEENS8_ISE_EEE8capacityB8ue170006Ev, symObjAddr: 0xCACC, symBinAddr: 0x10000FB88, symSize: 0x40 }
  - { offsetInCU: 0x40406, offset: 0x40406, size: 0x8, addend: 0x0, symName: __ZNKSt3__16vectorIN8nlohmann16json_abi_v3_12_010basic_jsonINS_3mapES0_NS_12basic_stringIcNS_11char_traitsIcEENS_9allocatorIcEEEEbxydS8_NS2_14adl_serializerENS0_IhNS8_IhEEEEvEENS8_ISE_EEE8max_sizeEv, symObjAddr: 0xCB0C, symBinAddr: 0x10000FBC8, symSize: 0x60 }
  - { offsetInCU: 0x4042E, offset: 0x4042E, size: 0x8, addend: 0x0, symName: __ZNKSt3__16vectorIN8nlohmann16json_abi_v3_12_010basic_jsonINS_3mapES0_NS_12basic_stringIcNS_11char_traitsIcEENS_9allocatorIcEEEEbxydS8_NS2_14adl_serializerENS0_IhNS8_IhEEEEvEENS8_ISE_EEE20__throw_length_errorB8ue170006Ev, symObjAddr: 0xCB6C, symBinAddr: 0x10000FC28, symSize: 0x1C }
  - { offsetInCU: 0x40454, offset: 0x40454, size: 0x8, addend: 0x0, symName: __ZNSt3__16vectorIN8nlohmann16json_abi_v3_12_010basic_jsonINS_3mapES0_NS_12basic_stringIcNS_11char_traitsIcEENS_9allocatorIcEEEEbxydS8_NS2_14adl_serializerENS0_IhNS8_IhEEEEvEENS8_ISE_EEE7__allocB8ue170006Ev, symObjAddr: 0xCB88, symBinAddr: 0x10000FC44, symSize: 0x28 }
  - { offsetInCU: 0x4047A, offset: 0x4047A, size: 0x8, addend: 0x0, symName: __ZNSt3__114__split_bufferIN8nlohmann16json_abi_v3_12_010basic_jsonINS_3mapENS_6vectorENS_12basic_stringIcNS_11char_traitsIcEENS_9allocatorIcEEEEbxydS9_NS2_14adl_serializerENS5_IhNS9_IhEEEEvEERNS9_ISF_EEEC1EmmSH_, symObjAddr: 0xCBB0, symBinAddr: 0x10000FC6C, symSize: 0x44 }
  - { offsetInCU: 0x404D0, offset: 0x404D0, size: 0x8, addend: 0x0, symName: __ZNSt3__114__split_bufferIN8nlohmann16json_abi_v3_12_010basic_jsonINS_3mapENS_6vectorENS_12basic_stringIcNS_11char_traitsIcEENS_9allocatorIcEEEEbxydS9_NS2_14adl_serializerENS5_IhNS9_IhEEEEvEERNS9_ISF_EEED1Ev, symObjAddr: 0xCD04, symBinAddr: 0x10000FDC0, symSize: 0x2C }
  - { offsetInCU: 0x404FC, offset: 0x404FC, size: 0x8, addend: 0x0, symName: __ZNKSt3__16vectorIN8nlohmann16json_abi_v3_12_010basic_jsonINS_3mapES0_NS_12basic_stringIcNS_11char_traitsIcEENS_9allocatorIcEEEEbxydS8_NS2_14adl_serializerENS0_IhNS8_IhEEEEvEENS8_ISE_EEE9__end_capB8ue170006Ev, symObjAddr: 0xCD30, symBinAddr: 0x10000FDEC, symSize: 0x28 }
  - { offsetInCU: 0x40522, offset: 0x40522, size: 0x8, addend: 0x0, symName: __ZNKSt3__117__compressed_pairIPN8nlohmann16json_abi_v3_12_010basic_jsonINS_3mapENS_6vectorENS_12basic_stringIcNS_11char_traitsIcEENS_9allocatorIcEEEEbxydS9_NS2_14adl_serializerENS5_IhNS9_IhEEEEvEENS9_ISF_EEE5firstB8ue170006Ev, symObjAddr: 0xCD58, symBinAddr: 0x10000FE14, symSize: 0x24 }
  - { offsetInCU: 0x40548, offset: 0x40548, size: 0x8, addend: 0x0, symName: __ZNKSt3__122__compressed_pair_elemIPN8nlohmann16json_abi_v3_12_010basic_jsonINS_3mapENS_6vectorENS_12basic_stringIcNS_11char_traitsIcEENS_9allocatorIcEEEEbxydS9_NS2_14adl_serializerENS5_IhNS9_IhEEEEvEELi0ELb0EE5__getB8ue170006Ev, symObjAddr: 0xCD7C, symBinAddr: 0x10000FE38, symSize: 0x14 }
  - { offsetInCU: 0x40579, offset: 0x40579, size: 0x8, addend: 0x0, symName: __ZNSt3__116allocator_traitsINS_9allocatorIN8nlohmann16json_abi_v3_12_010basic_jsonINS_3mapENS_6vectorENS_12basic_stringIcNS_11char_traitsIcEENS1_IcEEEEbxydS1_NS3_14adl_serializerENS6_IhNS1_IhEEEEvEEEEE8max_sizeB8ue170006ISG_vvEEmRKSG_, symObjAddr: 0xCD90, symBinAddr: 0x10000FE4C, symSize: 0x28 }
  - { offsetInCU: 0x405A5, offset: 0x405A5, size: 0x8, addend: 0x0, symName: __ZNKSt3__16vectorIN8nlohmann16json_abi_v3_12_010basic_jsonINS_3mapES0_NS_12basic_stringIcNS_11char_traitsIcEENS_9allocatorIcEEEEbxydS8_NS2_14adl_serializerENS0_IhNS8_IhEEEEvEENS8_ISE_EEE7__allocB8ue170006Ev, symObjAddr: 0xCDB8, symBinAddr: 0x10000FE74, symSize: 0x28 }
  - { offsetInCU: 0x405CB, offset: 0x405CB, size: 0x8, addend: 0x0, symName: __ZNKSt3__117__compressed_pairIPN8nlohmann16json_abi_v3_12_010basic_jsonINS_3mapENS_6vectorENS_12basic_stringIcNS_11char_traitsIcEENS_9allocatorIcEEEEbxydS9_NS2_14adl_serializerENS5_IhNS9_IhEEEEvEENS9_ISF_EEE6secondB8ue170006Ev, symObjAddr: 0xCDE0, symBinAddr: 0x10000FE9C, symSize: 0x24 }
  - { offsetInCU: 0x405F1, offset: 0x405F1, size: 0x8, addend: 0x0, symName: __ZNKSt3__122__compressed_pair_elemINS_9allocatorIN8nlohmann16json_abi_v3_12_010basic_jsonINS_3mapENS_6vectorENS_12basic_stringIcNS_11char_traitsIcEENS1_IcEEEEbxydS1_NS3_14adl_serializerENS6_IhNS1_IhEEEEvEEEELi1ELb1EE5__getB8ue170006Ev, symObjAddr: 0xCE04, symBinAddr: 0x10000FEC0, symSize: 0x14 }
  - { offsetInCU: 0x40617, offset: 0x40617, size: 0x8, addend: 0x0, symName: __ZNSt3__117__compressed_pairIPN8nlohmann16json_abi_v3_12_010basic_jsonINS_3mapENS_6vectorENS_12basic_stringIcNS_11char_traitsIcEENS_9allocatorIcEEEEbxydS9_NS2_14adl_serializerENS5_IhNS9_IhEEEEvEENS9_ISF_EEE6secondB8ue170006Ev, symObjAddr: 0xCE18, symBinAddr: 0x10000FED4, symSize: 0x24 }
  - { offsetInCU: 0x4063D, offset: 0x4063D, size: 0x8, addend: 0x0, symName: __ZNSt3__122__compressed_pair_elemINS_9allocatorIN8nlohmann16json_abi_v3_12_010basic_jsonINS_3mapENS_6vectorENS_12basic_stringIcNS_11char_traitsIcEENS1_IcEEEEbxydS1_NS3_14adl_serializerENS6_IhNS1_IhEEEEvEEEELi1ELb1EE5__getB8ue170006Ev, symObjAddr: 0xCE3C, symBinAddr: 0x10000FEF8, symSize: 0x14 }
  - { offsetInCU: 0x40663, offset: 0x40663, size: 0x8, addend: 0x0, symName: __ZNSt3__114__split_bufferIN8nlohmann16json_abi_v3_12_010basic_jsonINS_3mapENS_6vectorENS_12basic_stringIcNS_11char_traitsIcEENS_9allocatorIcEEEEbxydS9_NS2_14adl_serializerENS5_IhNS9_IhEEEEvEERNS9_ISF_EEEC2EmmSH_, symObjAddr: 0xCE50, symBinAddr: 0x10000FF0C, symSize: 0xD4 }
  - { offsetInCU: 0x406D6, offset: 0x406D6, size: 0x8, addend: 0x0, symName: __ZNSt3__117__compressed_pairIPN8nlohmann16json_abi_v3_12_010basic_jsonINS_3mapENS_6vectorENS_12basic_stringIcNS_11char_traitsIcEENS_9allocatorIcEEEEbxydS9_NS2_14adl_serializerENS5_IhNS9_IhEEEEvEERNS9_ISF_EEEC1B8ue170006IDnSI_EEOT_OT0_, symObjAddr: 0xCF24, symBinAddr: 0x10000FFE0, symSize: 0x3C }
  - { offsetInCU: 0x4072E, offset: 0x4072E, size: 0x8, addend: 0x0, symName: __ZNSt3__114__split_bufferIN8nlohmann16json_abi_v3_12_010basic_jsonINS_3mapENS_6vectorENS_12basic_stringIcNS_11char_traitsIcEENS_9allocatorIcEEEEbxydS9_NS2_14adl_serializerENS5_IhNS9_IhEEEEvEERNS9_ISF_EEE7__allocB8ue170006Ev, symObjAddr: 0xCFA0, symBinAddr: 0x10001005C, symSize: 0x28 }
  - { offsetInCU: 0x40754, offset: 0x40754, size: 0x8, addend: 0x0, symName: __ZNSt3__114__split_bufferIN8nlohmann16json_abi_v3_12_010basic_jsonINS_3mapENS_6vectorENS_12basic_stringIcNS_11char_traitsIcEENS_9allocatorIcEEEEbxydS9_NS2_14adl_serializerENS5_IhNS9_IhEEEEvEERNS9_ISF_EEE9__end_capB8ue170006Ev, symObjAddr: 0xCFC8, symBinAddr: 0x100010084, symSize: 0x28 }
  - { offsetInCU: 0x4077A, offset: 0x4077A, size: 0x8, addend: 0x0, symName: __ZNSt3__117__compressed_pairIPN8nlohmann16json_abi_v3_12_010basic_jsonINS_3mapENS_6vectorENS_12basic_stringIcNS_11char_traitsIcEENS_9allocatorIcEEEEbxydS9_NS2_14adl_serializerENS5_IhNS9_IhEEEEvEERNS9_ISF_EEEC2B8ue170006IDnSI_EEOT_OT0_, symObjAddr: 0xCFF0, symBinAddr: 0x1000100AC, symSize: 0x48 }
  - { offsetInCU: 0x407D2, offset: 0x407D2, size: 0x8, addend: 0x0, symName: __ZNSt3__122__compressed_pair_elemIRNS_9allocatorIN8nlohmann16json_abi_v3_12_010basic_jsonINS_3mapENS_6vectorENS_12basic_stringIcNS_11char_traitsIcEENS1_IcEEEEbxydS1_NS3_14adl_serializerENS6_IhNS1_IhEEEEvEEEELi1ELb0EEC2B8ue170006ISH_vEEOT_, symObjAddr: 0xD038, symBinAddr: 0x1000100F4, symSize: 0x20 }
  - { offsetInCU: 0x40814, offset: 0x40814, size: 0x8, addend: 0x0, symName: __ZNSt3__19allocatorIN8nlohmann16json_abi_v3_12_010basic_jsonINS_3mapENS_6vectorENS_12basic_stringIcNS_11char_traitsIcEENS0_IcEEEEbxydS0_NS2_14adl_serializerENS5_IhNS0_IhEEEEvEEE8allocateB8ue170006Em, symObjAddr: 0xD058, symBinAddr: 0x100010114, symSize: 0x58 }
  - { offsetInCU: 0x40848, offset: 0x40848, size: 0x8, addend: 0x0, symName: __ZNSt3__117__compressed_pairIPN8nlohmann16json_abi_v3_12_010basic_jsonINS_3mapENS_6vectorENS_12basic_stringIcNS_11char_traitsIcEENS_9allocatorIcEEEEbxydS9_NS2_14adl_serializerENS5_IhNS9_IhEEEEvEERNS9_ISF_EEE6secondB8ue170006Ev, symObjAddr: 0xD0B0, symBinAddr: 0x10001016C, symSize: 0x28 }
  - { offsetInCU: 0x4086E, offset: 0x4086E, size: 0x8, addend: 0x0, symName: __ZNSt3__122__compressed_pair_elemIRNS_9allocatorIN8nlohmann16json_abi_v3_12_010basic_jsonINS_3mapENS_6vectorENS_12basic_stringIcNS_11char_traitsIcEENS1_IcEEEEbxydS1_NS3_14adl_serializerENS6_IhNS1_IhEEEEvEEEELi1ELb0EE5__getB8ue170006Ev, symObjAddr: 0xD0D8, symBinAddr: 0x100010194, symSize: 0x18 }
  - { offsetInCU: 0x40894, offset: 0x40894, size: 0x8, addend: 0x0, symName: __ZNSt3__117__compressed_pairIPN8nlohmann16json_abi_v3_12_010basic_jsonINS_3mapENS_6vectorENS_12basic_stringIcNS_11char_traitsIcEENS_9allocatorIcEEEEbxydS9_NS2_14adl_serializerENS5_IhNS9_IhEEEEvEERNS9_ISF_EEE5firstB8ue170006Ev, symObjAddr: 0xD0F0, symBinAddr: 0x1000101AC, symSize: 0x24 }
  - { offsetInCU: 0x408BA, offset: 0x408BA, size: 0x8, addend: 0x0, symName: __ZNSt3__122__compressed_pair_elemIPN8nlohmann16json_abi_v3_12_010basic_jsonINS_3mapENS_6vectorENS_12basic_stringIcNS_11char_traitsIcEENS_9allocatorIcEEEEbxydS9_NS2_14adl_serializerENS5_IhNS9_IhEEEEvEELi0ELb0EE5__getB8ue170006Ev, symObjAddr: 0xD114, symBinAddr: 0x1000101D0, symSize: 0x14 }
  - { offsetInCU: 0x408E0, offset: 0x408E0, size: 0x8, addend: 0x0, symName: __ZNKSt3__16vectorIN8nlohmann16json_abi_v3_12_010basic_jsonINS_3mapES0_NS_12basic_stringIcNS_11char_traitsIcEENS_9allocatorIcEEEEbxydS8_NS2_14adl_serializerENS0_IhNS8_IhEEEEvEENS8_ISE_EEE17__annotate_deleteB8ue170006Ev, symObjAddr: 0xD128, symBinAddr: 0x1000101E4, symSize: 0xB8 }
  - { offsetInCU: 0x40906, offset: 0x40906, size: 0x8, addend: 0x0, symName: __ZNSt3__116reverse_iteratorIPN8nlohmann16json_abi_v3_12_010basic_jsonINS_3mapENS_6vectorENS_12basic_stringIcNS_11char_traitsIcEENS_9allocatorIcEEEEbxydS9_NS2_14adl_serializerENS5_IhNS9_IhEEEEvEEEC1B8ue170006ESG_, symObjAddr: 0xD30C, symBinAddr: 0x1000103C8, symSize: 0x34 }
  - { offsetInCU: 0x4093E, offset: 0x4093E, size: 0x8, addend: 0x0, symName: __ZNKSt3__116reverse_iteratorIPN8nlohmann16json_abi_v3_12_010basic_jsonINS_3mapENS_6vectorENS_12basic_stringIcNS_11char_traitsIcEENS_9allocatorIcEEEEbxydS9_NS2_14adl_serializerENS5_IhNS9_IhEEEEvEEE4baseB8ue170006Ev, symObjAddr: 0xD340, symBinAddr: 0x1000103FC, symSize: 0x18 }
  - { offsetInCU: 0x40964, offset: 0x40964, size: 0x8, addend: 0x0, symName: __ZNSt3__16vectorIN8nlohmann16json_abi_v3_12_010basic_jsonINS_3mapES0_NS_12basic_stringIcNS_11char_traitsIcEENS_9allocatorIcEEEEbxydS8_NS2_14adl_serializerENS0_IhNS8_IhEEEEvEENS8_ISE_EEE9__end_capB8ue170006Ev, symObjAddr: 0xD394, symBinAddr: 0x100010450, symSize: 0x28 }
  - { offsetInCU: 0x4098A, offset: 0x4098A, size: 0x8, addend: 0x0, symName: __ZNKSt3__16vectorIN8nlohmann16json_abi_v3_12_010basic_jsonINS_3mapES0_NS_12basic_stringIcNS_11char_traitsIcEENS_9allocatorIcEEEEbxydS8_NS2_14adl_serializerENS0_IhNS8_IhEEEEvEENS8_ISE_EEE14__annotate_newB8ue170006Em, symObjAddr: 0xD3BC, symBinAddr: 0x100010478, symSize: 0xAC }
  - { offsetInCU: 0x409C0, offset: 0x409C0, size: 0x8, addend: 0x0, symName: __ZNKSt3__16vectorIN8nlohmann16json_abi_v3_12_010basic_jsonINS_3mapES0_NS_12basic_stringIcNS_11char_traitsIcEENS_9allocatorIcEEEEbxydS8_NS2_14adl_serializerENS0_IhNS8_IhEEEEvEENS8_ISE_EEE31__annotate_contiguous_containerB8ue170006EPKvSI_SI_SI_, symObjAddr: 0xD468, symBinAddr: 0x100010524, symSize: 0x20 }
  - { offsetInCU: 0x40A16, offset: 0x40A16, size: 0x8, addend: 0x0, symName: __ZNKSt3__16vectorIN8nlohmann16json_abi_v3_12_010basic_jsonINS_3mapES0_NS_12basic_stringIcNS_11char_traitsIcEENS_9allocatorIcEEEEbxydS8_NS2_14adl_serializerENS0_IhNS8_IhEEEEvEENS8_ISE_EEE4dataB8ue170006Ev, symObjAddr: 0xD488, symBinAddr: 0x100010544, symSize: 0x28 }
  - { offsetInCU: 0x40A3C, offset: 0x40A3C, size: 0x8, addend: 0x0, symName: __ZNSt3__129_AllocatorDestroyRangeReverseINS_9allocatorIN8nlohmann16json_abi_v3_12_010basic_jsonINS_3mapENS_6vectorENS_12basic_stringIcNS_11char_traitsIcEENS1_IcEEEEbxydS1_NS3_14adl_serializerENS6_IhNS1_IhEEEEvEEEENS_16reverse_iteratorIPSF_EEEC1B8ue170006ERSG_RSJ_SM_, symObjAddr: 0xD510, symBinAddr: 0x1000105CC, symSize: 0x44 }
  - { offsetInCU: 0x40A96, offset: 0x40A96, size: 0x8, addend: 0x0, symName: __ZNSt3__116allocator_traitsINS_9allocatorIN8nlohmann16json_abi_v3_12_010basic_jsonINS_3mapENS_6vectorENS_12basic_stringIcNS_11char_traitsIcEENS1_IcEEEEbxydS1_NS3_14adl_serializerENS6_IhNS1_IhEEEEvEEEEE9constructB8ue170006ISF_JSF_EvvEEvRSG_PT_DpOT0_, symObjAddr: 0xD59C, symBinAddr: 0x100010658, symSize: 0x30 }
  - { offsetInCU: 0x40AED, offset: 0x40AED, size: 0x8, addend: 0x0, symName: __ZNKSt3__116reverse_iteratorIPN8nlohmann16json_abi_v3_12_010basic_jsonINS_3mapENS_6vectorENS_12basic_stringIcNS_11char_traitsIcEENS_9allocatorIcEEEEbxydS9_NS2_14adl_serializerENS5_IhNS9_IhEEEEvEEEdeB8ue170006Ev, symObjAddr: 0xD5F0, symBinAddr: 0x1000106AC, symSize: 0x28 }
  - { offsetInCU: 0x40B21, offset: 0x40B21, size: 0x8, addend: 0x0, symName: __ZNSt3__116reverse_iteratorIPN8nlohmann16json_abi_v3_12_010basic_jsonINS_3mapENS_6vectorENS_12basic_stringIcNS_11char_traitsIcEENS_9allocatorIcEEEEbxydS9_NS2_14adl_serializerENS5_IhNS9_IhEEEEvEEEppB8ue170006Ev, symObjAddr: 0xD618, symBinAddr: 0x1000106D4, symSize: 0x20 }
  - { offsetInCU: 0x40B47, offset: 0x40B47, size: 0x8, addend: 0x0, symName: __ZNSt3__128__exception_guard_exceptionsINS_29_AllocatorDestroyRangeReverseINS_9allocatorIN8nlohmann16json_abi_v3_12_010basic_jsonINS_3mapENS_6vectorENS_12basic_stringIcNS_11char_traitsIcEENS2_IcEEEEbxydS2_NS4_14adl_serializerENS7_IhNS2_IhEEEEvEEEENS_16reverse_iteratorIPSG_EEEEE10__completeB8ue170006Ev, symObjAddr: 0xD638, symBinAddr: 0x1000106F4, symSize: 0x1C }
  - { offsetInCU: 0x40B6D, offset: 0x40B6D, size: 0x8, addend: 0x0, symName: __ZNSt3__128__exception_guard_exceptionsINS_29_AllocatorDestroyRangeReverseINS_9allocatorIN8nlohmann16json_abi_v3_12_010basic_jsonINS_3mapENS_6vectorENS_12basic_stringIcNS_11char_traitsIcEENS2_IcEEEEbxydS2_NS4_14adl_serializerENS7_IhNS2_IhEEEEvEEEENS_16reverse_iteratorIPSG_EEEEED1B8ue170006Ev, symObjAddr: 0xD654, symBinAddr: 0x100010710, symSize: 0x2C }
  - { offsetInCU: 0x40B97, offset: 0x40B97, size: 0x8, addend: 0x0, symName: __ZNSt3__128__exception_guard_exceptionsINS_29_AllocatorDestroyRangeReverseINS_9allocatorIN8nlohmann16json_abi_v3_12_010basic_jsonINS_3mapENS_6vectorENS_12basic_stringIcNS_11char_traitsIcEENS2_IcEEEEbxydS2_NS4_14adl_serializerENS7_IhNS2_IhEEEEvEEEENS_16reverse_iteratorIPSG_EEEEEC1B8ue170006ESL_, symObjAddr: 0xD680, symBinAddr: 0x10001073C, symSize: 0x34 }
  - { offsetInCU: 0x40BD0, offset: 0x40BD0, size: 0x8, addend: 0x0, symName: __ZNSt3__128__exception_guard_exceptionsINS_29_AllocatorDestroyRangeReverseINS_9allocatorIN8nlohmann16json_abi_v3_12_010basic_jsonINS_3mapENS_6vectorENS_12basic_stringIcNS_11char_traitsIcEENS2_IcEEEEbxydS2_NS4_14adl_serializerENS7_IhNS2_IhEEEEvEEEENS_16reverse_iteratorIPSG_EEEEEC2B8ue170006ESL_, symObjAddr: 0xD6B4, symBinAddr: 0x100010770, symSize: 0x30 }
  - { offsetInCU: 0x40C09, offset: 0x40C09, size: 0x8, addend: 0x0, symName: __ZNSt3__129_AllocatorDestroyRangeReverseINS_9allocatorIN8nlohmann16json_abi_v3_12_010basic_jsonINS_3mapENS_6vectorENS_12basic_stringIcNS_11char_traitsIcEENS1_IcEEEEbxydS1_NS3_14adl_serializerENS6_IhNS1_IhEEEEvEEEENS_16reverse_iteratorIPSF_EEEC2B8ue170006ERSG_RSJ_SM_, symObjAddr: 0xD6E4, symBinAddr: 0x1000107A0, symSize: 0x38 }
  - { offsetInCU: 0x40C69, offset: 0x40C69, size: 0x8, addend: 0x0, symName: __ZNSt3__119__to_address_helperINS_16reverse_iteratorIPN8nlohmann16json_abi_v3_12_010basic_jsonINS_3mapENS_6vectorENS_12basic_stringIcNS_11char_traitsIcEENS_9allocatorIcEEEEbxydSA_NS3_14adl_serializerENS6_IhNSA_IhEEEEvEEEEvE6__callB8ue170006ERKSI_, symObjAddr: 0xD758, symBinAddr: 0x100010814, symSize: 0x38 }
  - { offsetInCU: 0x40C8C, offset: 0x40C8C, size: 0x8, addend: 0x0, symName: __ZNKSt3__116reverse_iteratorIPN8nlohmann16json_abi_v3_12_010basic_jsonINS_3mapENS_6vectorENS_12basic_stringIcNS_11char_traitsIcEENS_9allocatorIcEEEEbxydS9_NS2_14adl_serializerENS5_IhNS9_IhEEEEvEEEptB8ue170006Ev, symObjAddr: 0xD790, symBinAddr: 0x10001084C, symSize: 0x2C }
  - { offsetInCU: 0x40CB2, offset: 0x40CB2, size: 0x8, addend: 0x0, symName: __ZNSt3__128__exception_guard_exceptionsINS_29_AllocatorDestroyRangeReverseINS_9allocatorIN8nlohmann16json_abi_v3_12_010basic_jsonINS_3mapENS_6vectorENS_12basic_stringIcNS_11char_traitsIcEENS2_IcEEEEbxydS2_NS4_14adl_serializerENS7_IhNS2_IhEEEEvEEEENS_16reverse_iteratorIPSG_EEEEED2B8ue170006Ev, symObjAddr: 0xD858, symBinAddr: 0x100010914, symSize: 0x50 }
  - { offsetInCU: 0x40CDC, offset: 0x40CDC, size: 0x8, addend: 0x0, symName: __ZNKSt3__129_AllocatorDestroyRangeReverseINS_9allocatorIN8nlohmann16json_abi_v3_12_010basic_jsonINS_3mapENS_6vectorENS_12basic_stringIcNS_11char_traitsIcEENS1_IcEEEEbxydS1_NS3_14adl_serializerENS6_IhNS1_IhEEEEvEEEENS_16reverse_iteratorIPSF_EEEclB8ue170006Ev, symObjAddr: 0xD8A8, symBinAddr: 0x100010964, symSize: 0xB4 }
  - { offsetInCU: 0x40D03, offset: 0x40D03, size: 0x8, addend: 0x0, symName: __ZNSt3__116reverse_iteratorINS0_IPN8nlohmann16json_abi_v3_12_010basic_jsonINS_3mapENS_6vectorENS_12basic_stringIcNS_11char_traitsIcEENS_9allocatorIcEEEEbxydS9_NS2_14adl_serializerENS5_IhNS9_IhEEEEvEEEEEC1B8ue170006ESH_, symObjAddr: 0xD9CC, symBinAddr: 0x100010A88, symSize: 0x3C }
  - { offsetInCU: 0x40D3B, offset: 0x40D3B, size: 0x8, addend: 0x0, symName: __ZNSt3__116allocator_traitsINS_9allocatorIN8nlohmann16json_abi_v3_12_010basic_jsonINS_3mapENS_6vectorENS_12basic_stringIcNS_11char_traitsIcEENS1_IcEEEEbxydS1_NS3_14adl_serializerENS6_IhNS1_IhEEEEvEEEEE7destroyB8ue170006ISF_vvEEvRSG_PT_, symObjAddr: 0xDA68, symBinAddr: 0x100010B24, symSize: 0x28 }
  - { offsetInCU: 0x40D77, offset: 0x40D77, size: 0x8, addend: 0x0, symName: __ZNSt3__116reverse_iteratorINS0_IPN8nlohmann16json_abi_v3_12_010basic_jsonINS_3mapENS_6vectorENS_12basic_stringIcNS_11char_traitsIcEENS_9allocatorIcEEEEbxydS9_NS2_14adl_serializerENS5_IhNS9_IhEEEEvEEEEEppB8ue170006Ev, symObjAddr: 0xDAB4, symBinAddr: 0x100010B70, symSize: 0x30 }
  - { offsetInCU: 0x40D9D, offset: 0x40D9D, size: 0x8, addend: 0x0, symName: __ZNKSt3__116reverse_iteratorINS0_IPN8nlohmann16json_abi_v3_12_010basic_jsonINS_3mapENS_6vectorENS_12basic_stringIcNS_11char_traitsIcEENS_9allocatorIcEEEEbxydS9_NS2_14adl_serializerENS5_IhNS9_IhEEEEvEEEEE4baseB8ue170006Ev, symObjAddr: 0xDAE4, symBinAddr: 0x100010BA0, symSize: 0x24 }
  - { offsetInCU: 0x40DC9, offset: 0x40DC9, size: 0x8, addend: 0x0, symName: __ZNSt3__119__to_address_helperINS_16reverse_iteratorINS1_IPN8nlohmann16json_abi_v3_12_010basic_jsonINS_3mapENS_6vectorENS_12basic_stringIcNS_11char_traitsIcEENS_9allocatorIcEEEEbxydSA_NS3_14adl_serializerENS6_IhNSA_IhEEEEvEEEEEEvE6__callB8ue170006ERKSJ_, symObjAddr: 0xDB50, symBinAddr: 0x100010C0C, symSize: 0x38 }
  - { offsetInCU: 0x40DEC, offset: 0x40DEC, size: 0x8, addend: 0x0, symName: __ZNKSt3__116reverse_iteratorINS0_IPN8nlohmann16json_abi_v3_12_010basic_jsonINS_3mapENS_6vectorENS_12basic_stringIcNS_11char_traitsIcEENS_9allocatorIcEEEEbxydS9_NS2_14adl_serializerENS5_IhNS9_IhEEEEvEEEEEptB8ue170006Ev, symObjAddr: 0xDB88, symBinAddr: 0x100010C44, symSize: 0x4C }
  - { offsetInCU: 0x40E12, offset: 0x40E12, size: 0x8, addend: 0x0, symName: __ZNSt3__116reverse_iteratorIPN8nlohmann16json_abi_v3_12_010basic_jsonINS_3mapENS_6vectorENS_12basic_stringIcNS_11char_traitsIcEENS_9allocatorIcEEEEbxydS9_NS2_14adl_serializerENS5_IhNS9_IhEEEEvEEEpLB8ue170006El, symObjAddr: 0xDC84, symBinAddr: 0x100010D40, symSize: 0x30 }
  - { offsetInCU: 0x40E46, offset: 0x40E46, size: 0x8, addend: 0x0, symName: __ZNSt3__116reverse_iteratorIPN8nlohmann16json_abi_v3_12_010basic_jsonINS_3mapENS_6vectorENS_12basic_stringIcNS_11char_traitsIcEENS_9allocatorIcEEEEbxydS9_NS2_14adl_serializerENS5_IhNS9_IhEEEEvEEEmmB8ue170006Ev, symObjAddr: 0xDCB4, symBinAddr: 0x100010D70, symSize: 0x20 }
  - { offsetInCU: 0x40E6C, offset: 0x40E6C, size: 0x8, addend: 0x0, symName: __ZNSt3__116reverse_iteratorINS0_IPN8nlohmann16json_abi_v3_12_010basic_jsonINS_3mapENS_6vectorENS_12basic_stringIcNS_11char_traitsIcEENS_9allocatorIcEEEEbxydS9_NS2_14adl_serializerENS5_IhNS9_IhEEEEvEEEEEC2B8ue170006ESH_, symObjAddr: 0xDCD4, symBinAddr: 0x100010D90, symSize: 0x2C }
  - { offsetInCU: 0x40EA4, offset: 0x40EA4, size: 0x8, addend: 0x0, symName: __ZNSt3__116reverse_iteratorIPN8nlohmann16json_abi_v3_12_010basic_jsonINS_3mapENS_6vectorENS_12basic_stringIcNS_11char_traitsIcEENS_9allocatorIcEEEEbxydS9_NS2_14adl_serializerENS5_IhNS9_IhEEEEvEEEC2B8ue170006ESG_, symObjAddr: 0xDD00, symBinAddr: 0x100010DBC, symSize: 0x28 }
  - { offsetInCU: 0x40EDC, offset: 0x40EDC, size: 0x8, addend: 0x0, symName: __ZNSt3__117__compressed_pairIPN8nlohmann16json_abi_v3_12_010basic_jsonINS_3mapENS_6vectorENS_12basic_stringIcNS_11char_traitsIcEENS_9allocatorIcEEEEbxydS9_NS2_14adl_serializerENS5_IhNS9_IhEEEEvEENS9_ISF_EEE5firstB8ue170006Ev, symObjAddr: 0xDD28, symBinAddr: 0x100010DE4, symSize: 0x24 }
  - { offsetInCU: 0x40F02, offset: 0x40F02, size: 0x8, addend: 0x0, symName: __ZNSt3__114__split_bufferIN8nlohmann16json_abi_v3_12_010basic_jsonINS_3mapENS_6vectorENS_12basic_stringIcNS_11char_traitsIcEENS_9allocatorIcEEEEbxydS9_NS2_14adl_serializerENS5_IhNS9_IhEEEEvEERNS9_ISF_EEED2Ev, symObjAddr: 0xDD4C, symBinAddr: 0x100010E08, symSize: 0x8C }
  - { offsetInCU: 0x40F2E, offset: 0x40F2E, size: 0x8, addend: 0x0, symName: __ZNSt3__114__split_bufferIN8nlohmann16json_abi_v3_12_010basic_jsonINS_3mapENS_6vectorENS_12basic_stringIcNS_11char_traitsIcEENS_9allocatorIcEEEEbxydS9_NS2_14adl_serializerENS5_IhNS9_IhEEEEvEERNS9_ISF_EEE5clearB8ue170006Ev, symObjAddr: 0xDDD8, symBinAddr: 0x100010E94, symSize: 0x28 }
  - { offsetInCU: 0x40F54, offset: 0x40F54, size: 0x8, addend: 0x0, symName: __ZNSt3__116allocator_traitsINS_9allocatorIN8nlohmann16json_abi_v3_12_010basic_jsonINS_3mapENS_6vectorENS_12basic_stringIcNS_11char_traitsIcEENS1_IcEEEEbxydS1_NS3_14adl_serializerENS6_IhNS1_IhEEEEvEEEEE10deallocateB8ue170006ERSG_PSF_m, symObjAddr: 0xDE00, symBinAddr: 0x100010EBC, symSize: 0x34 }
  - { offsetInCU: 0x40F99, offset: 0x40F99, size: 0x8, addend: 0x0, symName: __ZNKSt3__114__split_bufferIN8nlohmann16json_abi_v3_12_010basic_jsonINS_3mapENS_6vectorENS_12basic_stringIcNS_11char_traitsIcEENS_9allocatorIcEEEEbxydS9_NS2_14adl_serializerENS5_IhNS9_IhEEEEvEERNS9_ISF_EEE8capacityB8ue170006Ev, symObjAddr: 0xDE34, symBinAddr: 0x100010EF0, symSize: 0x40 }
  - { offsetInCU: 0x40FBF, offset: 0x40FBF, size: 0x8, addend: 0x0, symName: __ZNSt3__114__split_bufferIN8nlohmann16json_abi_v3_12_010basic_jsonINS_3mapENS_6vectorENS_12basic_stringIcNS_11char_traitsIcEENS_9allocatorIcEEEEbxydS9_NS2_14adl_serializerENS5_IhNS9_IhEEEEvEERNS9_ISF_EEE17__destruct_at_endB8ue170006EPSF_, symObjAddr: 0xDE74, symBinAddr: 0x100010F30, symSize: 0x2C }
  - { offsetInCU: 0x40FF3, offset: 0x40FF3, size: 0x8, addend: 0x0, symName: __ZNSt3__114__split_bufferIN8nlohmann16json_abi_v3_12_010basic_jsonINS_3mapENS_6vectorENS_12basic_stringIcNS_11char_traitsIcEENS_9allocatorIcEEEEbxydS9_NS2_14adl_serializerENS5_IhNS9_IhEEEEvEERNS9_ISF_EEE17__destruct_at_endB8ue170006EPSF_NS_17integral_constantIbLb0EEE, symObjAddr: 0xDEA0, symBinAddr: 0x100010F5C, symSize: 0x80 }
  - { offsetInCU: 0x41034, offset: 0x41034, size: 0x8, addend: 0x0, symName: __ZNSt3__19allocatorIN8nlohmann16json_abi_v3_12_010basic_jsonINS_3mapENS_6vectorENS_12basic_stringIcNS_11char_traitsIcEENS0_IcEEEEbxydS0_NS2_14adl_serializerENS5_IhNS0_IhEEEEvEEE10deallocateB8ue170006EPSE_m, symObjAddr: 0xDF20, symBinAddr: 0x100010FDC, symSize: 0x40 }
  - { offsetInCU: 0x41076, offset: 0x41076, size: 0x8, addend: 0x0, symName: __ZNKSt3__114__split_bufferIN8nlohmann16json_abi_v3_12_010basic_jsonINS_3mapENS_6vectorENS_12basic_stringIcNS_11char_traitsIcEENS_9allocatorIcEEEEbxydS9_NS2_14adl_serializerENS5_IhNS9_IhEEEEvEERNS9_ISF_EEE9__end_capB8ue170006Ev, symObjAddr: 0xDF60, symBinAddr: 0x10001101C, symSize: 0x28 }
  - { offsetInCU: 0x4109C, offset: 0x4109C, size: 0x8, addend: 0x0, symName: __ZNKSt3__117__compressed_pairIPN8nlohmann16json_abi_v3_12_010basic_jsonINS_3mapENS_6vectorENS_12basic_stringIcNS_11char_traitsIcEENS_9allocatorIcEEEEbxydS9_NS2_14adl_serializerENS5_IhNS9_IhEEEEvEERNS9_ISF_EEE5firstB8ue170006Ev, symObjAddr: 0xDF88, symBinAddr: 0x100011044, symSize: 0x24 }
  - { offsetInCU: 0x410DF, offset: 0x410DF, size: 0x8, addend: 0x0, symName: __ZNKSt3__111__move_loopINS_17_ClassicAlgPolicyEEclB8ue170006IPN8nlohmann16json_abi_v3_12_010basic_jsonINS_3mapENS_6vectorENS_12basic_stringIcNS_11char_traitsIcEENS_9allocatorIcEEEEbxydSC_NS5_14adl_serializerENS8_IhNSC_IhEEEEvEESJ_NS_20back_insert_iteratorINS8_ISI_NSC_ISI_EEEEEEEENS_4pairIT_T1_EESP_T0_SQ_, symObjAddr: 0xE198, symBinAddr: 0x100011254, symSize: 0x98 }
  - { offsetInCU: 0x41167, offset: 0x41167, size: 0x8, addend: 0x0, symName: __ZNSt3__119__unwrap_range_implINS_11__wrap_iterIPN8nlohmann16json_abi_v3_12_010basic_jsonINS_3mapENS_6vectorENS_12basic_stringIcNS_11char_traitsIcEENS_9allocatorIcEEEEbxydSA_NS3_14adl_serializerENS6_IhNSA_IhEEEEvEEEESI_E8__unwrapB8ue170006ESI_SI_, symObjAddr: 0xE32C, symBinAddr: 0x1000113E8, symSize: 0x68 }
  - { offsetInCU: 0x4119E, offset: 0x4119E, size: 0x8, addend: 0x0, symName: __ZNSt3__14pairIPN8nlohmann16json_abi_v3_12_010basic_jsonINS_3mapENS_6vectorENS_12basic_stringIcNS_11char_traitsIcEENS_9allocatorIcEEEEbxydS9_NS2_14adl_serializerENS5_IhNS9_IhEEEEvEESG_EC1B8ue170006ISG_SG_LPv0EEEOT_OT0_, symObjAddr: 0xE3C0, symBinAddr: 0x10001147C, symSize: 0x3C }
  - { offsetInCU: 0x411FC, offset: 0x411FC, size: 0x8, addend: 0x0, symName: __ZNSt3__118__unwrap_iter_implINS_11__wrap_iterIPN8nlohmann16json_abi_v3_12_010basic_jsonINS_3mapENS_6vectorENS_12basic_stringIcNS_11char_traitsIcEENS_9allocatorIcEEEEbxydSA_NS3_14adl_serializerENS6_IhNSA_IhEEEEvEEEELb1EE8__unwrapB8ue170006ESI_, symObjAddr: 0xE3FC, symBinAddr: 0x1000114B8, symSize: 0x28 }
  - { offsetInCU: 0x4122B, offset: 0x4122B, size: 0x8, addend: 0x0, symName: __ZNSt3__119__to_address_helperINS_11__wrap_iterIPN8nlohmann16json_abi_v3_12_010basic_jsonINS_3mapENS_6vectorENS_12basic_stringIcNS_11char_traitsIcEENS_9allocatorIcEEEEbxydSA_NS3_14adl_serializerENS6_IhNSA_IhEEEEvEEEEvE6__callB8ue170006ERKSI_, symObjAddr: 0xE448, symBinAddr: 0x100011504, symSize: 0x30 }
  - { offsetInCU: 0x4124E, offset: 0x4124E, size: 0x8, addend: 0x0, symName: __ZNSt3__114pointer_traitsINS_11__wrap_iterIPN8nlohmann16json_abi_v3_12_010basic_jsonINS_3mapENS_6vectorENS_12basic_stringIcNS_11char_traitsIcEENS_9allocatorIcEEEEbxydSA_NS3_14adl_serializerENS6_IhNSA_IhEEEEvEEEEE10to_addressB8ue170006ESI_, symObjAddr: 0xE478, symBinAddr: 0x100011534, symSize: 0x2C }
  - { offsetInCU: 0x41271, offset: 0x41271, size: 0x8, addend: 0x0, symName: __ZNKSt3__111__wrap_iterIPN8nlohmann16json_abi_v3_12_010basic_jsonINS_3mapENS_6vectorENS_12basic_stringIcNS_11char_traitsIcEENS_9allocatorIcEEEEbxydS9_NS2_14adl_serializerENS5_IhNS9_IhEEEEvEEE4baseB8ue170006Ev, symObjAddr: 0xE4A4, symBinAddr: 0x100011560, symSize: 0x18 }
  - { offsetInCU: 0x41297, offset: 0x41297, size: 0x8, addend: 0x0, symName: __ZNSt3__14pairIPN8nlohmann16json_abi_v3_12_010basic_jsonINS_3mapENS_6vectorENS_12basic_stringIcNS_11char_traitsIcEENS_9allocatorIcEEEEbxydS9_NS2_14adl_serializerENS5_IhNS9_IhEEEEvEESG_EC2B8ue170006ISG_SG_LPv0EEEOT_OT0_, symObjAddr: 0xE4BC, symBinAddr: 0x100011578, symSize: 0x34 }
  - { offsetInCU: 0x412F5, offset: 0x412F5, size: 0x8, addend: 0x0, symName: __ZNSt3__18_IterOpsINS_17_ClassicAlgPolicyEE11__iter_moveB8ue170006IRPN8nlohmann16json_abi_v3_12_010basic_jsonINS_3mapENS_6vectorENS_12basic_stringIcNS_11char_traitsIcEENS_9allocatorIcEEEEbxydSC_NS5_14adl_serializerENS8_IhNSC_IhEEEEvEEEENS_9enable_ifIXsr12is_referenceIDTdeclsr3stdE7declvalIRT_EEEEE5valueEDTclsr3stdE4movedeclsr3stdE7declvalISN_EEEEE4typeEOSM_, symObjAddr: 0xE4F0, symBinAddr: 0x1000115AC, symSize: 0x28 }
  - { offsetInCU: 0x41321, offset: 0x41321, size: 0x8, addend: 0x0, symName: __ZNSt3__120back_insert_iteratorINS_6vectorIN8nlohmann16json_abi_v3_12_010basic_jsonINS_3mapES1_NS_12basic_stringIcNS_11char_traitsIcEENS_9allocatorIcEEEEbxydS9_NS3_14adl_serializerENS1_IhNS9_IhEEEEvEENS9_ISF_EEEEEdeB8ue170006Ev, symObjAddr: 0xE518, symBinAddr: 0x1000115D4, symSize: 0x14 }
  - { offsetInCU: 0x41347, offset: 0x41347, size: 0x8, addend: 0x0, symName: __ZNSt3__120back_insert_iteratorINS_6vectorIN8nlohmann16json_abi_v3_12_010basic_jsonINS_3mapES1_NS_12basic_stringIcNS_11char_traitsIcEENS_9allocatorIcEEEEbxydS9_NS3_14adl_serializerENS1_IhNS9_IhEEEEvEENS9_ISF_EEEEEaSB8ue170006EOSF_, symObjAddr: 0xE52C, symBinAddr: 0x1000115E8, symSize: 0x38 }
  - { offsetInCU: 0x4137B, offset: 0x4137B, size: 0x8, addend: 0x0, symName: __ZNSt3__120back_insert_iteratorINS_6vectorIN8nlohmann16json_abi_v3_12_010basic_jsonINS_3mapES1_NS_12basic_stringIcNS_11char_traitsIcEENS_9allocatorIcEEEEbxydS9_NS3_14adl_serializerENS1_IhNS9_IhEEEEvEENS9_ISF_EEEEEppB8ue170006Ev, symObjAddr: 0xE564, symBinAddr: 0x100011620, symSize: 0x14 }
  - { offsetInCU: 0x413A1, offset: 0x413A1, size: 0x8, addend: 0x0, symName: __ZNSt3__18_IterOpsINS_17_ClassicAlgPolicyEE25__validate_iter_referenceB8ue170006IRPN8nlohmann16json_abi_v3_12_010basic_jsonINS_3mapENS_6vectorENS_12basic_stringIcNS_11char_traitsIcEENS_9allocatorIcEEEEbxydSC_NS5_14adl_serializerENS8_IhNSC_IhEEEEvEEEEvv, symObjAddr: 0xE5B0, symBinAddr: 0x10001166C, symSize: 0x4 }
  - { offsetInCU: 0x413C5, offset: 0x413C5, size: 0x8, addend: 0x0, symName: __ZNSt3__14pairIPN8nlohmann16json_abi_v3_12_010basic_jsonINS_3mapENS_6vectorENS_12basic_stringIcNS_11char_traitsIcEENS_9allocatorIcEEEEbxydS9_NS2_14adl_serializerENS5_IhNS9_IhEEEEvEENS_20back_insert_iteratorINS5_ISF_NS9_ISF_EEEEEEEC1B8ue170006ISG_SK_LPv0EEEOT_OT0_, symObjAddr: 0xE5B4, symBinAddr: 0x100011670, symSize: 0x3C }
  - { offsetInCU: 0x41423, offset: 0x41423, size: 0x8, addend: 0x0, symName: __ZNSt3__14pairIPN8nlohmann16json_abi_v3_12_010basic_jsonINS_3mapENS_6vectorENS_12basic_stringIcNS_11char_traitsIcEENS_9allocatorIcEEEEbxydS9_NS2_14adl_serializerENS5_IhNS9_IhEEEEvEENS_20back_insert_iteratorINS5_ISF_NS9_ISF_EEEEEEEC2B8ue170006ISG_SK_LPv0EEEOT_OT0_, symObjAddr: 0xE5F0, symBinAddr: 0x1000116AC, symSize: 0x34 }
  - { offsetInCU: 0x41481, offset: 0x41481, size: 0x8, addend: 0x0, symName: __ZNSt3__118__unwrap_iter_implINS_20back_insert_iteratorINS_6vectorIN8nlohmann16json_abi_v3_12_010basic_jsonINS_3mapES2_NS_12basic_stringIcNS_11char_traitsIcEENS_9allocatorIcEEEEbxydSA_NS4_14adl_serializerENS2_IhNSA_IhEEEEvEENSA_ISG_EEEEEELb0EE8__unwrapB8ue170006ESJ_, symObjAddr: 0xE624, symBinAddr: 0x1000116E0, symSize: 0x1C }
  - { offsetInCU: 0x414C7, offset: 0x414C7, size: 0x8, addend: 0x0, symName: __ZNSt3__14pairINS_11__wrap_iterIPN8nlohmann16json_abi_v3_12_010basic_jsonINS_3mapENS_6vectorENS_12basic_stringIcNS_11char_traitsIcEENS_9allocatorIcEEEEbxydSA_NS3_14adl_serializerENS6_IhNSA_IhEEEEvEEEENS_20back_insert_iteratorINS6_ISG_NSA_ISG_EEEEEEEC1B8ue170006ISI_SM_LPv0EEEOT_OT0_, symObjAddr: 0xE640, symBinAddr: 0x1000116FC, symSize: 0x3C }
  - { offsetInCU: 0x41525, offset: 0x41525, size: 0x8, addend: 0x0, symName: __ZNSt3__14pairINS_11__wrap_iterIPN8nlohmann16json_abi_v3_12_010basic_jsonINS_3mapENS_6vectorENS_12basic_stringIcNS_11char_traitsIcEENS_9allocatorIcEEEEbxydSA_NS3_14adl_serializerENS6_IhNSA_IhEEEEvEEEENS_20back_insert_iteratorINS6_ISG_NSA_ISG_EEEEEEEC2B8ue170006ISI_SM_LPv0EEEOT_OT0_, symObjAddr: 0xE67C, symBinAddr: 0x100011738, symSize: 0x34 }
  - { offsetInCU: 0x41583, offset: 0x41583, size: 0x8, addend: 0x0, symName: __ZNSt3__119__unwrap_range_implINS_11__wrap_iterIPN8nlohmann16json_abi_v3_12_010basic_jsonINS_3mapENS_6vectorENS_12basic_stringIcNS_11char_traitsIcEENS_9allocatorIcEEEEbxydSA_NS3_14adl_serializerENS6_IhNSA_IhEEEEvEEEESI_E8__rewrapB8ue170006ESI_SH_, symObjAddr: 0xE6B0, symBinAddr: 0x10001176C, symSize: 0x3C }
  - { offsetInCU: 0x415B4, offset: 0x415B4, size: 0x8, addend: 0x0, symName: __ZNSt3__118__unwrap_iter_implINS_11__wrap_iterIPN8nlohmann16json_abi_v3_12_010basic_jsonINS_3mapENS_6vectorENS_12basic_stringIcNS_11char_traitsIcEENS_9allocatorIcEEEEbxydSA_NS3_14adl_serializerENS6_IhNSA_IhEEEEvEEEELb1EE8__rewrapB8ue170006ESI_SH_, symObjAddr: 0xE738, symBinAddr: 0x1000117F4, symSize: 0x5C }
  - { offsetInCU: 0x415E5, offset: 0x415E5, size: 0x8, addend: 0x0, symName: __ZNKSt3__111__wrap_iterIPN8nlohmann16json_abi_v3_12_010basic_jsonINS_3mapENS_6vectorENS_12basic_stringIcNS_11char_traitsIcEENS_9allocatorIcEEEEbxydS9_NS2_14adl_serializerENS5_IhNS9_IhEEEEvEEEplB8ue170006El, symObjAddr: 0xE794, symBinAddr: 0x100011850, symSize: 0x3C }
  - { offsetInCU: 0x41627, offset: 0x41627, size: 0x8, addend: 0x0, symName: __ZNSt3__111__wrap_iterIPN8nlohmann16json_abi_v3_12_010basic_jsonINS_3mapENS_6vectorENS_12basic_stringIcNS_11char_traitsIcEENS_9allocatorIcEEEEbxydS9_NS2_14adl_serializerENS5_IhNS9_IhEEEEvEEEpLB8ue170006El, symObjAddr: 0xE7D0, symBinAddr: 0x10001188C, symSize: 0x28 }
  - { offsetInCU: 0x4165B, offset: 0x4165B, size: 0x8, addend: 0x0, symName: __ZNSt3__118__unwrap_iter_implINS_20back_insert_iteratorINS_6vectorIN8nlohmann16json_abi_v3_12_010basic_jsonINS_3mapES2_NS_12basic_stringIcNS_11char_traitsIcEENS_9allocatorIcEEEEbxydSA_NS4_14adl_serializerENS2_IhNSA_IhEEEEvEENSA_ISG_EEEEEELb0EE8__rewrapB8ue170006ESJ_SJ_, symObjAddr: 0xE7F8, symBinAddr: 0x1000118B4, symSize: 0x20 }
  - { offsetInCU: 0x41689, offset: 0x41689, size: 0x8, addend: 0x0, symName: __ZNSt3__16vectorIN8nlohmann16json_abi_v3_12_010basic_jsonINS_3mapES0_NS_12basic_stringIcNS_11char_traitsIcEENS_9allocatorIcEEEEbxydS8_NS2_14adl_serializerENS0_IhNS8_IhEEEEvEENS8_ISE_EEE11__make_iterB8ue170006EPSE_, symObjAddr: 0xE818, symBinAddr: 0x1000118D4, symSize: 0x30 }
  - { offsetInCU: 0x416BF, offset: 0x416BF, size: 0x8, addend: 0x0, symName: __ZNSt3__111__wrap_iterIPN8nlohmann16json_abi_v3_12_010basic_jsonINS_3mapENS_6vectorENS_12basic_stringIcNS_11char_traitsIcEENS_9allocatorIcEEEEbxydS9_NS2_14adl_serializerENS5_IhNS9_IhEEEEvEEEC1B8ue170006ESG_, symObjAddr: 0xE848, symBinAddr: 0x100011904, symSize: 0x34 }
  - { offsetInCU: 0x416F7, offset: 0x416F7, size: 0x8, addend: 0x0, symName: __ZNSt3__111__wrap_iterIPN8nlohmann16json_abi_v3_12_010basic_jsonINS_3mapENS_6vectorENS_12basic_stringIcNS_11char_traitsIcEENS_9allocatorIcEEEEbxydS9_NS2_14adl_serializerENS5_IhNS9_IhEEEEvEEEC2B8ue170006ESG_, symObjAddr: 0xE87C, symBinAddr: 0x100011938, symSize: 0x20 }
  - { offsetInCU: 0x4172F, offset: 0x4172F, size: 0x8, addend: 0x0, symName: __ZNSt3__120back_insert_iteratorINS_6vectorIN8nlohmann16json_abi_v3_12_010basic_jsonINS_3mapES1_NS_12basic_stringIcNS_11char_traitsIcEENS_9allocatorIcEEEEbxydS9_NS3_14adl_serializerENS1_IhNS9_IhEEEEvEENS9_ISF_EEEEEC1B8ue170006ERSH_, symObjAddr: 0xE89C, symBinAddr: 0x100011958, symSize: 0x34 }
  - { offsetInCU: 0x41767, offset: 0x41767, size: 0x8, addend: 0x0, symName: __ZNSt3__120back_insert_iteratorINS_6vectorIN8nlohmann16json_abi_v3_12_010basic_jsonINS_3mapES1_NS_12basic_stringIcNS_11char_traitsIcEENS_9allocatorIcEEEEbxydS9_NS3_14adl_serializerENS1_IhNS9_IhEEEEvEENS9_ISF_EEEEEC2B8ue170006ERSH_, symObjAddr: 0xE8D0, symBinAddr: 0x10001198C, symSize: 0x20 }
  - { offsetInCU: 0x4179F, offset: 0x4179F, size: 0x8, addend: 0x0, symName: __ZNKSt3__16__treeINS_12__value_typeINS_12basic_stringIcNS_11char_traitsIcEENS_9allocatorIcEEEEN8nlohmann16json_abi_v3_12_010basic_jsonINS_3mapENS_6vectorES7_bxydS5_NS9_14adl_serializerENSC_IhNS5_IhEEEEvEEEENS_19__map_value_compareIS7_SH_NS_4lessIvEELb1EEENS5_ISH_EEE4sizeB8ue170006Ev, symObjAddr: 0xE8F0, symBinAddr: 0x1000119AC, symSize: 0x28 }
  - { offsetInCU: 0x417C5, offset: 0x417C5, size: 0x8, addend: 0x0, symName: __ZNKSt3__117__compressed_pairImNS_19__map_value_compareINS_12basic_stringIcNS_11char_traitsIcEENS_9allocatorIcEEEENS_12__value_typeIS7_N8nlohmann16json_abi_v3_12_010basic_jsonINS_3mapENS_6vectorES7_bxydS5_NSA_14adl_serializerENSD_IhNS5_IhEEEEvEEEENS_4lessIvEELb1EEEE5firstB8ue170006Ev, symObjAddr: 0xE918, symBinAddr: 0x1000119D4, symSize: 0x24 }
  - { offsetInCU: 0x417EB, offset: 0x417EB, size: 0x8, addend: 0x0, symName: __ZNKSt3__122__compressed_pair_elemImLi0ELb0EE5__getB8ue170006Ev, symObjAddr: 0xE93C, symBinAddr: 0x1000119F8, symSize: 0x14 }
  - { offsetInCU: 0x41811, offset: 0x41811, size: 0x8, addend: 0x0, symName: __ZNSt3__16__treeINS_12__value_typeINS_12basic_stringIcNS_11char_traitsIcEENS_9allocatorIcEEEEN8nlohmann16json_abi_v3_12_010basic_jsonINS_3mapENS_6vectorES7_bxydS5_NS9_14adl_serializerENSC_IhNS5_IhEEEEvEEEENS_19__map_value_compareIS7_SH_NS_4lessIvEELb1EEENS5_ISH_EEE5beginB8ue170006Ev, symObjAddr: 0xE950, symBinAddr: 0x100011A0C, symSize: 0x34 }
  - { offsetInCU: 0x41837, offset: 0x41837, size: 0x8, addend: 0x0, symName: __ZNSt3__114__map_iteratorINS_15__tree_iteratorINS_12__value_typeINS_12basic_stringIcNS_11char_traitsIcEENS_9allocatorIcEEEEN8nlohmann16json_abi_v3_12_010basic_jsonINS_3mapENS_6vectorES8_bxydS6_NSA_14adl_serializerENSD_IhNS6_IhEEEEvEEEEPNS_11__tree_nodeISI_PvEElEEEC1B8ue170006ESN_, symObjAddr: 0xE984, symBinAddr: 0x100011A40, symSize: 0x34 }
  - { offsetInCU: 0x41871, offset: 0x41871, size: 0x8, addend: 0x0, symName: __ZNSt3__16__treeINS_12__value_typeINS_12basic_stringIcNS_11char_traitsIcEENS_9allocatorIcEEEEN8nlohmann16json_abi_v3_12_010basic_jsonINS_3mapENS_6vectorES7_bxydS5_NS9_14adl_serializerENSC_IhNS5_IhEEEEvEEEENS_19__map_value_compareIS7_SH_NS_4lessIvEELb1EEENS5_ISH_EEE12__begin_nodeB8ue170006Ev, symObjAddr: 0xE9B8, symBinAddr: 0x100011A74, symSize: 0x14 }
  - { offsetInCU: 0x41897, offset: 0x41897, size: 0x8, addend: 0x0, symName: __ZNSt3__115__tree_iteratorINS_12__value_typeINS_12basic_stringIcNS_11char_traitsIcEENS_9allocatorIcEEEEN8nlohmann16json_abi_v3_12_010basic_jsonINS_3mapENS_6vectorES7_bxydS5_NS9_14adl_serializerENSC_IhNS5_IhEEEEvEEEEPNS_11__tree_nodeISH_PvEElEC1B8ue170006EPNS_15__tree_end_nodeIPNS_16__tree_node_baseISJ_EEEE, symObjAddr: 0xE9CC, symBinAddr: 0x100011A88, symSize: 0x34 }
  - { offsetInCU: 0x418D1, offset: 0x418D1, size: 0x8, addend: 0x0, symName: __ZNSt3__115__tree_iteratorINS_12__value_typeINS_12basic_stringIcNS_11char_traitsIcEENS_9allocatorIcEEEEN8nlohmann16json_abi_v3_12_010basic_jsonINS_3mapENS_6vectorES7_bxydS5_NS9_14adl_serializerENSC_IhNS5_IhEEEEvEEEEPNS_11__tree_nodeISH_PvEElEC2B8ue170006EPNS_15__tree_end_nodeIPNS_16__tree_node_baseISJ_EEEE, symObjAddr: 0xEA00, symBinAddr: 0x100011ABC, symSize: 0x20 }
  - { offsetInCU: 0x4190B, offset: 0x4190B, size: 0x8, addend: 0x0, symName: __ZNSt3__114__map_iteratorINS_15__tree_iteratorINS_12__value_typeINS_12basic_stringIcNS_11char_traitsIcEENS_9allocatorIcEEEEN8nlohmann16json_abi_v3_12_010basic_jsonINS_3mapENS_6vectorES8_bxydS6_NSA_14adl_serializerENSD_IhNS6_IhEEEEvEEEEPNS_11__tree_nodeISI_PvEElEEEC2B8ue170006ESN_, symObjAddr: 0xEA20, symBinAddr: 0x100011ADC, symSize: 0x20 }
  - { offsetInCU: 0x41945, offset: 0x41945, size: 0x8, addend: 0x0, symName: __ZNSt3__16__treeINS_12__value_typeINS_12basic_stringIcNS_11char_traitsIcEENS_9allocatorIcEEEEN8nlohmann16json_abi_v3_12_010basic_jsonINS_3mapENS_6vectorES7_bxydS5_NS9_14adl_serializerENSC_IhNS5_IhEEEEvEEEENS_19__map_value_compareIS7_SH_NS_4lessIvEELb1EEENS5_ISH_EEE3endB8ue170006Ev, symObjAddr: 0xEA40, symBinAddr: 0x100011AFC, symSize: 0x34 }
  - { offsetInCU: 0x4196B, offset: 0x4196B, size: 0x8, addend: 0x0, symName: __ZNSt3__16__treeINS_12__value_typeINS_12basic_stringIcNS_11char_traitsIcEENS_9allocatorIcEEEEN8nlohmann16json_abi_v3_12_010basic_jsonINS_3mapENS_6vectorES7_bxydS5_NS9_14adl_serializerENSC_IhNS5_IhEEEEvEEEENS_19__map_value_compareIS7_SH_NS_4lessIvEELb1EEENS5_ISH_EEE10__end_nodeB8ue170006Ev, symObjAddr: 0xEA74, symBinAddr: 0x100011B30, symSize: 0x2C }
  - { offsetInCU: 0x41991, offset: 0x41991, size: 0x8, addend: 0x0, symName: __ZNSt3__114pointer_traitsIPNS_15__tree_end_nodeIPNS_16__tree_node_baseIPvEEEEE10pointer_toB8ue170006ERS6_, symObjAddr: 0xEAA0, symBinAddr: 0x100011B5C, symSize: 0x14 }
  - { offsetInCU: 0x419B4, offset: 0x419B4, size: 0x8, addend: 0x0, symName: __ZNSt3__117__compressed_pairINS_15__tree_end_nodeIPNS_16__tree_node_baseIPvEEEENS_9allocatorINS_11__tree_nodeINS_12__value_typeINS_12basic_stringIcNS_11char_traitsIcEENS7_IcEEEEN8nlohmann16json_abi_v3_12_010basic_jsonINS_3mapENS_6vectorESE_bxydS7_NSG_14adl_serializerENSJ_IhNS7_IhEEEEvEEEES3_EEEEE5firstB8ue170006Ev, symObjAddr: 0xEAB4, symBinAddr: 0x100011B70, symSize: 0x24 }
  - { offsetInCU: 0x419DA, offset: 0x419DA, size: 0x8, addend: 0x0, symName: __ZNSt3__122__compressed_pair_elemINS_15__tree_end_nodeIPNS_16__tree_node_baseIPvEEEELi0ELb0EE5__getB8ue170006Ev, symObjAddr: 0xEAD8, symBinAddr: 0x100011B94, symSize: 0x14 }
  - { offsetInCU: 0x41A00, offset: 0x41A00, size: 0x8, addend: 0x0, symName: __ZNKSt3__115__tree_iteratorINS_12__value_typeINS_12basic_stringIcNS_11char_traitsIcEENS_9allocatorIcEEEEN8nlohmann16json_abi_v3_12_010basic_jsonINS_3mapENS_6vectorES7_bxydS5_NS9_14adl_serializerENSC_IhNS5_IhEEEEvEEEEPNS_11__tree_nodeISH_PvEElEptB8ue170006Ev, symObjAddr: 0xEB50, symBinAddr: 0x100011C0C, symSize: 0x2C }
  - { offsetInCU: 0x41A26, offset: 0x41A26, size: 0x8, addend: 0x0, symName: __ZNSt3__112__value_typeINS_12basic_stringIcNS_11char_traitsIcEENS_9allocatorIcEEEEN8nlohmann16json_abi_v3_12_010basic_jsonINS_3mapENS_6vectorES6_bxydS4_NS8_14adl_serializerENSB_IhNS4_IhEEEEvEEE11__get_valueB8ue170006Ev, symObjAddr: 0xEB7C, symBinAddr: 0x100011C38, symSize: 0x24 }
  - { offsetInCU: 0x41A4C, offset: 0x41A4C, size: 0x8, addend: 0x0, symName: __ZNSt3__114pointer_traitsIPNS_12__value_typeINS_12basic_stringIcNS_11char_traitsIcEENS_9allocatorIcEEEEN8nlohmann16json_abi_v3_12_010basic_jsonINS_3mapENS_6vectorES7_bxydS5_NS9_14adl_serializerENSC_IhNS5_IhEEEEvEEEEE10pointer_toB8ue170006ERSH_, symObjAddr: 0xEBA0, symBinAddr: 0x100011C5C, symSize: 0x14 }
  - { offsetInCU: 0x41A6F, offset: 0x41A6F, size: 0x8, addend: 0x0, symName: __ZNKSt3__115__tree_iteratorINS_12__value_typeINS_12basic_stringIcNS_11char_traitsIcEENS_9allocatorIcEEEEN8nlohmann16json_abi_v3_12_010basic_jsonINS_3mapENS_6vectorES7_bxydS5_NS9_14adl_serializerENSC_IhNS5_IhEEEEvEEEEPNS_11__tree_nodeISH_PvEElE8__get_npB8ue170006Ev, symObjAddr: 0xEBB4, symBinAddr: 0x100011C70, symSize: 0x18 }
  - { offsetInCU: 0x41A95, offset: 0x41A95, size: 0x8, addend: 0x0, symName: __ZNSt3__16vectorIN8nlohmann16json_abi_v3_12_010basic_jsonINS_3mapES0_NS_12basic_stringIcNS_11char_traitsIcEENS_9allocatorIcEEEEbxydS8_NS2_14adl_serializerENS0_IhNS8_IhEEEEvEENS8_ISE_EEE22__construct_one_at_endB8ue170006IJSE_EEEvDpOT_, symObjAddr: 0xEC04, symBinAddr: 0x100011CC0, symSize: 0x90 }
  - { offsetInCU: 0x41AE5, offset: 0x41AE5, size: 0x8, addend: 0x0, symName: __ZNSt3__16vectorIN8nlohmann16json_abi_v3_12_010basic_jsonINS_3mapES0_NS_12basic_stringIcNS_11char_traitsIcEENS_9allocatorIcEEEEbxydS8_NS2_14adl_serializerENS0_IhNS8_IhEEEEvEENS8_ISE_EEE21__push_back_slow_pathISE_EEvOT_, symObjAddr: 0xEC94, symBinAddr: 0x100011D50, symSize: 0xD8 }
  - { offsetInCU: 0x41B60, offset: 0x41B60, size: 0x8, addend: 0x0, symName: __ZNSt3__16vectorIN8nlohmann16json_abi_v3_12_010basic_jsonINS_3mapES0_NS_12basic_stringIcNS_11char_traitsIcEENS_9allocatorIcEEEEbxydS8_NS2_14adl_serializerENS0_IhNS8_IhEEEEvEENS8_ISE_EEE21_ConstructTransactionC1B8ue170006ERSG_m, symObjAddr: 0xED6C, symBinAddr: 0x100011E28, symSize: 0x3C }
  - { offsetInCU: 0x41BAA, offset: 0x41BAA, size: 0x8, addend: 0x0, symName: __ZNSt3__16vectorIN8nlohmann16json_abi_v3_12_010basic_jsonINS_3mapES0_NS_12basic_stringIcNS_11char_traitsIcEENS_9allocatorIcEEEEbxydS8_NS2_14adl_serializerENS0_IhNS8_IhEEEEvEENS8_ISE_EEE21_ConstructTransactionD1B8ue170006Ev, symObjAddr: 0xEDA8, symBinAddr: 0x100011E64, symSize: 0x2C }
  - { offsetInCU: 0x41BD4, offset: 0x41BD4, size: 0x8, addend: 0x0, symName: __ZNSt3__16vectorIN8nlohmann16json_abi_v3_12_010basic_jsonINS_3mapES0_NS_12basic_stringIcNS_11char_traitsIcEENS_9allocatorIcEEEEbxydS8_NS2_14adl_serializerENS0_IhNS8_IhEEEEvEENS8_ISE_EEE21_ConstructTransactionC2B8ue170006ERSG_m, symObjAddr: 0xEDD4, symBinAddr: 0x100011E90, symSize: 0x44 }
  - { offsetInCU: 0x41C1E, offset: 0x41C1E, size: 0x8, addend: 0x0, symName: __ZNSt3__16vectorIN8nlohmann16json_abi_v3_12_010basic_jsonINS_3mapES0_NS_12basic_stringIcNS_11char_traitsIcEENS_9allocatorIcEEEEbxydS8_NS2_14adl_serializerENS0_IhNS8_IhEEEEvEENS8_ISE_EEE21_ConstructTransactionD2B8ue170006Ev, symObjAddr: 0xEE18, symBinAddr: 0x100011ED4, symSize: 0x20 }
  - { offsetInCU: 0x41C48, offset: 0x41C48, size: 0x8, addend: 0x0, symName: __ZNKSt3__16vectorIN8nlohmann16json_abi_v3_12_010basic_jsonINS_3mapES0_NS_12basic_stringIcNS_11char_traitsIcEENS_9allocatorIcEEEEbxydS8_NS2_14adl_serializerENS0_IhNS8_IhEEEEvEENS8_ISE_EEE11__recommendB8ue170006Em, symObjAddr: 0xEE38, symBinAddr: 0x100011EF4, symSize: 0xB4 }
  - { offsetInCU: 0x41C9E, offset: 0x41C9E, size: 0x8, addend: 0x0, symName: __ZNSt3__115__tree_iteratorINS_12__value_typeINS_12basic_stringIcNS_11char_traitsIcEENS_9allocatorIcEEEEN8nlohmann16json_abi_v3_12_010basic_jsonINS_3mapENS_6vectorES7_bxydS5_NS9_14adl_serializerENSC_IhNS5_IhEEEEvEEEEPNS_11__tree_nodeISH_PvEElEppB8ue170006Ev, symObjAddr: 0xEEEC, symBinAddr: 0x100011FA8, symSize: 0x38 }
  - { offsetInCU: 0x41CC4, offset: 0x41CC4, size: 0x8, addend: 0x0, symName: __ZNKSt3__116__tree_node_baseIPvE15__parent_unsafeB8ue170006Ev, symObjAddr: 0xF020, symBinAddr: 0x1000120DC, symSize: 0x18 }
  - { offsetInCU: 0x41CEA, offset: 0x41CEA, size: 0x8, addend: 0x0, symName: __ZN8nlohmann16json_abi_v3_12_010basic_jsonINSt3__13mapENS2_6vectorENS2_12basic_stringIcNS2_11char_traitsIcEENS2_9allocatorIcEEEEbxydS8_NS0_14adl_serializerENS4_IhNS8_IhEEEEvEC2EOSE_, symObjAddr: 0xF038, symBinAddr: 0x1000120F4, symSize: 0x80 }
  - { offsetInCU: 0x41D24, offset: 0x41D24, size: 0x8, addend: 0x0, symName: __ZN8nlohmann16json_abi_v3_12_010basic_jsonINSt3__13mapENS2_6vectorENS2_12basic_stringIcNS2_11char_traitsIcEENS2_9allocatorIcEEEEbxydS8_NS0_14adl_serializerENS4_IhNS8_IhEEEEvE11set_parentsEv, symObjAddr: 0xF0B8, symBinAddr: 0x100012174, symSize: 0x10 }
  - { offsetInCU: 0x41D4A, offset: 0x41D4A, size: 0x8, addend: 0x0, symName: __ZNSt3__16vectorIN8nlohmann16json_abi_v3_12_010basic_jsonINS_3mapES0_NS_12basic_stringIcNS_11char_traitsIcEENS_9allocatorIcEEEEbxydS8_NS2_14adl_serializerENS0_IhNS8_IhEEEEvEENS8_ISE_EEE17__destruct_at_endB8ue170006EPSE_, symObjAddr: 0xF0C8, symBinAddr: 0x100012184, symSize: 0x4C }
  - { offsetInCU: 0x41D8F, offset: 0x41D8F, size: 0x8, addend: 0x0, symName: __ZNSt3__16vectorIN8nlohmann16json_abi_v3_12_010basic_jsonINS_3mapES0_NS_12basic_stringIcNS_11char_traitsIcEENS_9allocatorIcEEEEbxydS8_NS2_14adl_serializerENS0_IhNS8_IhEEEEvEENS8_ISE_EEE22__base_destruct_at_endB8ue170006EPSE_, symObjAddr: 0xF114, symBinAddr: 0x1000121D0, symSize: 0x8C }
  - { offsetInCU: 0x41DD4, offset: 0x41DD4, size: 0x8, addend: 0x0, symName: __ZNKSt3__16vectorIN8nlohmann16json_abi_v3_12_010basic_jsonINS_3mapES0_NS_12basic_stringIcNS_11char_traitsIcEENS_9allocatorIcEEEEbxydS8_NS2_14adl_serializerENS0_IhNS8_IhEEEEvEENS8_ISE_EEE17__annotate_shrinkB8ue170006Em, symObjAddr: 0xF1A0, symBinAddr: 0x10001225C, symSize: 0xB4 }
  - { offsetInCU: 0x41E0A, offset: 0x41E0A, size: 0x8, addend: 0x0, symName: __ZNSt3__16vectorIN8nlohmann16json_abi_v3_12_010basic_jsonINS_3mapES0_NS_12basic_stringIcNS_11char_traitsIcEENS_9allocatorIcEEEEbxydS8_NS2_14adl_serializerENS0_IhNS8_IhEEEEvEENS8_ISE_EEE7__clearB8ue170006Ev, symObjAddr: 0xF254, symBinAddr: 0x100012310, symSize: 0x28 }
  - { offsetInCU: 0x41E30, offset: 0x41E30, size: 0x8, addend: 0x0, symName: __ZNSt3__16__treeINS_12__value_typeINS_12basic_stringIcNS_11char_traitsIcEENS_9allocatorIcEEEEN8nlohmann16json_abi_v3_12_010basic_jsonINS_3mapENS_6vectorES7_bxydS5_NS9_14adl_serializerENSC_IhNS5_IhEEEEvEEEENS_19__map_value_compareIS7_SH_NS_4lessIvEELb1EEENS5_ISH_EEE5clearEv, symObjAddr: 0xF27C, symBinAddr: 0x100012338, symSize: 0x74 }
  - { offsetInCU: 0x41E58, offset: 0x41E58, size: 0x8, addend: 0x0, symName: __ZNSt3__16__treeINS_12__value_typeINS_12basic_stringIcNS_11char_traitsIcEENS_9allocatorIcEEEEN8nlohmann16json_abi_v3_12_010basic_jsonINS_3mapENS_6vectorES7_bxydS5_NS9_14adl_serializerENSC_IhNS5_IhEEEEvEEEENS_19__map_value_compareIS7_SH_NS_4lessIvEELb1EEENS5_ISH_EEE7destroyEPNS_11__tree_nodeISH_PvEE, symObjAddr: 0xF2F0, symBinAddr: 0x1000123AC, symSize: 0xAC }
  - { offsetInCU: 0x41EA5, offset: 0x41EA5, size: 0x8, addend: 0x0, symName: __ZNKSt3__16__treeINS_12__value_typeINS_12basic_stringIcNS_11char_traitsIcEENS_9allocatorIcEEEEN8nlohmann16json_abi_v3_12_010basic_jsonINS_3mapENS_6vectorES7_bxydS5_NS9_14adl_serializerENSC_IhNS5_IhEEEEvEEEENS_19__map_value_compareIS7_SH_NS_4lessIvEELb1EEENS5_ISH_EEE6__rootB8ue170006Ev, symObjAddr: 0xF39C, symBinAddr: 0x100012458, symSize: 0x28 }
  - { offsetInCU: 0x41ECB, offset: 0x41ECB, size: 0x8, addend: 0x0, symName: __ZNSt3__16__treeINS_12__value_typeINS_12basic_stringIcNS_11char_traitsIcEENS_9allocatorIcEEEEN8nlohmann16json_abi_v3_12_010basic_jsonINS_3mapENS_6vectorES7_bxydS5_NS9_14adl_serializerENSC_IhNS5_IhEEEEvEEEENS_19__map_value_compareIS7_SH_NS_4lessIvEELb1EEENS5_ISH_EEE4sizeB8ue170006Ev, symObjAddr: 0xF3C4, symBinAddr: 0x100012480, symSize: 0x28 }
  - { offsetInCU: 0x41EF1, offset: 0x41EF1, size: 0x8, addend: 0x0, symName: __ZNSt3__16__treeINS_12__value_typeINS_12basic_stringIcNS_11char_traitsIcEENS_9allocatorIcEEEEN8nlohmann16json_abi_v3_12_010basic_jsonINS_3mapENS_6vectorES7_bxydS5_NS9_14adl_serializerENSC_IhNS5_IhEEEEvEEEENS_19__map_value_compareIS7_SH_NS_4lessIvEELb1EEENS5_ISH_EEE12__node_allocB8ue170006Ev, symObjAddr: 0xF3EC, symBinAddr: 0x1000124A8, symSize: 0x28 }
  - { offsetInCU: 0x41F17, offset: 0x41F17, size: 0x8, addend: 0x0, symName: __ZNSt3__116allocator_traitsINS_9allocatorINS_11__tree_nodeINS_12__value_typeINS_12basic_stringIcNS_11char_traitsIcEENS1_IcEEEEN8nlohmann16json_abi_v3_12_010basic_jsonINS_3mapENS_6vectorES8_bxydS1_NSA_14adl_serializerENSD_IhNS1_IhEEEEvEEEEPvEEEEE7destroyB8ue170006INS_4pairIKS8_SH_EEvvEEvRSL_PT_, symObjAddr: 0xF414, symBinAddr: 0x1000124D0, symSize: 0x28 }
  - { offsetInCU: 0x41F53, offset: 0x41F53, size: 0x8, addend: 0x0, symName: __ZNSt3__122__tree_key_value_typesINS_12__value_typeINS_12basic_stringIcNS_11char_traitsIcEENS_9allocatorIcEEEEN8nlohmann16json_abi_v3_12_010basic_jsonINS_3mapENS_6vectorES7_bxydS5_NS9_14adl_serializerENSC_IhNS5_IhEEEEvEEEEE9__get_ptrB8ue170006ERSH_, symObjAddr: 0xF43C, symBinAddr: 0x1000124F8, symSize: 0x24 }
  - { offsetInCU: 0x41F78, offset: 0x41F78, size: 0x8, addend: 0x0, symName: __ZNSt3__116allocator_traitsINS_9allocatorINS_11__tree_nodeINS_12__value_typeINS_12basic_stringIcNS_11char_traitsIcEENS1_IcEEEEN8nlohmann16json_abi_v3_12_010basic_jsonINS_3mapENS_6vectorES8_bxydS1_NSA_14adl_serializerENSD_IhNS1_IhEEEEvEEEEPvEEEEE10deallocateB8ue170006ERSL_PSK_m, symObjAddr: 0xF460, symBinAddr: 0x10001251C, symSize: 0x34 }
  - { offsetInCU: 0x41FBD, offset: 0x41FBD, size: 0x8, addend: 0x0, symName: __ZNSt3__117__compressed_pairINS_15__tree_end_nodeIPNS_16__tree_node_baseIPvEEEENS_9allocatorINS_11__tree_nodeINS_12__value_typeINS_12basic_stringIcNS_11char_traitsIcEENS7_IcEEEEN8nlohmann16json_abi_v3_12_010basic_jsonINS_3mapENS_6vectorESE_bxydS7_NSG_14adl_serializerENSJ_IhNS7_IhEEEEvEEEES3_EEEEE6secondB8ue170006Ev, symObjAddr: 0xF494, symBinAddr: 0x100012550, symSize: 0x24 }
  - { offsetInCU: 0x41FE3, offset: 0x41FE3, size: 0x8, addend: 0x0, symName: __ZNSt3__122__compressed_pair_elemINS_9allocatorINS_11__tree_nodeINS_12__value_typeINS_12basic_stringIcNS_11char_traitsIcEENS1_IcEEEEN8nlohmann16json_abi_v3_12_010basic_jsonINS_3mapENS_6vectorES8_bxydS1_NSA_14adl_serializerENSD_IhNS1_IhEEEEvEEEEPvEEEELi1ELb1EE5__getB8ue170006Ev, symObjAddr: 0xF4B8, symBinAddr: 0x100012574, symSize: 0x14 }
  - { offsetInCU: 0x42009, offset: 0x42009, size: 0x8, addend: 0x0, symName: __ZNSt3__14pairIKNS_12basic_stringIcNS_11char_traitsIcEENS_9allocatorIcEEEEN8nlohmann16json_abi_v3_12_010basic_jsonINS_3mapENS_6vectorES6_bxydS4_NS9_14adl_serializerENSC_IhNS4_IhEEEEvEEED1Ev, symObjAddr: 0xF514, symBinAddr: 0x1000125D0, symSize: 0x2C }
  - { offsetInCU: 0x42035, offset: 0x42035, size: 0x8, addend: 0x0, symName: __ZNSt3__14pairIKNS_12basic_stringIcNS_11char_traitsIcEENS_9allocatorIcEEEEN8nlohmann16json_abi_v3_12_010basic_jsonINS_3mapENS_6vectorES6_bxydS4_NS9_14adl_serializerENSC_IhNS4_IhEEEEvEEED2Ev, symObjAddr: 0xF540, symBinAddr: 0x1000125FC, symSize: 0x38 }
  - { offsetInCU: 0x42061, offset: 0x42061, size: 0x8, addend: 0x0, symName: __ZNSt3__19allocatorINS_11__tree_nodeINS_12__value_typeINS_12basic_stringIcNS_11char_traitsIcEENS0_IcEEEEN8nlohmann16json_abi_v3_12_010basic_jsonINS_3mapENS_6vectorES7_bxydS0_NS9_14adl_serializerENSC_IhNS0_IhEEEEvEEEEPvEEE10deallocateB8ue170006EPSJ_m, symObjAddr: 0xF578, symBinAddr: 0x100012634, symSize: 0x44 }
  - { offsetInCU: 0x420A3, offset: 0x420A3, size: 0x8, addend: 0x0, symName: __ZNKSt3__16__treeINS_12__value_typeINS_12basic_stringIcNS_11char_traitsIcEENS_9allocatorIcEEEEN8nlohmann16json_abi_v3_12_010basic_jsonINS_3mapENS_6vectorES7_bxydS5_NS9_14adl_serializerENSC_IhNS5_IhEEEEvEEEENS_19__map_value_compareIS7_SH_NS_4lessIvEELb1EEENS5_ISH_EEE10__end_nodeB8ue170006Ev, symObjAddr: 0xF5BC, symBinAddr: 0x100012678, symSize: 0x2C }
  - { offsetInCU: 0x420C9, offset: 0x420C9, size: 0x8, addend: 0x0, symName: __ZNKSt3__117__compressed_pairINS_15__tree_end_nodeIPNS_16__tree_node_baseIPvEEEENS_9allocatorINS_11__tree_nodeINS_12__value_typeINS_12basic_stringIcNS_11char_traitsIcEENS7_IcEEEEN8nlohmann16json_abi_v3_12_010basic_jsonINS_3mapENS_6vectorESE_bxydS7_NSG_14adl_serializerENSJ_IhNS7_IhEEEEvEEEES3_EEEEE5firstB8ue170006Ev, symObjAddr: 0xF5E8, symBinAddr: 0x1000126A4, symSize: 0x24 }
  - { offsetInCU: 0x420EF, offset: 0x420EF, size: 0x8, addend: 0x0, symName: __ZNKSt3__122__compressed_pair_elemINS_15__tree_end_nodeIPNS_16__tree_node_baseIPvEEEELi0ELb0EE5__getB8ue170006Ev, symObjAddr: 0xF60C, symBinAddr: 0x1000126C8, symSize: 0x14 }
  - { offsetInCU: 0x42115, offset: 0x42115, size: 0x8, addend: 0x0, symName: __ZNSt3__117__compressed_pairImNS_19__map_value_compareINS_12basic_stringIcNS_11char_traitsIcEENS_9allocatorIcEEEENS_12__value_typeIS7_N8nlohmann16json_abi_v3_12_010basic_jsonINS_3mapENS_6vectorES7_bxydS5_NSA_14adl_serializerENSD_IhNS5_IhEEEEvEEEENS_4lessIvEELb1EEEE5firstB8ue170006Ev, symObjAddr: 0xF620, symBinAddr: 0x1000126DC, symSize: 0x24 }
  - { offsetInCU: 0x4213B, offset: 0x4213B, size: 0x8, addend: 0x0, symName: __ZNSt3__122__compressed_pair_elemImLi0ELb0EE5__getB8ue170006Ev, symObjAddr: 0xF644, symBinAddr: 0x100012700, symSize: 0x14 }
  - { offsetInCU: 0x42161, offset: 0x42161, size: 0x8, addend: 0x0, symName: __ZNSt3__16vectorIN8nlohmann16json_abi_v3_12_010basic_jsonINS_3mapES0_NS_12basic_stringIcNS_11char_traitsIcEENS_9allocatorIcEEEEbxydS8_NS2_14adl_serializerENS0_IhNS8_IhEEEEvEENS8_ISE_EEED2B8ue170006Ev, symObjAddr: 0xF658, symBinAddr: 0x100012714, symSize: 0x44 }
  - { offsetInCU: 0x4218B, offset: 0x4218B, size: 0x8, addend: 0x0, symName: __ZNSt3__16vectorIN8nlohmann16json_abi_v3_12_010basic_jsonINS_3mapES0_NS_12basic_stringIcNS_11char_traitsIcEENS_9allocatorIcEEEEbxydS8_NS2_14adl_serializerENS0_IhNS8_IhEEEEvEENS8_ISE_EEE16__destroy_vectorC1B8ue170006ERSG_, symObjAddr: 0xF69C, symBinAddr: 0x100012758, symSize: 0x34 }
  - { offsetInCU: 0x421C5, offset: 0x421C5, size: 0x8, addend: 0x0, symName: __ZNSt3__16vectorIN8nlohmann16json_abi_v3_12_010basic_jsonINS_3mapES0_NS_12basic_stringIcNS_11char_traitsIcEENS_9allocatorIcEEEEbxydS8_NS2_14adl_serializerENS0_IhNS8_IhEEEEvEENS8_ISE_EEE16__destroy_vectorclB8ue170006Ev, symObjAddr: 0xF6D0, symBinAddr: 0x10001278C, symSize: 0x90 }
  - { offsetInCU: 0x421EB, offset: 0x421EB, size: 0x8, addend: 0x0, symName: __ZNSt3__16vectorIN8nlohmann16json_abi_v3_12_010basic_jsonINS_3mapES0_NS_12basic_stringIcNS_11char_traitsIcEENS_9allocatorIcEEEEbxydS8_NS2_14adl_serializerENS0_IhNS8_IhEEEEvEENS8_ISE_EEE16__destroy_vectorC2B8ue170006ERSG_, symObjAddr: 0xF760, symBinAddr: 0x10001281C, symSize: 0x20 }
  - { offsetInCU: 0x42225, offset: 0x42225, size: 0x8, addend: 0x0, symName: __ZNSt3__19allocatorINS_3mapINS_12basic_stringIcNS_11char_traitsIcEENS0_IcEEEEN8nlohmann16json_abi_v3_12_010basic_jsonIS1_NS_6vectorES6_bxydS0_NS8_14adl_serializerENSA_IhNS0_IhEEEEvEENS_4lessIvEENS0_INS_4pairIKS6_SE_EEEEEEEC2B8ue170006Ev, symObjAddr: 0xF780, symBinAddr: 0x10001283C, symSize: 0x2C }
  - { offsetInCU: 0x4224F, offset: 0x4224F, size: 0x8, addend: 0x0, symName: __ZNSt3__116__non_trivial_ifILb1ENS_9allocatorINS_3mapINS_12basic_stringIcNS_11char_traitsIcEENS1_IcEEEEN8nlohmann16json_abi_v3_12_010basic_jsonIS2_NS_6vectorES7_bxydS1_NS9_14adl_serializerENSB_IhNS1_IhEEEEvEENS_4lessIvEENS1_INS_4pairIKS7_SF_EEEEEEEEEC2B8ue170006Ev, symObjAddr: 0xF7AC, symBinAddr: 0x100012868, symSize: 0x14 }
  - { offsetInCU: 0x42279, offset: 0x42279, size: 0x8, addend: 0x0, symName: __ZNSt3__13mapINS_12basic_stringIcNS_11char_traitsIcEENS_9allocatorIcEEEEN8nlohmann16json_abi_v3_12_010basic_jsonIS0_NS_6vectorES6_bxydS4_NS8_14adl_serializerENSA_IhNS4_IhEEEEvEENS_4lessIvEENS4_INS_4pairIKS6_SE_EEEEED1B8ue170006Ev, symObjAddr: 0xF808, symBinAddr: 0x1000128C4, symSize: 0x2C }
  - { offsetInCU: 0x422A3, offset: 0x422A3, size: 0x8, addend: 0x0, symName: __ZNSt3__13mapINS_12basic_stringIcNS_11char_traitsIcEENS_9allocatorIcEEEEN8nlohmann16json_abi_v3_12_010basic_jsonIS0_NS_6vectorES6_bxydS4_NS8_14adl_serializerENSA_IhNS4_IhEEEEvEENS_4lessIvEENS4_INS_4pairIKS6_SE_EEEEED2B8ue170006Ev, symObjAddr: 0xF834, symBinAddr: 0x1000128F0, symSize: 0x2C }
  - { offsetInCU: 0x422CD, offset: 0x422CD, size: 0x8, addend: 0x0, symName: __ZNSt3__16__treeINS_12__value_typeINS_12basic_stringIcNS_11char_traitsIcEENS_9allocatorIcEEEEN8nlohmann16json_abi_v3_12_010basic_jsonINS_3mapENS_6vectorES7_bxydS5_NS9_14adl_serializerENSC_IhNS5_IhEEEEvEEEENS_19__map_value_compareIS7_SH_NS_4lessIvEELb1EEENS5_ISH_EEED1Ev, symObjAddr: 0xF860, symBinAddr: 0x10001291C, symSize: 0x2C }
  - { offsetInCU: 0x422F9, offset: 0x422F9, size: 0x8, addend: 0x0, symName: __ZNSt3__16__treeINS_12__value_typeINS_12basic_stringIcNS_11char_traitsIcEENS_9allocatorIcEEEEN8nlohmann16json_abi_v3_12_010basic_jsonINS_3mapENS_6vectorES7_bxydS5_NS9_14adl_serializerENSC_IhNS5_IhEEEEvEEEENS_19__map_value_compareIS7_SH_NS_4lessIvEELb1EEENS5_ISH_EEED2Ev, symObjAddr: 0xF88C, symBinAddr: 0x100012948, symSize: 0x38 }
  - { offsetInCU: 0x42325, offset: 0x42325, size: 0x8, addend: 0x0, symName: __ZNSt3__19allocatorINS_3mapINS_12basic_stringIcNS_11char_traitsIcEENS0_IcEEEEN8nlohmann16json_abi_v3_12_010basic_jsonIS1_NS_6vectorES6_bxydS0_NS8_14adl_serializerENSA_IhNS0_IhEEEEvEENS_4lessIvEENS0_INS_4pairIKS6_SE_EEEEEEE10deallocateB8ue170006EPSL_m, symObjAddr: 0xF8C4, symBinAddr: 0x100012980, symSize: 0x44 }
  - { offsetInCU: 0x42367, offset: 0x42367, size: 0x8, addend: 0x0, symName: __ZNSt3__19allocatorINS_6vectorIN8nlohmann16json_abi_v3_12_010basic_jsonINS_3mapES1_NS_12basic_stringIcNS_11char_traitsIcEENS0_IcEEEEbxydS0_NS3_14adl_serializerENS1_IhNS0_IhEEEEvEENS0_ISE_EEEEEC2B8ue170006Ev, symObjAddr: 0xF908, symBinAddr: 0x1000129C4, symSize: 0x2C }
  - { offsetInCU: 0x42391, offset: 0x42391, size: 0x8, addend: 0x0, symName: __ZNSt3__116__non_trivial_ifILb1ENS_9allocatorINS_6vectorIN8nlohmann16json_abi_v3_12_010basic_jsonINS_3mapES2_NS_12basic_stringIcNS_11char_traitsIcEENS1_IcEEEEbxydS1_NS4_14adl_serializerENS2_IhNS1_IhEEEEvEENS1_ISF_EEEEEEEC2B8ue170006Ev, symObjAddr: 0xF934, symBinAddr: 0x1000129F0, symSize: 0x14 }
  - { offsetInCU: 0x423BB, offset: 0x423BB, size: 0x8, addend: 0x0, symName: __ZNSt3__19allocatorINS_6vectorIN8nlohmann16json_abi_v3_12_010basic_jsonINS_3mapES1_NS_12basic_stringIcNS_11char_traitsIcEENS0_IcEEEEbxydS0_NS3_14adl_serializerENS1_IhNS0_IhEEEEvEENS0_ISE_EEEEE10deallocateB8ue170006EPSG_m, symObjAddr: 0xF990, symBinAddr: 0x100012A4C, symSize: 0x44 }
  - { offsetInCU: 0x423FD, offset: 0x423FD, size: 0x8, addend: 0x0, symName: __ZNSt3__19allocatorINS_12basic_stringIcNS_11char_traitsIcEENS0_IcEEEEEC2B8ue170006Ev, symObjAddr: 0xF9D4, symBinAddr: 0x100012A90, symSize: 0x2C }
  - { offsetInCU: 0x42427, offset: 0x42427, size: 0x8, addend: 0x0, symName: __ZNSt3__116__non_trivial_ifILb1ENS_9allocatorINS_12basic_stringIcNS_11char_traitsIcEENS1_IcEEEEEEEC2B8ue170006Ev, symObjAddr: 0xFA00, symBinAddr: 0x100012ABC, symSize: 0x14 }
  - { offsetInCU: 0x42451, offset: 0x42451, size: 0x8, addend: 0x0, symName: __ZNSt3__19allocatorINS_12basic_stringIcNS_11char_traitsIcEENS0_IcEEEEE10deallocateB8ue170006EPS5_m, symObjAddr: 0xFA5C, symBinAddr: 0x100012B18, symSize: 0x44 }
  - { offsetInCU: 0x42493, offset: 0x42493, size: 0x8, addend: 0x0, symName: __ZNSt3__19allocatorIN8nlohmann16json_abi_v3_12_027byte_container_with_subtypeINS_6vectorIhNS0_IhEEEEEEEC2B8ue170006Ev, symObjAddr: 0xFAA0, symBinAddr: 0x100012B5C, symSize: 0x2C }
  - { offsetInCU: 0x424BD, offset: 0x424BD, size: 0x8, addend: 0x0, symName: __ZNSt3__116__non_trivial_ifILb1ENS_9allocatorIN8nlohmann16json_abi_v3_12_027byte_container_with_subtypeINS_6vectorIhNS1_IhEEEEEEEEEC2B8ue170006Ev, symObjAddr: 0xFACC, symBinAddr: 0x100012B88, symSize: 0x14 }
  - { offsetInCU: 0x424E7, offset: 0x424E7, size: 0x8, addend: 0x0, symName: __ZN8nlohmann16json_abi_v3_12_027byte_container_with_subtypeINSt3__16vectorIhNS2_9allocatorIhEEEEED1Ev, symObjAddr: 0xFB28, symBinAddr: 0x100012BE4, symSize: 0x2C }
  - { offsetInCU: 0x42514, offset: 0x42514, size: 0x8, addend: 0x0, symName: __ZN8nlohmann16json_abi_v3_12_027byte_container_with_subtypeINSt3__16vectorIhNS2_9allocatorIhEEEEED2Ev, symObjAddr: 0xFB54, symBinAddr: 0x100012C10, symSize: 0x2C }
  - { offsetInCU: 0x42541, offset: 0x42541, size: 0x8, addend: 0x0, symName: __ZNSt3__16vectorIhNS_9allocatorIhEEED2B8ue170006Ev, symObjAddr: 0xFB80, symBinAddr: 0x100012C3C, symSize: 0x44 }
  - { offsetInCU: 0x4256B, offset: 0x4256B, size: 0x8, addend: 0x0, symName: __ZNSt3__16vectorIhNS_9allocatorIhEEE16__destroy_vectorC1B8ue170006ERS3_, symObjAddr: 0xFBC4, symBinAddr: 0x100012C80, symSize: 0x34 }
  - { offsetInCU: 0x425A5, offset: 0x425A5, size: 0x8, addend: 0x0, symName: __ZNSt3__16vectorIhNS_9allocatorIhEEE16__destroy_vectorclB8ue170006Ev, symObjAddr: 0xFBF8, symBinAddr: 0x100012CB4, symSize: 0x90 }
  - { offsetInCU: 0x425CB, offset: 0x425CB, size: 0x8, addend: 0x0, symName: __ZNSt3__16vectorIhNS_9allocatorIhEEE16__destroy_vectorC2B8ue170006ERS3_, symObjAddr: 0xFC88, symBinAddr: 0x100012D44, symSize: 0x20 }
  - { offsetInCU: 0x42605, offset: 0x42605, size: 0x8, addend: 0x0, symName: __ZNSt3__16vectorIhNS_9allocatorIhEEE7__clearB8ue170006Ev, symObjAddr: 0xFCA8, symBinAddr: 0x100012D64, symSize: 0x28 }
  - { offsetInCU: 0x4262B, offset: 0x4262B, size: 0x8, addend: 0x0, symName: __ZNKSt3__16vectorIhNS_9allocatorIhEEE17__annotate_deleteB8ue170006Ev, symObjAddr: 0xFCD0, symBinAddr: 0x100012D8C, symSize: 0xB8 }
  - { offsetInCU: 0x42651, offset: 0x42651, size: 0x8, addend: 0x0, symName: __ZNSt3__116allocator_traitsINS_9allocatorIhEEE10deallocateB8ue170006ERS2_Phm, symObjAddr: 0xFD88, symBinAddr: 0x100012E44, symSize: 0x34 }
  - { offsetInCU: 0x42696, offset: 0x42696, size: 0x8, addend: 0x0, symName: __ZNSt3__16vectorIhNS_9allocatorIhEEE7__allocB8ue170006Ev, symObjAddr: 0xFDBC, symBinAddr: 0x100012E78, symSize: 0x28 }
  - { offsetInCU: 0x426BC, offset: 0x426BC, size: 0x8, addend: 0x0, symName: __ZNKSt3__16vectorIhNS_9allocatorIhEEE8capacityB8ue170006Ev, symObjAddr: 0xFDE4, symBinAddr: 0x100012EA0, symSize: 0x38 }
  - { offsetInCU: 0x426E2, offset: 0x426E2, size: 0x8, addend: 0x0, symName: __ZNSt3__16vectorIhNS_9allocatorIhEEE22__base_destruct_at_endB8ue170006EPh, symObjAddr: 0xFE1C, symBinAddr: 0x100012ED8, symSize: 0x8C }
  - { offsetInCU: 0x42727, offset: 0x42727, size: 0x8, addend: 0x0, symName: __ZNSt3__116allocator_traitsINS_9allocatorIhEEE7destroyB8ue170006IhvvEEvRS2_PT_, symObjAddr: 0xFEA8, symBinAddr: 0x100012F64, symSize: 0x28 }
  - { offsetInCU: 0x42763, offset: 0x42763, size: 0x8, addend: 0x0, symName: __ZNKSt3__16vectorIhNS_9allocatorIhEEE31__annotate_contiguous_containerB8ue170006EPKvS5_S5_S5_, symObjAddr: 0xFF18, symBinAddr: 0x100012FD4, symSize: 0x20 }
  - { offsetInCU: 0x427B9, offset: 0x427B9, size: 0x8, addend: 0x0, symName: __ZNKSt3__16vectorIhNS_9allocatorIhEEE4dataB8ue170006Ev, symObjAddr: 0xFF38, symBinAddr: 0x100012FF4, symSize: 0x28 }
  - { offsetInCU: 0x427DF, offset: 0x427DF, size: 0x8, addend: 0x0, symName: __ZNKSt3__16vectorIhNS_9allocatorIhEEE4sizeB8ue170006Ev, symObjAddr: 0xFF60, symBinAddr: 0x10001301C, symSize: 0x20 }
  - { offsetInCU: 0x42805, offset: 0x42805, size: 0x8, addend: 0x0, symName: __ZNSt3__19allocatorIhE10deallocateB8ue170006EPhm, symObjAddr: 0xFF80, symBinAddr: 0x10001303C, symSize: 0x40 }
  - { offsetInCU: 0x42847, offset: 0x42847, size: 0x8, addend: 0x0, symName: __ZNSt3__117__compressed_pairIPhNS_9allocatorIhEEE6secondB8ue170006Ev, symObjAddr: 0xFFC0, symBinAddr: 0x10001307C, symSize: 0x24 }
  - { offsetInCU: 0x4286D, offset: 0x4286D, size: 0x8, addend: 0x0, symName: __ZNSt3__122__compressed_pair_elemINS_9allocatorIhEELi1ELb1EE5__getB8ue170006Ev, symObjAddr: 0xFFE4, symBinAddr: 0x1000130A0, symSize: 0x14 }
  - { offsetInCU: 0x42893, offset: 0x42893, size: 0x8, addend: 0x0, symName: __ZNKSt3__16vectorIhNS_9allocatorIhEEE9__end_capB8ue170006Ev, symObjAddr: 0xFFF8, symBinAddr: 0x1000130B4, symSize: 0x28 }
  - { offsetInCU: 0x428B9, offset: 0x428B9, size: 0x8, addend: 0x0, symName: __ZNKSt3__117__compressed_pairIPhNS_9allocatorIhEEE5firstB8ue170006Ev, symObjAddr: 0x10020, symBinAddr: 0x1000130DC, symSize: 0x24 }
  - { offsetInCU: 0x428DF, offset: 0x428DF, size: 0x8, addend: 0x0, symName: __ZNKSt3__122__compressed_pair_elemIPhLi0ELb0EE5__getB8ue170006Ev, symObjAddr: 0x10044, symBinAddr: 0x100013100, symSize: 0x14 }
  - { offsetInCU: 0x42905, offset: 0x42905, size: 0x8, addend: 0x0, symName: __ZNSt3__19allocatorIN8nlohmann16json_abi_v3_12_027byte_container_with_subtypeINS_6vectorIhNS0_IhEEEEEEE10deallocateB8ue170006EPS7_m, symObjAddr: 0x10058, symBinAddr: 0x100013114, symSize: 0x44 }
  - { offsetInCU: 0x42947, offset: 0x42947, size: 0x8, addend: 0x0, symName: __ZN8nlohmann16json_abi_v3_12_06detail8json_refINS0_10basic_jsonINSt3__13mapENS4_6vectorENS4_12basic_stringIcNS4_11char_traitsIcEENS4_9allocatorIcEEEEbxydSA_NS0_14adl_serializerENS6_IhNSA_IhEEEEvEEEC2IJRA9_KcELi0EEEDpOT_, symObjAddr: 0x1009C, symBinAddr: 0x100013158, symSize: 0x38 }
  - { offsetInCU: 0x42992, offset: 0x42992, size: 0x8, addend: 0x0, symName: __ZN8nlohmann16json_abi_v3_12_010basic_jsonINSt3__13mapENS2_6vectorENS2_12basic_stringIcNS2_11char_traitsIcEENS2_9allocatorIcEEEEbxydS8_NS0_14adl_serializerENS4_IhNS8_IhEEEEvEC1IRA9_KcA9_cLi0EEEOT_, symObjAddr: 0x100D4, symBinAddr: 0x100013190, symSize: 0x34 }
  - { offsetInCU: 0x429E4, offset: 0x429E4, size: 0x8, addend: 0x0, symName: __ZN8nlohmann16json_abi_v3_12_010basic_jsonINSt3__13mapENS2_6vectorENS2_12basic_stringIcNS2_11char_traitsIcEENS2_9allocatorIcEEEEbxydS8_NS0_14adl_serializerENS4_IhNS8_IhEEEEvEC2IRA9_KcA9_cLi0EEEOT_, symObjAddr: 0x10108, symBinAddr: 0x1000131C4, symSize: 0x84 }
  - { offsetInCU: 0x42A36, offset: 0x42A36, size: 0x8, addend: 0x0, symName: __ZN8nlohmann16json_abi_v3_12_010basic_jsonINSt3__13mapENS2_6vectorENS2_12basic_stringIcNS2_11char_traitsIcEENS2_9allocatorIcEEEEbxydS8_NS0_14adl_serializerENS4_IhNS8_IhEEEEvE4dataC1Ev, symObjAddr: 0x1018C, symBinAddr: 0x100013248, symSize: 0x2C }
  - { offsetInCU: 0x42A60, offset: 0x42A60, size: 0x8, addend: 0x0, symName: __ZN8nlohmann16json_abi_v3_12_014adl_serializerIA9_cvE7to_jsonINS0_10basic_jsonINSt3__13mapENS6_6vectorENS6_12basic_stringIcNS6_11char_traitsIcEENS6_9allocatorIcEEEEbxydSC_S1_NS8_IhNSC_IhEEEEvEERA9_KcEEDTcmclL_ZNS0_7to_jsonEEfp_clsr3stdE7forwardIT0_Efp0_EEcvv_EERT_OSL_, symObjAddr: 0x101B8, symBinAddr: 0x100013274, symSize: 0x34 }
  - { offsetInCU: 0x42AA7, offset: 0x42AA7, size: 0x8, addend: 0x0, symName: __ZN8nlohmann16json_abi_v3_12_010basic_jsonINSt3__13mapENS2_6vectorENS2_12basic_stringIcNS2_11char_traitsIcEENS2_9allocatorIcEEEEbxydS8_NS0_14adl_serializerENS4_IhNS8_IhEEEEvE4dataC2Ev, symObjAddr: 0x101EC, symBinAddr: 0x1000132A8, symSize: 0x1C }
  - { offsetInCU: 0x42AD7, offset: 0x42AD7, size: 0x8, addend: 0x0, symName: __ZNK8nlohmann16json_abi_v3_12_06detail10to_json_fnclINS0_10basic_jsonINSt3__13mapENS5_6vectorENS5_12basic_stringIcNS5_11char_traitsIcEENS5_9allocatorIcEEEEbxydSB_NS0_14adl_serializerENS7_IhNSB_IhEEEEvEERA9_KcEEDTcmcl7to_jsonfp_clsr3stdE7forwardIT0_Efp0_EEcvv_EERT_OSL_, symObjAddr: 0x10208, symBinAddr: 0x1000132C4, symSize: 0x30 }
  - { offsetInCU: 0x42B2F, offset: 0x42B2F, size: 0x8, addend: 0x0, symName: __ZN8nlohmann16json_abi_v3_12_06detail20external_constructorILNS1_7value_tE3EE9constructINS0_10basic_jsonINSt3__13mapENS7_6vectorENS7_12basic_stringIcNS7_11char_traitsIcEENS7_9allocatorIcEEEEbxydSD_NS0_14adl_serializerENS9_IhNSD_IhEEEEvEEA9_cLi0EEEvRT_RKT0_, symObjAddr: 0x10264, symBinAddr: 0x100013320, symSize: 0x60 }
  - { offsetInCU: 0x42B7C, offset: 0x42B7C, size: 0x8, addend: 0x0, symName: __ZN8nlohmann16json_abi_v3_12_010basic_jsonINSt3__13mapENS2_6vectorENS2_12basic_stringIcNS2_11char_traitsIcEENS2_9allocatorIcEEEEbxydS8_NS0_14adl_serializerENS4_IhNS8_IhEEEEvE6createISA_JRA9_KcEEEPT_DpOT0_, symObjAddr: 0x102C4, symBinAddr: 0x100013380, symSize: 0xF4 }
  - { offsetInCU: 0x42C0A, offset: 0x42C0A, size: 0x8, addend: 0x0, symName: __ZNSt3__116allocator_traitsINS_9allocatorINS_12basic_stringIcNS_11char_traitsIcEENS1_IcEEEEEEE8allocateB8ue170006ERS7_m, symObjAddr: 0x103B8, symBinAddr: 0x100013474, symSize: 0x2C }
  - { offsetInCU: 0x42CB2, offset: 0x42CB2, size: 0x8, addend: 0x0, symName: __ZNSt3__110unique_ptrINS_12basic_stringIcNS_11char_traitsIcEENS_9allocatorIcEEEEZN8nlohmann16json_abi_v3_12_010basic_jsonINS_3mapENS_6vectorES6_bxydS4_NS8_14adl_serializerENSB_IhNS4_IhEEEEvE6createIS6_JRA9_KcEEEPT_DpOT0_EUlPS6_E_EC1B8ue170006ILb1EvEESP_NS_16__dependent_typeINS_27__unique_ptr_deleter_sfinaeISQ_EEXT_EE15__lval_ref_typeE, symObjAddr: 0x103E4, symBinAddr: 0x1000134A0, symSize: 0x3C }
  - { offsetInCU: 0x42D03, offset: 0x42D03, size: 0x8, addend: 0x0, symName: __ZNSt3__116allocator_traitsINS_9allocatorINS_12basic_stringIcNS_11char_traitsIcEENS1_IcEEEEEEE9constructB8ue170006IS6_JRA9_KcEvvEEvRS7_PT_DpOT0_, symObjAddr: 0x10420, symBinAddr: 0x1000134DC, symSize: 0x30 }
  - { offsetInCU: 0x42D5A, offset: 0x42D5A, size: 0x8, addend: 0x0, symName: __ZNKSt3__110unique_ptrINS_12basic_stringIcNS_11char_traitsIcEENS_9allocatorIcEEEEZN8nlohmann16json_abi_v3_12_010basic_jsonINS_3mapENS_6vectorES6_bxydS4_NS8_14adl_serializerENSB_IhNS4_IhEEEEvE6createIS6_JRA9_KcEEEPT_DpOT0_EUlPS6_E_E3getB8ue170006Ev, symObjAddr: 0x10450, symBinAddr: 0x10001350C, symSize: 0x28 }
  - { offsetInCU: 0x42D80, offset: 0x42D80, size: 0x8, addend: 0x0, symName: __ZNSt3__110unique_ptrINS_12basic_stringIcNS_11char_traitsIcEENS_9allocatorIcEEEEZN8nlohmann16json_abi_v3_12_010basic_jsonINS_3mapENS_6vectorES6_bxydS4_NS8_14adl_serializerENSB_IhNS4_IhEEEEvE6createIS6_JRA9_KcEEEPT_DpOT0_EUlPS6_E_E7releaseB8ue170006Ev, symObjAddr: 0x104A8, symBinAddr: 0x100013564, symSize: 0x44 }
  - { offsetInCU: 0x42DB5, offset: 0x42DB5, size: 0x8, addend: 0x0, symName: __ZNSt3__110unique_ptrINS_12basic_stringIcNS_11char_traitsIcEENS_9allocatorIcEEEEZN8nlohmann16json_abi_v3_12_010basic_jsonINS_3mapENS_6vectorES6_bxydS4_NS8_14adl_serializerENSB_IhNS4_IhEEEEvE6createIS6_JRA9_KcEEEPT_DpOT0_EUlPS6_E_ED1B8ue170006Ev, symObjAddr: 0x104EC, symBinAddr: 0x1000135A8, symSize: 0x2C }
  - { offsetInCU: 0x42DDF, offset: 0x42DDF, size: 0x8, addend: 0x0, symName: __ZNSt3__19allocatorINS_12basic_stringIcNS_11char_traitsIcEENS0_IcEEEEE8allocateB8ue170006Em, symObjAddr: 0x10518, symBinAddr: 0x1000135D4, symSize: 0x5C }
  - { offsetInCU: 0x42E1E, offset: 0x42E1E, size: 0x8, addend: 0x0, symName: __ZNSt3__116allocator_traitsINS_9allocatorINS_12basic_stringIcNS_11char_traitsIcEENS1_IcEEEEEEE8max_sizeB8ue170006IS7_vvEEmRKS7_, symObjAddr: 0x10574, symBinAddr: 0x100013630, symSize: 0x28 }
  - { offsetInCU: 0x42E4A, offset: 0x42E4A, size: 0x8, addend: 0x0, symName: __ZNSt3__110unique_ptrINS_12basic_stringIcNS_11char_traitsIcEENS_9allocatorIcEEEEZN8nlohmann16json_abi_v3_12_010basic_jsonINS_3mapENS_6vectorES6_bxydS4_NS8_14adl_serializerENSB_IhNS4_IhEEEEvE6createIS6_JRA9_KcEEEPT_DpOT0_EUlPS6_E_EC2B8ue170006ILb1EvEESP_NS_16__dependent_typeINS_27__unique_ptr_deleter_sfinaeISQ_EEXT_EE15__lval_ref_typeE, symObjAddr: 0x1059C, symBinAddr: 0x100013658, symSize: 0x48 }
  - { offsetInCU: 0x42EA1, offset: 0x42EA1, size: 0x8, addend: 0x0, symName: __ZNSt3__117__compressed_pairIPNS_12basic_stringIcNS_11char_traitsIcEENS_9allocatorIcEEEEZN8nlohmann16json_abi_v3_12_010basic_jsonINS_3mapENS_6vectorES6_bxydS4_NS9_14adl_serializerENSC_IhNS4_IhEEEEvE6createIS6_JRA9_KcEEEPT_DpOT0_EUlS7_E_EC1B8ue170006IRS7_RKSQ_EEOSL_OT0_, symObjAddr: 0x105E4, symBinAddr: 0x1000136A0, symSize: 0x3C }
  - { offsetInCU: 0x42EF9, offset: 0x42EF9, size: 0x8, addend: 0x0, symName: __ZNSt3__117__compressed_pairIPNS_12basic_stringIcNS_11char_traitsIcEENS_9allocatorIcEEEEZN8nlohmann16json_abi_v3_12_010basic_jsonINS_3mapENS_6vectorES6_bxydS4_NS9_14adl_serializerENSC_IhNS4_IhEEEEvE6createIS6_JRA9_KcEEEPT_DpOT0_EUlS7_E_EC2B8ue170006IRS7_RKSQ_EEOSL_OT0_, symObjAddr: 0x10620, symBinAddr: 0x1000136DC, symSize: 0x48 }
  - { offsetInCU: 0x42F51, offset: 0x42F51, size: 0x8, addend: 0x0, symName: __ZNSt3__122__compressed_pair_elemIPNS_12basic_stringIcNS_11char_traitsIcEENS_9allocatorIcEEEELi0ELb0EEC2B8ue170006IRS7_vEEOT_, symObjAddr: 0x10668, symBinAddr: 0x100013724, symSize: 0x24 }
  - { offsetInCU: 0x42F93, offset: 0x42F93, size: 0x8, addend: 0x0, symName: __ZNSt3__122__compressed_pair_elemIZN8nlohmann16json_abi_v3_12_010basic_jsonINS_3mapENS_6vectorENS_12basic_stringIcNS_11char_traitsIcEENS_9allocatorIcEEEEbxydS9_NS2_14adl_serializerENS5_IhNS9_IhEEEEvE6createISB_JRA9_KcEEEPT_DpOT0_EUlPSB_E_Li1ELb0EEC2B8ue170006IRKSQ_vEEOSK_, symObjAddr: 0x1068C, symBinAddr: 0x100013748, symSize: 0x24 }
  - { offsetInCU: 0x42FD5, offset: 0x42FD5, size: 0x8, addend: 0x0, symName: __ZNKSt3__117__compressed_pairIPNS_12basic_stringIcNS_11char_traitsIcEENS_9allocatorIcEEEEZN8nlohmann16json_abi_v3_12_010basic_jsonINS_3mapENS_6vectorES6_bxydS4_NS9_14adl_serializerENSC_IhNS4_IhEEEEvE6createIS6_JRA9_KcEEEPT_DpOT0_EUlS7_E_E5firstB8ue170006Ev, symObjAddr: 0x106EC, symBinAddr: 0x1000137A8, symSize: 0x24 }
  - { offsetInCU: 0x42FFB, offset: 0x42FFB, size: 0x8, addend: 0x0, symName: __ZNKSt3__122__compressed_pair_elemIPNS_12basic_stringIcNS_11char_traitsIcEENS_9allocatorIcEEEELi0ELb0EE5__getB8ue170006Ev, symObjAddr: 0x10710, symBinAddr: 0x1000137CC, symSize: 0x14 }
  - { offsetInCU: 0x43021, offset: 0x43021, size: 0x8, addend: 0x0, symName: __ZNKSt3__110unique_ptrINS_12basic_stringIcNS_11char_traitsIcEENS_9allocatorIcEEEEZN8nlohmann16json_abi_v3_12_010basic_jsonINS_3mapENS_6vectorES6_bxydS4_NS8_14adl_serializerENSB_IhNS4_IhEEEEvE6createIS6_JRA9_KcEEEPT_DpOT0_EUlPS6_E_EcvbB8ue170006Ev, symObjAddr: 0x10724, symBinAddr: 0x1000137E0, symSize: 0x34 }
  - { offsetInCU: 0x43047, offset: 0x43047, size: 0x8, addend: 0x0, symName: __ZNSt3__117__compressed_pairIPNS_12basic_stringIcNS_11char_traitsIcEENS_9allocatorIcEEEEZN8nlohmann16json_abi_v3_12_010basic_jsonINS_3mapENS_6vectorES6_bxydS4_NS9_14adl_serializerENSC_IhNS4_IhEEEEvE6createIS6_JRA9_KcEEEPT_DpOT0_EUlS7_E_E5firstB8ue170006Ev, symObjAddr: 0x10758, symBinAddr: 0x100013814, symSize: 0x24 }
  - { offsetInCU: 0x4306D, offset: 0x4306D, size: 0x8, addend: 0x0, symName: __ZNSt3__122__compressed_pair_elemIPNS_12basic_stringIcNS_11char_traitsIcEENS_9allocatorIcEEEELi0ELb0EE5__getB8ue170006Ev, symObjAddr: 0x1077C, symBinAddr: 0x100013838, symSize: 0x14 }
  - { offsetInCU: 0x43093, offset: 0x43093, size: 0x8, addend: 0x0, symName: __ZNSt3__110unique_ptrINS_12basic_stringIcNS_11char_traitsIcEENS_9allocatorIcEEEEZN8nlohmann16json_abi_v3_12_010basic_jsonINS_3mapENS_6vectorES6_bxydS4_NS8_14adl_serializerENSB_IhNS4_IhEEEEvE6createIS6_JRA9_KcEEEPT_DpOT0_EUlPS6_E_ED2B8ue170006Ev, symObjAddr: 0x10790, symBinAddr: 0x10001384C, symSize: 0x30 }
  - { offsetInCU: 0x430BD, offset: 0x430BD, size: 0x8, addend: 0x0, symName: __ZNSt3__110unique_ptrINS_12basic_stringIcNS_11char_traitsIcEENS_9allocatorIcEEEEZN8nlohmann16json_abi_v3_12_010basic_jsonINS_3mapENS_6vectorES6_bxydS4_NS8_14adl_serializerENSB_IhNS4_IhEEEEvE6createIS6_JRA9_KcEEEPT_DpOT0_EUlPS6_E_E5resetB8ue170006ESP_, symObjAddr: 0x107C0, symBinAddr: 0x10001387C, symSize: 0x80 }
  - { offsetInCU: 0x43102, offset: 0x43102, size: 0x8, addend: 0x0, symName: __ZNSt3__117__compressed_pairIPNS_12basic_stringIcNS_11char_traitsIcEENS_9allocatorIcEEEEZN8nlohmann16json_abi_v3_12_010basic_jsonINS_3mapENS_6vectorES6_bxydS4_NS9_14adl_serializerENSC_IhNS4_IhEEEEvE6createIS6_JRA9_KcEEEPT_DpOT0_EUlS7_E_E6secondB8ue170006Ev, symObjAddr: 0x10840, symBinAddr: 0x1000138FC, symSize: 0x28 }
  - { offsetInCU: 0x4312E, offset: 0x4312E, size: 0x8, addend: 0x0, symName: __ZZN8nlohmann16json_abi_v3_12_010basic_jsonINSt3__13mapENS2_6vectorENS2_12basic_stringIcNS2_11char_traitsIcEENS2_9allocatorIcEEEEbxydS8_NS0_14adl_serializerENS4_IhNS8_IhEEEEvE6createISA_JRA9_KcEEEPT_DpOT0_ENKUlPSA_E_clESO_, symObjAddr: 0x10868, symBinAddr: 0x100013924, symSize: 0x34 }
  - { offsetInCU: 0x43168, offset: 0x43168, size: 0x8, addend: 0x0, symName: __ZNSt3__122__compressed_pair_elemIZN8nlohmann16json_abi_v3_12_010basic_jsonINS_3mapENS_6vectorENS_12basic_stringIcNS_11char_traitsIcEENS_9allocatorIcEEEEbxydS9_NS2_14adl_serializerENS5_IhNS9_IhEEEEvE6createISB_JRA9_KcEEEPT_DpOT0_EUlPSB_E_Li1ELb0EE5__getB8ue170006Ev, symObjAddr: 0x1089C, symBinAddr: 0x100013958, symSize: 0x14 }
  - { offsetInCU: 0x4318E, offset: 0x4318E, size: 0x8, addend: 0x0, symName: __ZN8nlohmann16json_abi_v3_12_06detail8json_refINS0_10basic_jsonINSt3__13mapENS4_6vectorENS4_12basic_stringIcNS4_11char_traitsIcEENS4_9allocatorIcEEEEbxydSA_NS0_14adl_serializerENS6_IhNSA_IhEEEEvEEEC2IJRA6_KcELi0EEEDpOT_, symObjAddr: 0x108B0, symBinAddr: 0x10001396C, symSize: 0x38 }
  - { offsetInCU: 0x431D9, offset: 0x431D9, size: 0x8, addend: 0x0, symName: __ZN8nlohmann16json_abi_v3_12_010basic_jsonINSt3__13mapENS2_6vectorENS2_12basic_stringIcNS2_11char_traitsIcEENS2_9allocatorIcEEEEbxydS8_NS0_14adl_serializerENS4_IhNS8_IhEEEEvEC1IRA6_KcA6_cLi0EEEOT_, symObjAddr: 0x108E8, symBinAddr: 0x1000139A4, symSize: 0x34 }
  - { offsetInCU: 0x4322B, offset: 0x4322B, size: 0x8, addend: 0x0, symName: __ZN8nlohmann16json_abi_v3_12_010basic_jsonINSt3__13mapENS2_6vectorENS2_12basic_stringIcNS2_11char_traitsIcEENS2_9allocatorIcEEEEbxydS8_NS0_14adl_serializerENS4_IhNS8_IhEEEEvEC2IRA6_KcA6_cLi0EEEOT_, symObjAddr: 0x1091C, symBinAddr: 0x1000139D8, symSize: 0x84 }
  - { offsetInCU: 0x4327D, offset: 0x4327D, size: 0x8, addend: 0x0, symName: __ZN8nlohmann16json_abi_v3_12_014adl_serializerIA6_cvE7to_jsonINS0_10basic_jsonINSt3__13mapENS6_6vectorENS6_12basic_stringIcNS6_11char_traitsIcEENS6_9allocatorIcEEEEbxydSC_S1_NS8_IhNSC_IhEEEEvEERA6_KcEEDTcmclL_ZNS0_7to_jsonEEfp_clsr3stdE7forwardIT0_Efp0_EEcvv_EERT_OSL_, symObjAddr: 0x109A0, symBinAddr: 0x100013A5C, symSize: 0x34 }
  - { offsetInCU: 0x432C4, offset: 0x432C4, size: 0x8, addend: 0x0, symName: __ZNK8nlohmann16json_abi_v3_12_06detail10to_json_fnclINS0_10basic_jsonINSt3__13mapENS5_6vectorENS5_12basic_stringIcNS5_11char_traitsIcEENS5_9allocatorIcEEEEbxydSB_NS0_14adl_serializerENS7_IhNSB_IhEEEEvEERA6_KcEEDTcmcl7to_jsonfp_clsr3stdE7forwardIT0_Efp0_EEcvv_EERT_OSL_, symObjAddr: 0x109D4, symBinAddr: 0x100013A90, symSize: 0x30 }
  - { offsetInCU: 0x4331C, offset: 0x4331C, size: 0x8, addend: 0x0, symName: __ZN8nlohmann16json_abi_v3_12_06detail20external_constructorILNS1_7value_tE3EE9constructINS0_10basic_jsonINSt3__13mapENS7_6vectorENS7_12basic_stringIcNS7_11char_traitsIcEENS7_9allocatorIcEEEEbxydSD_NS0_14adl_serializerENS9_IhNSD_IhEEEEvEEA6_cLi0EEEvRT_RKT0_, symObjAddr: 0x10A30, symBinAddr: 0x100013AEC, symSize: 0x60 }
  - { offsetInCU: 0x43369, offset: 0x43369, size: 0x8, addend: 0x0, symName: __ZN8nlohmann16json_abi_v3_12_010basic_jsonINSt3__13mapENS2_6vectorENS2_12basic_stringIcNS2_11char_traitsIcEENS2_9allocatorIcEEEEbxydS8_NS0_14adl_serializerENS4_IhNS8_IhEEEEvE6createISA_JRA6_KcEEEPT_DpOT0_, symObjAddr: 0x10A90, symBinAddr: 0x100013B4C, symSize: 0xF4 }
  - { offsetInCU: 0x4346A, offset: 0x4346A, size: 0x8, addend: 0x0, symName: __ZNSt3__110unique_ptrINS_12basic_stringIcNS_11char_traitsIcEENS_9allocatorIcEEEEZN8nlohmann16json_abi_v3_12_010basic_jsonINS_3mapENS_6vectorES6_bxydS4_NS8_14adl_serializerENSB_IhNS4_IhEEEEvE6createIS6_JRA6_KcEEEPT_DpOT0_EUlPS6_E_EC1B8ue170006ILb1EvEESP_NS_16__dependent_typeINS_27__unique_ptr_deleter_sfinaeISQ_EEXT_EE15__lval_ref_typeE, symObjAddr: 0x10B84, symBinAddr: 0x100013C40, symSize: 0x3C }
  - { offsetInCU: 0x434BB, offset: 0x434BB, size: 0x8, addend: 0x0, symName: __ZNSt3__116allocator_traitsINS_9allocatorINS_12basic_stringIcNS_11char_traitsIcEENS1_IcEEEEEEE9constructB8ue170006IS6_JRA6_KcEvvEEvRS7_PT_DpOT0_, symObjAddr: 0x10BC0, symBinAddr: 0x100013C7C, symSize: 0x30 }
  - { offsetInCU: 0x43512, offset: 0x43512, size: 0x8, addend: 0x0, symName: __ZNKSt3__110unique_ptrINS_12basic_stringIcNS_11char_traitsIcEENS_9allocatorIcEEEEZN8nlohmann16json_abi_v3_12_010basic_jsonINS_3mapENS_6vectorES6_bxydS4_NS8_14adl_serializerENSB_IhNS4_IhEEEEvE6createIS6_JRA6_KcEEEPT_DpOT0_EUlPS6_E_E3getB8ue170006Ev, symObjAddr: 0x10BF0, symBinAddr: 0x100013CAC, symSize: 0x28 }
  - { offsetInCU: 0x43538, offset: 0x43538, size: 0x8, addend: 0x0, symName: __ZNSt3__110unique_ptrINS_12basic_stringIcNS_11char_traitsIcEENS_9allocatorIcEEEEZN8nlohmann16json_abi_v3_12_010basic_jsonINS_3mapENS_6vectorES6_bxydS4_NS8_14adl_serializerENSB_IhNS4_IhEEEEvE6createIS6_JRA6_KcEEEPT_DpOT0_EUlPS6_E_E7releaseB8ue170006Ev, symObjAddr: 0x10C48, symBinAddr: 0x100013D04, symSize: 0x44 }
  - { offsetInCU: 0x4356D, offset: 0x4356D, size: 0x8, addend: 0x0, symName: __ZNSt3__110unique_ptrINS_12basic_stringIcNS_11char_traitsIcEENS_9allocatorIcEEEEZN8nlohmann16json_abi_v3_12_010basic_jsonINS_3mapENS_6vectorES6_bxydS4_NS8_14adl_serializerENSB_IhNS4_IhEEEEvE6createIS6_JRA6_KcEEEPT_DpOT0_EUlPS6_E_ED1B8ue170006Ev, symObjAddr: 0x10C8C, symBinAddr: 0x100013D48, symSize: 0x2C }
  - { offsetInCU: 0x43597, offset: 0x43597, size: 0x8, addend: 0x0, symName: __ZNSt3__110unique_ptrINS_12basic_stringIcNS_11char_traitsIcEENS_9allocatorIcEEEEZN8nlohmann16json_abi_v3_12_010basic_jsonINS_3mapENS_6vectorES6_bxydS4_NS8_14adl_serializerENSB_IhNS4_IhEEEEvE6createIS6_JRA6_KcEEEPT_DpOT0_EUlPS6_E_EC2B8ue170006ILb1EvEESP_NS_16__dependent_typeINS_27__unique_ptr_deleter_sfinaeISQ_EEXT_EE15__lval_ref_typeE, symObjAddr: 0x10CB8, symBinAddr: 0x100013D74, symSize: 0x48 }
  - { offsetInCU: 0x435E8, offset: 0x435E8, size: 0x8, addend: 0x0, symName: __ZNSt3__117__compressed_pairIPNS_12basic_stringIcNS_11char_traitsIcEENS_9allocatorIcEEEEZN8nlohmann16json_abi_v3_12_010basic_jsonINS_3mapENS_6vectorES6_bxydS4_NS9_14adl_serializerENSC_IhNS4_IhEEEEvE6createIS6_JRA6_KcEEEPT_DpOT0_EUlS7_E_EC1B8ue170006IRS7_RKSQ_EEOSL_OT0_, symObjAddr: 0x10D00, symBinAddr: 0x100013DBC, symSize: 0x3C }
  - { offsetInCU: 0x43640, offset: 0x43640, size: 0x8, addend: 0x0, symName: __ZNSt3__117__compressed_pairIPNS_12basic_stringIcNS_11char_traitsIcEENS_9allocatorIcEEEEZN8nlohmann16json_abi_v3_12_010basic_jsonINS_3mapENS_6vectorES6_bxydS4_NS9_14adl_serializerENSC_IhNS4_IhEEEEvE6createIS6_JRA6_KcEEEPT_DpOT0_EUlS7_E_EC2B8ue170006IRS7_RKSQ_EEOSL_OT0_, symObjAddr: 0x10D3C, symBinAddr: 0x100013DF8, symSize: 0x48 }
  - { offsetInCU: 0x43698, offset: 0x43698, size: 0x8, addend: 0x0, symName: __ZNSt3__122__compressed_pair_elemIZN8nlohmann16json_abi_v3_12_010basic_jsonINS_3mapENS_6vectorENS_12basic_stringIcNS_11char_traitsIcEENS_9allocatorIcEEEEbxydS9_NS2_14adl_serializerENS5_IhNS9_IhEEEEvE6createISB_JRA6_KcEEEPT_DpOT0_EUlPSB_E_Li1ELb0EEC2B8ue170006IRKSQ_vEEOSK_, symObjAddr: 0x10D84, symBinAddr: 0x100013E40, symSize: 0x24 }
  - { offsetInCU: 0x436DA, offset: 0x436DA, size: 0x8, addend: 0x0, symName: __ZNKSt3__117__compressed_pairIPNS_12basic_stringIcNS_11char_traitsIcEENS_9allocatorIcEEEEZN8nlohmann16json_abi_v3_12_010basic_jsonINS_3mapENS_6vectorES6_bxydS4_NS9_14adl_serializerENSC_IhNS4_IhEEEEvE6createIS6_JRA6_KcEEEPT_DpOT0_EUlS7_E_E5firstB8ue170006Ev, symObjAddr: 0x10DE4, symBinAddr: 0x100013EA0, symSize: 0x24 }
  - { offsetInCU: 0x43700, offset: 0x43700, size: 0x8, addend: 0x0, symName: __ZNKSt3__110unique_ptrINS_12basic_stringIcNS_11char_traitsIcEENS_9allocatorIcEEEEZN8nlohmann16json_abi_v3_12_010basic_jsonINS_3mapENS_6vectorES6_bxydS4_NS8_14adl_serializerENSB_IhNS4_IhEEEEvE6createIS6_JRA6_KcEEEPT_DpOT0_EUlPS6_E_EcvbB8ue170006Ev, symObjAddr: 0x10E08, symBinAddr: 0x100013EC4, symSize: 0x34 }
  - { offsetInCU: 0x43726, offset: 0x43726, size: 0x8, addend: 0x0, symName: __ZNSt3__117__compressed_pairIPNS_12basic_stringIcNS_11char_traitsIcEENS_9allocatorIcEEEEZN8nlohmann16json_abi_v3_12_010basic_jsonINS_3mapENS_6vectorES6_bxydS4_NS9_14adl_serializerENSC_IhNS4_IhEEEEvE6createIS6_JRA6_KcEEEPT_DpOT0_EUlS7_E_E5firstB8ue170006Ev, symObjAddr: 0x10E3C, symBinAddr: 0x100013EF8, symSize: 0x24 }
  - { offsetInCU: 0x4374C, offset: 0x4374C, size: 0x8, addend: 0x0, symName: __ZNSt3__110unique_ptrINS_12basic_stringIcNS_11char_traitsIcEENS_9allocatorIcEEEEZN8nlohmann16json_abi_v3_12_010basic_jsonINS_3mapENS_6vectorES6_bxydS4_NS8_14adl_serializerENSB_IhNS4_IhEEEEvE6createIS6_JRA6_KcEEEPT_DpOT0_EUlPS6_E_ED2B8ue170006Ev, symObjAddr: 0x10E60, symBinAddr: 0x100013F1C, symSize: 0x30 }
  - { offsetInCU: 0x43776, offset: 0x43776, size: 0x8, addend: 0x0, symName: __ZNSt3__110unique_ptrINS_12basic_stringIcNS_11char_traitsIcEENS_9allocatorIcEEEEZN8nlohmann16json_abi_v3_12_010basic_jsonINS_3mapENS_6vectorES6_bxydS4_NS8_14adl_serializerENSB_IhNS4_IhEEEEvE6createIS6_JRA6_KcEEEPT_DpOT0_EUlPS6_E_E5resetB8ue170006ESP_, symObjAddr: 0x10E90, symBinAddr: 0x100013F4C, symSize: 0x80 }
  - { offsetInCU: 0x437BB, offset: 0x437BB, size: 0x8, addend: 0x0, symName: __ZNSt3__117__compressed_pairIPNS_12basic_stringIcNS_11char_traitsIcEENS_9allocatorIcEEEEZN8nlohmann16json_abi_v3_12_010basic_jsonINS_3mapENS_6vectorES6_bxydS4_NS9_14adl_serializerENSC_IhNS4_IhEEEEvE6createIS6_JRA6_KcEEEPT_DpOT0_EUlS7_E_E6secondB8ue170006Ev, symObjAddr: 0x10F10, symBinAddr: 0x100013FCC, symSize: 0x28 }
  - { offsetInCU: 0x437E7, offset: 0x437E7, size: 0x8, addend: 0x0, symName: __ZZN8nlohmann16json_abi_v3_12_010basic_jsonINSt3__13mapENS2_6vectorENS2_12basic_stringIcNS2_11char_traitsIcEENS2_9allocatorIcEEEEbxydS8_NS0_14adl_serializerENS4_IhNS8_IhEEEEvE6createISA_JRA6_KcEEEPT_DpOT0_ENKUlPSA_E_clESO_, symObjAddr: 0x10F38, symBinAddr: 0x100013FF4, symSize: 0x34 }
  - { offsetInCU: 0x43821, offset: 0x43821, size: 0x8, addend: 0x0, symName: __ZNSt3__122__compressed_pair_elemIZN8nlohmann16json_abi_v3_12_010basic_jsonINS_3mapENS_6vectorENS_12basic_stringIcNS_11char_traitsIcEENS_9allocatorIcEEEEbxydS9_NS2_14adl_serializerENS5_IhNS9_IhEEEEvE6createISB_JRA6_KcEEEPT_DpOT0_EUlPSB_E_Li1ELb0EE5__getB8ue170006Ev, symObjAddr: 0x10F6C, symBinAddr: 0x100014028, symSize: 0x14 }
  - { offsetInCU: 0x43847, offset: 0x43847, size: 0x8, addend: 0x0, symName: __ZN8nlohmann16json_abi_v3_12_06detail8json_refINS0_10basic_jsonINSt3__13mapENS4_6vectorENS4_12basic_stringIcNS4_11char_traitsIcEENS4_9allocatorIcEEEEbxydSA_NS0_14adl_serializerENS6_IhNSA_IhEEEEvEEEC2IJRA5_KcELi0EEEDpOT_, symObjAddr: 0x10F80, symBinAddr: 0x10001403C, symSize: 0x38 }
  - { offsetInCU: 0x43892, offset: 0x43892, size: 0x8, addend: 0x0, symName: __ZN8nlohmann16json_abi_v3_12_010basic_jsonINSt3__13mapENS2_6vectorENS2_12basic_stringIcNS2_11char_traitsIcEENS2_9allocatorIcEEEEbxydS8_NS0_14adl_serializerENS4_IhNS8_IhEEEEvEC1IRA5_KcA5_cLi0EEEOT_, symObjAddr: 0x10FB8, symBinAddr: 0x100014074, symSize: 0x34 }
  - { offsetInCU: 0x438E4, offset: 0x438E4, size: 0x8, addend: 0x0, symName: __ZN8nlohmann16json_abi_v3_12_010basic_jsonINSt3__13mapENS2_6vectorENS2_12basic_stringIcNS2_11char_traitsIcEENS2_9allocatorIcEEEEbxydS8_NS0_14adl_serializerENS4_IhNS8_IhEEEEvEC2IRA5_KcA5_cLi0EEEOT_, symObjAddr: 0x10FEC, symBinAddr: 0x1000140A8, symSize: 0x84 }
  - { offsetInCU: 0x43936, offset: 0x43936, size: 0x8, addend: 0x0, symName: __ZN8nlohmann16json_abi_v3_12_014adl_serializerIA5_cvE7to_jsonINS0_10basic_jsonINSt3__13mapENS6_6vectorENS6_12basic_stringIcNS6_11char_traitsIcEENS6_9allocatorIcEEEEbxydSC_S1_NS8_IhNSC_IhEEEEvEERA5_KcEEDTcmclL_ZNS0_7to_jsonEEfp_clsr3stdE7forwardIT0_Efp0_EEcvv_EERT_OSL_, symObjAddr: 0x11070, symBinAddr: 0x10001412C, symSize: 0x34 }
  - { offsetInCU: 0x4397D, offset: 0x4397D, size: 0x8, addend: 0x0, symName: __ZNK8nlohmann16json_abi_v3_12_06detail10to_json_fnclINS0_10basic_jsonINSt3__13mapENS5_6vectorENS5_12basic_stringIcNS5_11char_traitsIcEENS5_9allocatorIcEEEEbxydSB_NS0_14adl_serializerENS7_IhNSB_IhEEEEvEERA5_KcEEDTcmcl7to_jsonfp_clsr3stdE7forwardIT0_Efp0_EEcvv_EERT_OSL_, symObjAddr: 0x110A4, symBinAddr: 0x100014160, symSize: 0x30 }
  - { offsetInCU: 0x439D5, offset: 0x439D5, size: 0x8, addend: 0x0, symName: __ZN8nlohmann16json_abi_v3_12_06detail20external_constructorILNS1_7value_tE3EE9constructINS0_10basic_jsonINSt3__13mapENS7_6vectorENS7_12basic_stringIcNS7_11char_traitsIcEENS7_9allocatorIcEEEEbxydSD_NS0_14adl_serializerENS9_IhNSD_IhEEEEvEEA5_cLi0EEEvRT_RKT0_, symObjAddr: 0x11100, symBinAddr: 0x1000141BC, symSize: 0x60 }
  - { offsetInCU: 0x43A22, offset: 0x43A22, size: 0x8, addend: 0x0, symName: __ZN8nlohmann16json_abi_v3_12_010basic_jsonINSt3__13mapENS2_6vectorENS2_12basic_stringIcNS2_11char_traitsIcEENS2_9allocatorIcEEEEbxydS8_NS0_14adl_serializerENS4_IhNS8_IhEEEEvE6createISA_JRA5_KcEEEPT_DpOT0_, symObjAddr: 0x11160, symBinAddr: 0x10001421C, symSize: 0xF4 }
  - { offsetInCU: 0x43B23, offset: 0x43B23, size: 0x8, addend: 0x0, symName: __ZNSt3__110unique_ptrINS_12basic_stringIcNS_11char_traitsIcEENS_9allocatorIcEEEEZN8nlohmann16json_abi_v3_12_010basic_jsonINS_3mapENS_6vectorES6_bxydS4_NS8_14adl_serializerENSB_IhNS4_IhEEEEvE6createIS6_JRA5_KcEEEPT_DpOT0_EUlPS6_E_EC1B8ue170006ILb1EvEESP_NS_16__dependent_typeINS_27__unique_ptr_deleter_sfinaeISQ_EEXT_EE15__lval_ref_typeE, symObjAddr: 0x11254, symBinAddr: 0x100014310, symSize: 0x3C }
  - { offsetInCU: 0x43B74, offset: 0x43B74, size: 0x8, addend: 0x0, symName: __ZNSt3__116allocator_traitsINS_9allocatorINS_12basic_stringIcNS_11char_traitsIcEENS1_IcEEEEEEE9constructB8ue170006IS6_JRA5_KcEvvEEvRS7_PT_DpOT0_, symObjAddr: 0x11290, symBinAddr: 0x10001434C, symSize: 0x30 }
  - { offsetInCU: 0x43BCB, offset: 0x43BCB, size: 0x8, addend: 0x0, symName: __ZNKSt3__110unique_ptrINS_12basic_stringIcNS_11char_traitsIcEENS_9allocatorIcEEEEZN8nlohmann16json_abi_v3_12_010basic_jsonINS_3mapENS_6vectorES6_bxydS4_NS8_14adl_serializerENSB_IhNS4_IhEEEEvE6createIS6_JRA5_KcEEEPT_DpOT0_EUlPS6_E_E3getB8ue170006Ev, symObjAddr: 0x112C0, symBinAddr: 0x10001437C, symSize: 0x28 }
  - { offsetInCU: 0x43BF1, offset: 0x43BF1, size: 0x8, addend: 0x0, symName: __ZNSt3__110unique_ptrINS_12basic_stringIcNS_11char_traitsIcEENS_9allocatorIcEEEEZN8nlohmann16json_abi_v3_12_010basic_jsonINS_3mapENS_6vectorES6_bxydS4_NS8_14adl_serializerENSB_IhNS4_IhEEEEvE6createIS6_JRA5_KcEEEPT_DpOT0_EUlPS6_E_E7releaseB8ue170006Ev, symObjAddr: 0x11318, symBinAddr: 0x1000143D4, symSize: 0x44 }
  - { offsetInCU: 0x43C26, offset: 0x43C26, size: 0x8, addend: 0x0, symName: __ZNSt3__110unique_ptrINS_12basic_stringIcNS_11char_traitsIcEENS_9allocatorIcEEEEZN8nlohmann16json_abi_v3_12_010basic_jsonINS_3mapENS_6vectorES6_bxydS4_NS8_14adl_serializerENSB_IhNS4_IhEEEEvE6createIS6_JRA5_KcEEEPT_DpOT0_EUlPS6_E_ED1B8ue170006Ev, symObjAddr: 0x1135C, symBinAddr: 0x100014418, symSize: 0x2C }
  - { offsetInCU: 0x43C50, offset: 0x43C50, size: 0x8, addend: 0x0, symName: __ZNSt3__110unique_ptrINS_12basic_stringIcNS_11char_traitsIcEENS_9allocatorIcEEEEZN8nlohmann16json_abi_v3_12_010basic_jsonINS_3mapENS_6vectorES6_bxydS4_NS8_14adl_serializerENSB_IhNS4_IhEEEEvE6createIS6_JRA5_KcEEEPT_DpOT0_EUlPS6_E_EC2B8ue170006ILb1EvEESP_NS_16__dependent_typeINS_27__unique_ptr_deleter_sfinaeISQ_EEXT_EE15__lval_ref_typeE, symObjAddr: 0x11388, symBinAddr: 0x100014444, symSize: 0x48 }
  - { offsetInCU: 0x43CA1, offset: 0x43CA1, size: 0x8, addend: 0x0, symName: __ZNSt3__117__compressed_pairIPNS_12basic_stringIcNS_11char_traitsIcEENS_9allocatorIcEEEEZN8nlohmann16json_abi_v3_12_010basic_jsonINS_3mapENS_6vectorES6_bxydS4_NS9_14adl_serializerENSC_IhNS4_IhEEEEvE6createIS6_JRA5_KcEEEPT_DpOT0_EUlS7_E_EC1B8ue170006IRS7_RKSQ_EEOSL_OT0_, symObjAddr: 0x113D0, symBinAddr: 0x10001448C, symSize: 0x3C }
  - { offsetInCU: 0x43CF9, offset: 0x43CF9, size: 0x8, addend: 0x0, symName: __ZNSt3__117__compressed_pairIPNS_12basic_stringIcNS_11char_traitsIcEENS_9allocatorIcEEEEZN8nlohmann16json_abi_v3_12_010basic_jsonINS_3mapENS_6vectorES6_bxydS4_NS9_14adl_serializerENSC_IhNS4_IhEEEEvE6createIS6_JRA5_KcEEEPT_DpOT0_EUlS7_E_EC2B8ue170006IRS7_RKSQ_EEOSL_OT0_, symObjAddr: 0x1140C, symBinAddr: 0x1000144C8, symSize: 0x48 }
  - { offsetInCU: 0x43D51, offset: 0x43D51, size: 0x8, addend: 0x0, symName: __ZNSt3__122__compressed_pair_elemIZN8nlohmann16json_abi_v3_12_010basic_jsonINS_3mapENS_6vectorENS_12basic_stringIcNS_11char_traitsIcEENS_9allocatorIcEEEEbxydS9_NS2_14adl_serializerENS5_IhNS9_IhEEEEvE6createISB_JRA5_KcEEEPT_DpOT0_EUlPSB_E_Li1ELb0EEC2B8ue170006IRKSQ_vEEOSK_, symObjAddr: 0x11454, symBinAddr: 0x100014510, symSize: 0x24 }
  - { offsetInCU: 0x43D93, offset: 0x43D93, size: 0x8, addend: 0x0, symName: __ZNKSt3__117__compressed_pairIPNS_12basic_stringIcNS_11char_traitsIcEENS_9allocatorIcEEEEZN8nlohmann16json_abi_v3_12_010basic_jsonINS_3mapENS_6vectorES6_bxydS4_NS9_14adl_serializerENSC_IhNS4_IhEEEEvE6createIS6_JRA5_KcEEEPT_DpOT0_EUlS7_E_E5firstB8ue170006Ev, symObjAddr: 0x114B4, symBinAddr: 0x100014570, symSize: 0x24 }
  - { offsetInCU: 0x43DB9, offset: 0x43DB9, size: 0x8, addend: 0x0, symName: __ZNKSt3__110unique_ptrINS_12basic_stringIcNS_11char_traitsIcEENS_9allocatorIcEEEEZN8nlohmann16json_abi_v3_12_010basic_jsonINS_3mapENS_6vectorES6_bxydS4_NS8_14adl_serializerENSB_IhNS4_IhEEEEvE6createIS6_JRA5_KcEEEPT_DpOT0_EUlPS6_E_EcvbB8ue170006Ev, symObjAddr: 0x114D8, symBinAddr: 0x100014594, symSize: 0x34 }
  - { offsetInCU: 0x43DDF, offset: 0x43DDF, size: 0x8, addend: 0x0, symName: __ZNSt3__117__compressed_pairIPNS_12basic_stringIcNS_11char_traitsIcEENS_9allocatorIcEEEEZN8nlohmann16json_abi_v3_12_010basic_jsonINS_3mapENS_6vectorES6_bxydS4_NS9_14adl_serializerENSC_IhNS4_IhEEEEvE6createIS6_JRA5_KcEEEPT_DpOT0_EUlS7_E_E5firstB8ue170006Ev, symObjAddr: 0x1150C, symBinAddr: 0x1000145C8, symSize: 0x24 }
  - { offsetInCU: 0x43E05, offset: 0x43E05, size: 0x8, addend: 0x0, symName: __ZNSt3__110unique_ptrINS_12basic_stringIcNS_11char_traitsIcEENS_9allocatorIcEEEEZN8nlohmann16json_abi_v3_12_010basic_jsonINS_3mapENS_6vectorES6_bxydS4_NS8_14adl_serializerENSB_IhNS4_IhEEEEvE6createIS6_JRA5_KcEEEPT_DpOT0_EUlPS6_E_ED2B8ue170006Ev, symObjAddr: 0x11530, symBinAddr: 0x1000145EC, symSize: 0x30 }
  - { offsetInCU: 0x43E2F, offset: 0x43E2F, size: 0x8, addend: 0x0, symName: __ZNSt3__110unique_ptrINS_12basic_stringIcNS_11char_traitsIcEENS_9allocatorIcEEEEZN8nlohmann16json_abi_v3_12_010basic_jsonINS_3mapENS_6vectorES6_bxydS4_NS8_14adl_serializerENSB_IhNS4_IhEEEEvE6createIS6_JRA5_KcEEEPT_DpOT0_EUlPS6_E_E5resetB8ue170006ESP_, symObjAddr: 0x11560, symBinAddr: 0x10001461C, symSize: 0x80 }
  - { offsetInCU: 0x43E74, offset: 0x43E74, size: 0x8, addend: 0x0, symName: __ZNSt3__117__compressed_pairIPNS_12basic_stringIcNS_11char_traitsIcEENS_9allocatorIcEEEEZN8nlohmann16json_abi_v3_12_010basic_jsonINS_3mapENS_6vectorES6_bxydS4_NS9_14adl_serializerENSC_IhNS4_IhEEEEvE6createIS6_JRA5_KcEEEPT_DpOT0_EUlS7_E_E6secondB8ue170006Ev, symObjAddr: 0x115E0, symBinAddr: 0x10001469C, symSize: 0x28 }
  - { offsetInCU: 0x43EA0, offset: 0x43EA0, size: 0x8, addend: 0x0, symName: __ZZN8nlohmann16json_abi_v3_12_010basic_jsonINSt3__13mapENS2_6vectorENS2_12basic_stringIcNS2_11char_traitsIcEENS2_9allocatorIcEEEEbxydS8_NS0_14adl_serializerENS4_IhNS8_IhEEEEvE6createISA_JRA5_KcEEEPT_DpOT0_ENKUlPSA_E_clESO_, symObjAddr: 0x11608, symBinAddr: 0x1000146C4, symSize: 0x34 }
  - { offsetInCU: 0x43EDA, offset: 0x43EDA, size: 0x8, addend: 0x0, symName: __ZNSt3__122__compressed_pair_elemIZN8nlohmann16json_abi_v3_12_010basic_jsonINS_3mapENS_6vectorENS_12basic_stringIcNS_11char_traitsIcEENS_9allocatorIcEEEEbxydS9_NS2_14adl_serializerENS5_IhNS9_IhEEEEvE6createISB_JRA5_KcEEEPT_DpOT0_EUlPSB_E_Li1ELb0EE5__getB8ue170006Ev, symObjAddr: 0x1163C, symBinAddr: 0x1000146F8, symSize: 0x14 }
  - { offsetInCU: 0x43F00, offset: 0x43F00, size: 0x8, addend: 0x0, symName: __ZN8nlohmann16json_abi_v3_12_06detail8json_refINS0_10basic_jsonINSt3__13mapENS4_6vectorENS4_12basic_stringIcNS4_11char_traitsIcEENS4_9allocatorIcEEEEbxydSA_NS0_14adl_serializerENS6_IhNSA_IhEEEEvEEEC2IJSC_ELi0EEEDpOT_, symObjAddr: 0x11650, symBinAddr: 0x10001470C, symSize: 0x38 }
  - { offsetInCU: 0x43F4B, offset: 0x43F4B, size: 0x8, addend: 0x0, symName: __ZN8nlohmann16json_abi_v3_12_010basic_jsonINSt3__13mapENS2_6vectorENS2_12basic_stringIcNS2_11char_traitsIcEENS2_9allocatorIcEEEEbxydS8_NS0_14adl_serializerENS4_IhNS8_IhEEEEvEC1ISA_SA_Li0EEEOT_, symObjAddr: 0x11688, symBinAddr: 0x100014744, symSize: 0x34 }
  - { offsetInCU: 0x43F9D, offset: 0x43F9D, size: 0x8, addend: 0x0, symName: __ZN8nlohmann16json_abi_v3_12_010basic_jsonINSt3__13mapENS2_6vectorENS2_12basic_stringIcNS2_11char_traitsIcEENS2_9allocatorIcEEEEbxydS8_NS0_14adl_serializerENS4_IhNS8_IhEEEEvEC2ISA_SA_Li0EEEOT_, symObjAddr: 0x116BC, symBinAddr: 0x100014778, symSize: 0x84 }
  - { offsetInCU: 0x43FEF, offset: 0x43FEF, size: 0x8, addend: 0x0, symName: __ZN8nlohmann16json_abi_v3_12_014adl_serializerINSt3__112basic_stringIcNS2_11char_traitsIcEENS2_9allocatorIcEEEEvE7to_jsonINS0_10basic_jsonINS2_3mapENS2_6vectorES8_bxydS6_S1_NSD_IhNS6_IhEEEEvEES8_EEDTcmclL_ZNS0_7to_jsonEEfp_clsr3stdE7forwardIT0_Efp0_EEcvv_EERT_OSH_, symObjAddr: 0x11740, symBinAddr: 0x1000147FC, symSize: 0x34 }
  - { offsetInCU: 0x44036, offset: 0x44036, size: 0x8, addend: 0x0, symName: __ZNK8nlohmann16json_abi_v3_12_06detail10to_json_fnclINS0_10basic_jsonINSt3__13mapENS5_6vectorENS5_12basic_stringIcNS5_11char_traitsIcEENS5_9allocatorIcEEEEbxydSB_NS0_14adl_serializerENS7_IhNSB_IhEEEEvEESD_EEDTcmcl7to_jsonfp_clsr3stdE7forwardIT0_Efp0_EEcvv_EERT_OSI_, symObjAddr: 0x11774, symBinAddr: 0x100014830, symSize: 0x30 }
  - { offsetInCU: 0x4408E, offset: 0x4408E, size: 0x8, addend: 0x0, symName: __ZN8nlohmann16json_abi_v3_12_06detail20external_constructorILNS1_7value_tE3EE9constructINS0_10basic_jsonINSt3__13mapENS7_6vectorENS7_12basic_stringIcNS7_11char_traitsIcEENS7_9allocatorIcEEEEbxydSD_NS0_14adl_serializerENS9_IhNSD_IhEEEEvEEEEvRT_ONSK_8string_tE, symObjAddr: 0x117D0, symBinAddr: 0x10001488C, symSize: 0x68 }
  - { offsetInCU: 0x440CC, offset: 0x440CC, size: 0x8, addend: 0x0, symName: __ZN8nlohmann16json_abi_v3_12_010basic_jsonINSt3__13mapENS2_6vectorENS2_12basic_stringIcNS2_11char_traitsIcEENS2_9allocatorIcEEEEbxydS8_NS0_14adl_serializerENS4_IhNS8_IhEEEEvE10json_valueC1EOSA_, symObjAddr: 0x11838, symBinAddr: 0x1000148F4, symSize: 0x34 }
  - { offsetInCU: 0x44106, offset: 0x44106, size: 0x8, addend: 0x0, symName: __ZN8nlohmann16json_abi_v3_12_010basic_jsonINSt3__13mapENS2_6vectorENS2_12basic_stringIcNS2_11char_traitsIcEENS2_9allocatorIcEEEEbxydS8_NS0_14adl_serializerENS4_IhNS8_IhEEEEvE10json_valueC2EOSA_, symObjAddr: 0x1186C, symBinAddr: 0x100014928, symSize: 0x3C }
  - { offsetInCU: 0x44140, offset: 0x44140, size: 0x8, addend: 0x0, symName: __ZN8nlohmann16json_abi_v3_12_010basic_jsonINSt3__13mapENS2_6vectorENS2_12basic_stringIcNS2_11char_traitsIcEENS2_9allocatorIcEEEEbxydS8_NS0_14adl_serializerENS4_IhNS8_IhEEEEvE6createISA_JSA_EEEPT_DpOT0_, symObjAddr: 0x118A8, symBinAddr: 0x100014964, symSize: 0xF4 }
  - { offsetInCU: 0x44241, offset: 0x44241, size: 0x8, addend: 0x0, symName: __ZNSt3__110unique_ptrINS_12basic_stringIcNS_11char_traitsIcEENS_9allocatorIcEEEEZN8nlohmann16json_abi_v3_12_010basic_jsonINS_3mapENS_6vectorES6_bxydS4_NS8_14adl_serializerENSB_IhNS4_IhEEEEvE6createIS6_JS6_EEEPT_DpOT0_EUlPS6_E_EC1B8ue170006ILb1EvEESM_NS_16__dependent_typeINS_27__unique_ptr_deleter_sfinaeISN_EEXT_EE15__lval_ref_typeE, symObjAddr: 0x1199C, symBinAddr: 0x100014A58, symSize: 0x3C }
  - { offsetInCU: 0x44292, offset: 0x44292, size: 0x8, addend: 0x0, symName: __ZNSt3__116allocator_traitsINS_9allocatorINS_12basic_stringIcNS_11char_traitsIcEENS1_IcEEEEEEE9constructB8ue170006IS6_JS6_EvvEEvRS7_PT_DpOT0_, symObjAddr: 0x119D8, symBinAddr: 0x100014A94, symSize: 0x30 }
  - { offsetInCU: 0x442E9, offset: 0x442E9, size: 0x8, addend: 0x0, symName: __ZNKSt3__110unique_ptrINS_12basic_stringIcNS_11char_traitsIcEENS_9allocatorIcEEEEZN8nlohmann16json_abi_v3_12_010basic_jsonINS_3mapENS_6vectorES6_bxydS4_NS8_14adl_serializerENSB_IhNS4_IhEEEEvE6createIS6_JS6_EEEPT_DpOT0_EUlPS6_E_E3getB8ue170006Ev, symObjAddr: 0x11A08, symBinAddr: 0x100014AC4, symSize: 0x28 }
  - { offsetInCU: 0x4430F, offset: 0x4430F, size: 0x8, addend: 0x0, symName: __ZNSt3__110unique_ptrINS_12basic_stringIcNS_11char_traitsIcEENS_9allocatorIcEEEEZN8nlohmann16json_abi_v3_12_010basic_jsonINS_3mapENS_6vectorES6_bxydS4_NS8_14adl_serializerENSB_IhNS4_IhEEEEvE6createIS6_JS6_EEEPT_DpOT0_EUlPS6_E_E7releaseB8ue170006Ev, symObjAddr: 0x11A60, symBinAddr: 0x100014B1C, symSize: 0x44 }
  - { offsetInCU: 0x44344, offset: 0x44344, size: 0x8, addend: 0x0, symName: __ZNSt3__110unique_ptrINS_12basic_stringIcNS_11char_traitsIcEENS_9allocatorIcEEEEZN8nlohmann16json_abi_v3_12_010basic_jsonINS_3mapENS_6vectorES6_bxydS4_NS8_14adl_serializerENSB_IhNS4_IhEEEEvE6createIS6_JS6_EEEPT_DpOT0_EUlPS6_E_ED1B8ue170006Ev, symObjAddr: 0x11AA4, symBinAddr: 0x100014B60, symSize: 0x2C }
  - { offsetInCU: 0x4436E, offset: 0x4436E, size: 0x8, addend: 0x0, symName: __ZNSt3__110unique_ptrINS_12basic_stringIcNS_11char_traitsIcEENS_9allocatorIcEEEEZN8nlohmann16json_abi_v3_12_010basic_jsonINS_3mapENS_6vectorES6_bxydS4_NS8_14adl_serializerENSB_IhNS4_IhEEEEvE6createIS6_JS6_EEEPT_DpOT0_EUlPS6_E_EC2B8ue170006ILb1EvEESM_NS_16__dependent_typeINS_27__unique_ptr_deleter_sfinaeISN_EEXT_EE15__lval_ref_typeE, symObjAddr: 0x11AD0, symBinAddr: 0x100014B8C, symSize: 0x48 }
  - { offsetInCU: 0x443BF, offset: 0x443BF, size: 0x8, addend: 0x0, symName: __ZNSt3__117__compressed_pairIPNS_12basic_stringIcNS_11char_traitsIcEENS_9allocatorIcEEEEZN8nlohmann16json_abi_v3_12_010basic_jsonINS_3mapENS_6vectorES6_bxydS4_NS9_14adl_serializerENSC_IhNS4_IhEEEEvE6createIS6_JS6_EEEPT_DpOT0_EUlS7_E_EC1B8ue170006IRS7_RKSN_EEOSI_OT0_, symObjAddr: 0x11B18, symBinAddr: 0x100014BD4, symSize: 0x3C }
  - { offsetInCU: 0x44417, offset: 0x44417, size: 0x8, addend: 0x0, symName: __ZNSt3__117__compressed_pairIPNS_12basic_stringIcNS_11char_traitsIcEENS_9allocatorIcEEEEZN8nlohmann16json_abi_v3_12_010basic_jsonINS_3mapENS_6vectorES6_bxydS4_NS9_14adl_serializerENSC_IhNS4_IhEEEEvE6createIS6_JS6_EEEPT_DpOT0_EUlS7_E_EC2B8ue170006IRS7_RKSN_EEOSI_OT0_, symObjAddr: 0x11B54, symBinAddr: 0x100014C10, symSize: 0x48 }
  - { offsetInCU: 0x4446F, offset: 0x4446F, size: 0x8, addend: 0x0, symName: __ZNSt3__122__compressed_pair_elemIZN8nlohmann16json_abi_v3_12_010basic_jsonINS_3mapENS_6vectorENS_12basic_stringIcNS_11char_traitsIcEENS_9allocatorIcEEEEbxydS9_NS2_14adl_serializerENS5_IhNS9_IhEEEEvE6createISB_JSB_EEEPT_DpOT0_EUlPSB_E_Li1ELb0EEC2B8ue170006IRKSN_vEEOSH_, symObjAddr: 0x11B9C, symBinAddr: 0x100014C58, symSize: 0x24 }
  - { offsetInCU: 0x444B1, offset: 0x444B1, size: 0x8, addend: 0x0, symName: __ZNKSt3__117__compressed_pairIPNS_12basic_stringIcNS_11char_traitsIcEENS_9allocatorIcEEEEZN8nlohmann16json_abi_v3_12_010basic_jsonINS_3mapENS_6vectorES6_bxydS4_NS9_14adl_serializerENSC_IhNS4_IhEEEEvE6createIS6_JS6_EEEPT_DpOT0_EUlS7_E_E5firstB8ue170006Ev, symObjAddr: 0x11BFC, symBinAddr: 0x100014CB8, symSize: 0x24 }
  - { offsetInCU: 0x444D7, offset: 0x444D7, size: 0x8, addend: 0x0, symName: __ZNKSt3__110unique_ptrINS_12basic_stringIcNS_11char_traitsIcEENS_9allocatorIcEEEEZN8nlohmann16json_abi_v3_12_010basic_jsonINS_3mapENS_6vectorES6_bxydS4_NS8_14adl_serializerENSB_IhNS4_IhEEEEvE6createIS6_JS6_EEEPT_DpOT0_EUlPS6_E_EcvbB8ue170006Ev, symObjAddr: 0x11C20, symBinAddr: 0x100014CDC, symSize: 0x34 }
  - { offsetInCU: 0x444FD, offset: 0x444FD, size: 0x8, addend: 0x0, symName: __ZNSt3__117__compressed_pairIPNS_12basic_stringIcNS_11char_traitsIcEENS_9allocatorIcEEEEZN8nlohmann16json_abi_v3_12_010basic_jsonINS_3mapENS_6vectorES6_bxydS4_NS9_14adl_serializerENSC_IhNS4_IhEEEEvE6createIS6_JS6_EEEPT_DpOT0_EUlS7_E_E5firstB8ue170006Ev, symObjAddr: 0x11C54, symBinAddr: 0x100014D10, symSize: 0x24 }
  - { offsetInCU: 0x44523, offset: 0x44523, size: 0x8, addend: 0x0, symName: __ZNSt3__110unique_ptrINS_12basic_stringIcNS_11char_traitsIcEENS_9allocatorIcEEEEZN8nlohmann16json_abi_v3_12_010basic_jsonINS_3mapENS_6vectorES6_bxydS4_NS8_14adl_serializerENSB_IhNS4_IhEEEEvE6createIS6_JS6_EEEPT_DpOT0_EUlPS6_E_ED2B8ue170006Ev, symObjAddr: 0x11C78, symBinAddr: 0x100014D34, symSize: 0x30 }
  - { offsetInCU: 0x4454D, offset: 0x4454D, size: 0x8, addend: 0x0, symName: __ZNSt3__110unique_ptrINS_12basic_stringIcNS_11char_traitsIcEENS_9allocatorIcEEEEZN8nlohmann16json_abi_v3_12_010basic_jsonINS_3mapENS_6vectorES6_bxydS4_NS8_14adl_serializerENSB_IhNS4_IhEEEEvE6createIS6_JS6_EEEPT_DpOT0_EUlPS6_E_E5resetB8ue170006ESM_, symObjAddr: 0x11CA8, symBinAddr: 0x100014D64, symSize: 0x80 }
  - { offsetInCU: 0x44592, offset: 0x44592, size: 0x8, addend: 0x0, symName: __ZNSt3__117__compressed_pairIPNS_12basic_stringIcNS_11char_traitsIcEENS_9allocatorIcEEEEZN8nlohmann16json_abi_v3_12_010basic_jsonINS_3mapENS_6vectorES6_bxydS4_NS9_14adl_serializerENSC_IhNS4_IhEEEEvE6createIS6_JS6_EEEPT_DpOT0_EUlS7_E_E6secondB8ue170006Ev, symObjAddr: 0x11D28, symBinAddr: 0x100014DE4, symSize: 0x28 }
  - { offsetInCU: 0x445BE, offset: 0x445BE, size: 0x8, addend: 0x0, symName: __ZZN8nlohmann16json_abi_v3_12_010basic_jsonINSt3__13mapENS2_6vectorENS2_12basic_stringIcNS2_11char_traitsIcEENS2_9allocatorIcEEEEbxydS8_NS0_14adl_serializerENS4_IhNS8_IhEEEEvE6createISA_JSA_EEEPT_DpOT0_ENKUlPSA_E_clESL_, symObjAddr: 0x11D50, symBinAddr: 0x100014E0C, symSize: 0x34 }
  - { offsetInCU: 0x445F8, offset: 0x445F8, size: 0x8, addend: 0x0, symName: __ZNSt3__122__compressed_pair_elemIZN8nlohmann16json_abi_v3_12_010basic_jsonINS_3mapENS_6vectorENS_12basic_stringIcNS_11char_traitsIcEENS_9allocatorIcEEEEbxydS9_NS2_14adl_serializerENS5_IhNS9_IhEEEEvE6createISB_JSB_EEEPT_DpOT0_EUlPSB_E_Li1ELb0EE5__getB8ue170006Ev, symObjAddr: 0x11D84, symBinAddr: 0x100014E40, symSize: 0x14 }
  - { offsetInCU: 0x4461E, offset: 0x4461E, size: 0x8, addend: 0x0, symName: __ZN8nlohmann16json_abi_v3_12_06detail8json_refINS0_10basic_jsonINSt3__13mapENS4_6vectorENS4_12basic_stringIcNS4_11char_traitsIcEENS4_9allocatorIcEEEEbxydSA_NS0_14adl_serializerENS6_IhNSA_IhEEEEvEEEC2ESt16initializer_listISH_E, symObjAddr: 0x11D98, symBinAddr: 0x100014E54, symSize: 0x54 }
  - { offsetInCU: 0x44658, offset: 0x44658, size: 0x8, addend: 0x0, symName: __ZN8nlohmann16json_abi_v3_12_010basic_jsonINSt3__13mapENS2_6vectorENS2_12basic_stringIcNS2_11char_traitsIcEENS2_9allocatorIcEEEEbxydS8_NS0_14adl_serializerENS4_IhNS8_IhEEEEvEC2ESt16initializer_listINS0_6detail8json_refISE_EEEbNSG_7value_tE, symObjAddr: 0x11DEC, symBinAddr: 0x100014EA8, symSize: 0x36C }
  - { offsetInCU: 0x44747, offset: 0x44747, size: 0x8, addend: 0x0, symName: __ZNKSt16initializer_listIN8nlohmann16json_abi_v3_12_06detail8json_refINS1_10basic_jsonINSt3__13mapENS5_6vectorENS5_12basic_stringIcNS5_11char_traitsIcEENS5_9allocatorIcEEEEbxydSB_NS1_14adl_serializerENS7_IhNSB_IhEEEEvEEEEE5beginB8ue170006Ev, symObjAddr: 0x121EC, symBinAddr: 0x1000152A8, symSize: 0x18 }
  - { offsetInCU: 0x4476D, offset: 0x4476D, size: 0x8, addend: 0x0, symName: __ZNKSt16initializer_listIN8nlohmann16json_abi_v3_12_06detail8json_refINS1_10basic_jsonINSt3__13mapENS5_6vectorENS5_12basic_stringIcNS5_11char_traitsIcEENS5_9allocatorIcEEEEbxydSB_NS1_14adl_serializerENS7_IhNSB_IhEEEEvEEEEE3endB8ue170006Ev, symObjAddr: 0x12204, symBinAddr: 0x1000152C0, symSize: 0x28 }
  - { offsetInCU: 0x44793, offset: 0x44793, size: 0x8, addend: 0x0, symName: __ZN8nlohmann16json_abi_v3_12_06detail10type_error6createIDnLi0EEES2_iRKNSt3__112basic_stringIcNS4_11char_traitsIcEENS4_9allocatorIcEEEET_, symObjAddr: 0x1222C, symBinAddr: 0x1000152E8, symSize: 0x130 }
  - { offsetInCU: 0x447F6, offset: 0x447F6, size: 0x8, addend: 0x0, symName: __ZN8nlohmann16json_abi_v3_12_010basic_jsonINSt3__13mapENS2_6vectorENS2_12basic_stringIcNS2_11char_traitsIcEENS2_9allocatorIcEEEEbxydS8_NS0_14adl_serializerENS4_IhNS8_IhEEEEvE10json_valueC1ENS0_6detail7value_tE, symObjAddr: 0x1235C, symBinAddr: 0x100015418, symSize: 0x34 }
  - { offsetInCU: 0x44830, offset: 0x44830, size: 0x8, addend: 0x0, symName: __ZNK8nlohmann16json_abi_v3_12_06detail8json_refINS0_10basic_jsonINSt3__13mapENS4_6vectorENS4_12basic_stringIcNS4_11char_traitsIcEENS4_9allocatorIcEEEEbxydSA_NS0_14adl_serializerENS6_IhNSA_IhEEEEvEEE15moved_or_copiedEv, symObjAddr: 0x12390, symBinAddr: 0x10001544C, symSize: 0x64 }
  - { offsetInCU: 0x44856, offset: 0x44856, size: 0x8, addend: 0x0, symName: __ZNSt3__13mapINS_12basic_stringIcNS_11char_traitsIcEENS_9allocatorIcEEEEN8nlohmann16json_abi_v3_12_010basic_jsonIS0_NS_6vectorES6_bxydS4_NS8_14adl_serializerENSA_IhNS4_IhEEEEvEENS_4lessIvEENS4_INS_4pairIKS6_SE_EEEEE7emplaceB8ue170006IJS6_SE_EEENSH_INS_14__map_iteratorINS_15__tree_iteratorINS_12__value_typeIS6_SE_EEPNS_11__tree_nodeISQ_PvEElEEEEbEEDpOT_, symObjAddr: 0x123F4, symBinAddr: 0x1000154B0, symSize: 0x54 }
  - { offsetInCU: 0x448AC, offset: 0x448AC, size: 0x8, addend: 0x0, symName: __ZNSt3__16vectorIN8nlohmann16json_abi_v3_12_010basic_jsonINS_3mapES0_NS_12basic_stringIcNS_11char_traitsIcEENS_9allocatorIcEEEEbxydS8_NS2_14adl_serializerENS0_IhNS8_IhEEEEvEENS8_ISE_EEEixB8ue170006Em, symObjAddr: 0x12448, symBinAddr: 0x100015504, symSize: 0x24 }
  - { offsetInCU: 0x448EA, offset: 0x448EA, size: 0x8, addend: 0x0, symName: __ZN8nlohmann16json_abi_v3_12_010basic_jsonINSt3__13mapENS2_6vectorENS2_12basic_stringIcNS2_11char_traitsIcEENS2_9allocatorIcEEEEbxydS8_NS0_14adl_serializerENS4_IhNS8_IhEEEEvE6createINS4_ISE_NS8_ISE_EEEEJPKNS0_6detail8json_refISE_EESM_EEEPT_DpOT0_, symObjAddr: 0x1246C, symBinAddr: 0x100015528, symSize: 0xFC }
  - { offsetInCU: 0x44998, offset: 0x44998, size: 0x8, addend: 0x0, symName: __ZZN8nlohmann16json_abi_v3_12_010basic_jsonINSt3__13mapENS2_6vectorENS2_12basic_stringIcNS2_11char_traitsIcEENS2_9allocatorIcEEEEbxydS8_NS0_14adl_serializerENS4_IhNS8_IhEEEEvEC1ESt16initializer_listINS0_6detail8json_refISE_EEEbNSG_7value_tEENKUlRKSI_E_clESM_, symObjAddr: 0x12568, symBinAddr: 0x100015624, symSize: 0x84 }
  - { offsetInCU: 0x449D2, offset: 0x449D2, size: 0x8, addend: 0x0, symName: __ZNK8nlohmann16json_abi_v3_12_06detail8json_refINS0_10basic_jsonINSt3__13mapENS4_6vectorENS4_12basic_stringIcNS4_11char_traitsIcEENS4_9allocatorIcEEEEbxydSA_NS0_14adl_serializerENS6_IhNSA_IhEEEEvEEEptEv, symObjAddr: 0x125EC, symBinAddr: 0x1000156A8, symSize: 0x24 }
  - { offsetInCU: 0x449F8, offset: 0x449F8, size: 0x8, addend: 0x0, symName: __ZNK8nlohmann16json_abi_v3_12_06detail8json_refINS0_10basic_jsonINSt3__13mapENS4_6vectorENS4_12basic_stringIcNS4_11char_traitsIcEENS4_9allocatorIcEEEEbxydSA_NS0_14adl_serializerENS6_IhNSA_IhEEEEvEEEdeEv, symObjAddr: 0x12610, symBinAddr: 0x1000156CC, symSize: 0x4C }
  - { offsetInCU: 0x44A1E, offset: 0x44A1E, size: 0x8, addend: 0x0, symName: __ZNK8nlohmann16json_abi_v3_12_010basic_jsonINSt3__13mapENS2_6vectorENS2_12basic_stringIcNS2_11char_traitsIcEENS2_9allocatorIcEEEEbxydS8_NS0_14adl_serializerENS4_IhNS8_IhEEEEvEixEm, symObjAddr: 0x1265C, symBinAddr: 0x100015718, symSize: 0x11C }
  - { offsetInCU: 0x44A54, offset: 0x44A54, size: 0x8, addend: 0x0, symName: __ZN8nlohmann16json_abi_v3_12_06detail9exception11diagnosticsEDn, symObjAddr: 0x12878, symBinAddr: 0x100015934, symSize: 0x3C }
  - { offsetInCU: 0x44A75, offset: 0x44A75, size: 0x8, addend: 0x0, symName: __ZN8nlohmann16json_abi_v3_12_010basic_jsonINSt3__13mapENS2_6vectorENS2_12basic_stringIcNS2_11char_traitsIcEENS2_9allocatorIcEEEEbxydS8_NS0_14adl_serializerENS4_IhNS8_IhEEEEvE10json_valueC2ENS0_6detail7value_tE, symObjAddr: 0x128B4, symBinAddr: 0x100015970, symSize: 0x1DC }
  - { offsetInCU: 0x44AAF, offset: 0x44AAF, size: 0x8, addend: 0x0, symName: __ZN8nlohmann16json_abi_v3_12_010basic_jsonINSt3__13mapENS2_6vectorENS2_12basic_stringIcNS2_11char_traitsIcEENS2_9allocatorIcEEEEbxydS8_NS0_14adl_serializerENS4_IhNS8_IhEEEEvE6createINS3_ISA_SE_NS2_4lessIvEENS8_INS2_4pairIKSA_SE_EEEEEEJEEEPT_DpOT0_, symObjAddr: 0x12AB8, symBinAddr: 0x100015B74, symSize: 0xEC }
  - { offsetInCU: 0x44B27, offset: 0x44B27, size: 0x8, addend: 0x0, symName: __ZN8nlohmann16json_abi_v3_12_010basic_jsonINSt3__13mapENS2_6vectorENS2_12basic_stringIcNS2_11char_traitsIcEENS2_9allocatorIcEEEEbxydS8_NS0_14adl_serializerENS4_IhNS8_IhEEEEvE6createINS4_ISE_NS8_ISE_EEEEJEEEPT_DpOT0_, symObjAddr: 0x12BA4, symBinAddr: 0x100015C60, symSize: 0xEC }
  - { offsetInCU: 0x44BB8, offset: 0x44BB8, size: 0x8, addend: 0x0, symName: __ZN8nlohmann16json_abi_v3_12_010basic_jsonINSt3__13mapENS2_6vectorENS2_12basic_stringIcNS2_11char_traitsIcEENS2_9allocatorIcEEEEbxydS8_NS0_14adl_serializerENS4_IhNS8_IhEEEEvE6createISA_JRA1_KcEEEPT_DpOT0_, symObjAddr: 0x12C90, symBinAddr: 0x100015D4C, symSize: 0xF4 }
  - { offsetInCU: 0x44C46, offset: 0x44C46, size: 0x8, addend: 0x0, symName: __ZN8nlohmann16json_abi_v3_12_010basic_jsonINSt3__13mapENS2_6vectorENS2_12basic_stringIcNS2_11char_traitsIcEENS2_9allocatorIcEEEEbxydS8_NS0_14adl_serializerENS4_IhNS8_IhEEEEvE6createINS0_27byte_container_with_subtypeISD_EEJEEEPT_DpOT0_, symObjAddr: 0x12D84, symBinAddr: 0x100015E40, symSize: 0xEC }
  - { offsetInCU: 0x44CC4, offset: 0x44CC4, size: 0x8, addend: 0x0, symName: __ZN8nlohmann16json_abi_v3_12_06detail11other_error6createIDnLi0EEES2_iRKNSt3__112basic_stringIcNS4_11char_traitsIcEENS4_9allocatorIcEEEET_, symObjAddr: 0x12E70, symBinAddr: 0x100015F2C, symSize: 0x130 }
  - { offsetInCU: 0x44D27, offset: 0x44D27, size: 0x8, addend: 0x0, symName: __ZN8nlohmann16json_abi_v3_12_06detail11other_errorD1Ev, symObjAddr: 0x12FA0, symBinAddr: 0x10001605C, symSize: 0x2C }
  - { offsetInCU: 0x44D54, offset: 0x44D54, size: 0x8, addend: 0x0, symName: __ZNSt3__116allocator_traitsINS_9allocatorINS_3mapINS_12basic_stringIcNS_11char_traitsIcEENS1_IcEEEEN8nlohmann16json_abi_v3_12_010basic_jsonIS2_NS_6vectorES7_bxydS1_NS9_14adl_serializerENSB_IhNS1_IhEEEEvEENS_4lessIvEENS1_INS_4pairIKS7_SF_EEEEEEEEE8allocateB8ue170006ERSN_m, symObjAddr: 0x12FCC, symBinAddr: 0x100016088, symSize: 0x2C }
  - { offsetInCU: 0x44E2A, offset: 0x44E2A, size: 0x8, addend: 0x0, symName: __ZNSt3__110unique_ptrINS_3mapINS_12basic_stringIcNS_11char_traitsIcEENS_9allocatorIcEEEEN8nlohmann16json_abi_v3_12_010basic_jsonIS1_NS_6vectorES7_bxydS5_NS9_14adl_serializerENSB_IhNS5_IhEEEEvEENS_4lessIvEENS5_INS_4pairIKS7_SF_EEEEEEZNSF_6createISM_JEEEPT_DpOT0_EUlPSM_E_EC1B8ue170006ILb1EvEEST_NS_16__dependent_typeINS_27__unique_ptr_deleter_sfinaeISU_EEXT_EE15__lval_ref_typeE, symObjAddr: 0x12FF8, symBinAddr: 0x1000160B4, symSize: 0x3C }
  - { offsetInCU: 0x44E7B, offset: 0x44E7B, size: 0x8, addend: 0x0, symName: __ZNSt3__116allocator_traitsINS_9allocatorINS_3mapINS_12basic_stringIcNS_11char_traitsIcEENS1_IcEEEEN8nlohmann16json_abi_v3_12_010basic_jsonIS2_NS_6vectorES7_bxydS1_NS9_14adl_serializerENSB_IhNS1_IhEEEEvEENS_4lessIvEENS1_INS_4pairIKS7_SF_EEEEEEEEE9constructB8ue170006ISM_JEvvEEvRSN_PT_DpOT0_, symObjAddr: 0x13034, symBinAddr: 0x1000160F0, symSize: 0x28 }
  - { offsetInCU: 0x44EBC, offset: 0x44EBC, size: 0x8, addend: 0x0, symName: __ZNKSt3__110unique_ptrINS_3mapINS_12basic_stringIcNS_11char_traitsIcEENS_9allocatorIcEEEEN8nlohmann16json_abi_v3_12_010basic_jsonIS1_NS_6vectorES7_bxydS5_NS9_14adl_serializerENSB_IhNS5_IhEEEEvEENS_4lessIvEENS5_INS_4pairIKS7_SF_EEEEEEZNSF_6createISM_JEEEPT_DpOT0_EUlPSM_E_E3getB8ue170006Ev, symObjAddr: 0x1305C, symBinAddr: 0x100016118, symSize: 0x28 }
  - { offsetInCU: 0x44EE2, offset: 0x44EE2, size: 0x8, addend: 0x0, symName: __ZNSt3__110unique_ptrINS_3mapINS_12basic_stringIcNS_11char_traitsIcEENS_9allocatorIcEEEEN8nlohmann16json_abi_v3_12_010basic_jsonIS1_NS_6vectorES7_bxydS5_NS9_14adl_serializerENSB_IhNS5_IhEEEEvEENS_4lessIvEENS5_INS_4pairIKS7_SF_EEEEEEZNSF_6createISM_JEEEPT_DpOT0_EUlPSM_E_E7releaseB8ue170006Ev, symObjAddr: 0x130B4, symBinAddr: 0x100016170, symSize: 0x44 }
  - { offsetInCU: 0x44F17, offset: 0x44F17, size: 0x8, addend: 0x0, symName: __ZNSt3__110unique_ptrINS_3mapINS_12basic_stringIcNS_11char_traitsIcEENS_9allocatorIcEEEEN8nlohmann16json_abi_v3_12_010basic_jsonIS1_NS_6vectorES7_bxydS5_NS9_14adl_serializerENSB_IhNS5_IhEEEEvEENS_4lessIvEENS5_INS_4pairIKS7_SF_EEEEEEZNSF_6createISM_JEEEPT_DpOT0_EUlPSM_E_ED1B8ue170006Ev, symObjAddr: 0x130F8, symBinAddr: 0x1000161B4, symSize: 0x2C }
  - { offsetInCU: 0x44F41, offset: 0x44F41, size: 0x8, addend: 0x0, symName: __ZNSt3__19allocatorINS_3mapINS_12basic_stringIcNS_11char_traitsIcEENS0_IcEEEEN8nlohmann16json_abi_v3_12_010basic_jsonIS1_NS_6vectorES6_bxydS0_NS8_14adl_serializerENSA_IhNS0_IhEEEEvEENS_4lessIvEENS0_INS_4pairIKS6_SE_EEEEEEE8allocateB8ue170006Em, symObjAddr: 0x13124, symBinAddr: 0x1000161E0, symSize: 0x5C }
  - { offsetInCU: 0x44F80, offset: 0x44F80, size: 0x8, addend: 0x0, symName: __ZNSt3__116allocator_traitsINS_9allocatorINS_3mapINS_12basic_stringIcNS_11char_traitsIcEENS1_IcEEEEN8nlohmann16json_abi_v3_12_010basic_jsonIS2_NS_6vectorES7_bxydS1_NS9_14adl_serializerENSB_IhNS1_IhEEEEvEENS_4lessIvEENS1_INS_4pairIKS7_SF_EEEEEEEEE8max_sizeB8ue170006ISN_vvEEmRKSN_, symObjAddr: 0x13180, symBinAddr: 0x10001623C, symSize: 0x28 }
  - { offsetInCU: 0x44FAC, offset: 0x44FAC, size: 0x8, addend: 0x0, symName: __ZNSt3__110unique_ptrINS_3mapINS_12basic_stringIcNS_11char_traitsIcEENS_9allocatorIcEEEEN8nlohmann16json_abi_v3_12_010basic_jsonIS1_NS_6vectorES7_bxydS5_NS9_14adl_serializerENSB_IhNS5_IhEEEEvEENS_4lessIvEENS5_INS_4pairIKS7_SF_EEEEEEZNSF_6createISM_JEEEPT_DpOT0_EUlPSM_E_EC2B8ue170006ILb1EvEEST_NS_16__dependent_typeINS_27__unique_ptr_deleter_sfinaeISU_EEXT_EE15__lval_ref_typeE, symObjAddr: 0x131A8, symBinAddr: 0x100016264, symSize: 0x48 }
  - { offsetInCU: 0x44FFD, offset: 0x44FFD, size: 0x8, addend: 0x0, symName: __ZNSt3__117__compressed_pairIPNS_3mapINS_12basic_stringIcNS_11char_traitsIcEENS_9allocatorIcEEEEN8nlohmann16json_abi_v3_12_010basic_jsonIS1_NS_6vectorES7_bxydS5_NS9_14adl_serializerENSB_IhNS5_IhEEEEvEENS_4lessIvEENS5_INS_4pairIKS7_SF_EEEEEEZNSF_6createISM_JEEEPT_DpOT0_EUlSN_E_EC1B8ue170006IRSN_RKSU_EEOSP_OT0_, symObjAddr: 0x131F0, symBinAddr: 0x1000162AC, symSize: 0x3C }
  - { offsetInCU: 0x45055, offset: 0x45055, size: 0x8, addend: 0x0, symName: __ZNSt3__117__compressed_pairIPNS_3mapINS_12basic_stringIcNS_11char_traitsIcEENS_9allocatorIcEEEEN8nlohmann16json_abi_v3_12_010basic_jsonIS1_NS_6vectorES7_bxydS5_NS9_14adl_serializerENSB_IhNS5_IhEEEEvEENS_4lessIvEENS5_INS_4pairIKS7_SF_EEEEEEZNSF_6createISM_JEEEPT_DpOT0_EUlSN_E_EC2B8ue170006IRSN_RKSU_EEOSP_OT0_, symObjAddr: 0x1322C, symBinAddr: 0x1000162E8, symSize: 0x48 }
  - { offsetInCU: 0x450AD, offset: 0x450AD, size: 0x8, addend: 0x0, symName: __ZNSt3__122__compressed_pair_elemIPNS_3mapINS_12basic_stringIcNS_11char_traitsIcEENS_9allocatorIcEEEEN8nlohmann16json_abi_v3_12_010basic_jsonIS1_NS_6vectorES7_bxydS5_NS9_14adl_serializerENSB_IhNS5_IhEEEEvEENS_4lessIvEENS5_INS_4pairIKS7_SF_EEEEEELi0ELb0EEC2B8ue170006IRSN_vEEOT_, symObjAddr: 0x13274, symBinAddr: 0x100016330, symSize: 0x24 }
  - { offsetInCU: 0x450EF, offset: 0x450EF, size: 0x8, addend: 0x0, symName: __ZNSt3__122__compressed_pair_elemIZN8nlohmann16json_abi_v3_12_010basic_jsonINS_3mapENS_6vectorENS_12basic_stringIcNS_11char_traitsIcEENS_9allocatorIcEEEEbxydS9_NS2_14adl_serializerENS5_IhNS9_IhEEEEvE6createINS4_ISB_SF_NS_4lessIvEENS9_INS_4pairIKSB_SF_EEEEEEJEEEPT_DpOT0_EUlPSN_E_Li1ELb0EEC2B8ue170006IRKSU_vEEOSO_, symObjAddr: 0x13298, symBinAddr: 0x100016354, symSize: 0x24 }
  - { offsetInCU: 0x45131, offset: 0x45131, size: 0x8, addend: 0x0, symName: __ZNSt3__13mapINS_12basic_stringIcNS_11char_traitsIcEENS_9allocatorIcEEEEN8nlohmann16json_abi_v3_12_010basic_jsonIS0_NS_6vectorES6_bxydS4_NS8_14adl_serializerENSA_IhNS4_IhEEEEvEENS_4lessIvEENS4_INS_4pairIKS6_SE_EEEEEC1B8ue170006Ev, symObjAddr: 0x132F0, symBinAddr: 0x1000163AC, symSize: 0x2C }
  - { offsetInCU: 0x4515B, offset: 0x4515B, size: 0x8, addend: 0x0, symName: __ZNSt3__13mapINS_12basic_stringIcNS_11char_traitsIcEENS_9allocatorIcEEEEN8nlohmann16json_abi_v3_12_010basic_jsonIS0_NS_6vectorES6_bxydS4_NS8_14adl_serializerENSA_IhNS4_IhEEEEvEENS_4lessIvEENS4_INS_4pairIKS6_SE_EEEEEC2B8ue170006Ev, symObjAddr: 0x1331C, symBinAddr: 0x1000163D8, symSize: 0x40 }
  - { offsetInCU: 0x45185, offset: 0x45185, size: 0x8, addend: 0x0, symName: __ZNSt3__119__map_value_compareINS_12basic_stringIcNS_11char_traitsIcEENS_9allocatorIcEEEENS_12__value_typeIS6_N8nlohmann16json_abi_v3_12_010basic_jsonINS_3mapENS_6vectorES6_bxydS4_NS9_14adl_serializerENSC_IhNS4_IhEEEEvEEEENS_4lessIvEELb1EEC1B8ue170006ESJ_, symObjAddr: 0x1335C, symBinAddr: 0x100016418, symSize: 0x2C }
  - { offsetInCU: 0x451BF, offset: 0x451BF, size: 0x8, addend: 0x0, symName: __ZNSt3__16__treeINS_12__value_typeINS_12basic_stringIcNS_11char_traitsIcEENS_9allocatorIcEEEEN8nlohmann16json_abi_v3_12_010basic_jsonINS_3mapENS_6vectorES7_bxydS5_NS9_14adl_serializerENSC_IhNS5_IhEEEEvEEEENS_19__map_value_compareIS7_SH_NS_4lessIvEELb1EEENS5_ISH_EEEC1ERKSL_, symObjAddr: 0x13388, symBinAddr: 0x100016444, symSize: 0x34 }
  - { offsetInCU: 0x451FB, offset: 0x451FB, size: 0x8, addend: 0x0, symName: __ZNSt3__119__map_value_compareINS_12basic_stringIcNS_11char_traitsIcEENS_9allocatorIcEEEENS_12__value_typeIS6_N8nlohmann16json_abi_v3_12_010basic_jsonINS_3mapENS_6vectorES6_bxydS4_NS9_14adl_serializerENSC_IhNS4_IhEEEEvEEEENS_4lessIvEELb1EEC2B8ue170006ESJ_, symObjAddr: 0x133BC, symBinAddr: 0x100016478, symSize: 0x14 }
  - { offsetInCU: 0x45235, offset: 0x45235, size: 0x8, addend: 0x0, symName: __ZNSt3__16__treeINS_12__value_typeINS_12basic_stringIcNS_11char_traitsIcEENS_9allocatorIcEEEEN8nlohmann16json_abi_v3_12_010basic_jsonINS_3mapENS_6vectorES7_bxydS5_NS9_14adl_serializerENSC_IhNS5_IhEEEEvEEEENS_19__map_value_compareIS7_SH_NS_4lessIvEELb1EEENS5_ISH_EEEC2ERKSL_, symObjAddr: 0x133D0, symBinAddr: 0x10001648C, symSize: 0x7C }
  - { offsetInCU: 0x45271, offset: 0x45271, size: 0x8, addend: 0x0, symName: __ZNSt3__117__compressed_pairINS_15__tree_end_nodeIPNS_16__tree_node_baseIPvEEEENS_9allocatorINS_11__tree_nodeINS_12__value_typeINS_12basic_stringIcNS_11char_traitsIcEENS7_IcEEEEN8nlohmann16json_abi_v3_12_010basic_jsonINS_3mapENS_6vectorESE_bxydS7_NSG_14adl_serializerENSJ_IhNS7_IhEEEEvEEEES3_EEEEEC1B8ue170006ILb1EvEEv, symObjAddr: 0x1344C, symBinAddr: 0x100016508, symSize: 0x2C }
  - { offsetInCU: 0x452A6, offset: 0x452A6, size: 0x8, addend: 0x0, symName: __ZNSt3__117__compressed_pairImNS_19__map_value_compareINS_12basic_stringIcNS_11char_traitsIcEENS_9allocatorIcEEEENS_12__value_typeIS7_N8nlohmann16json_abi_v3_12_010basic_jsonINS_3mapENS_6vectorES7_bxydS5_NSA_14adl_serializerENSD_IhNS5_IhEEEEvEEEENS_4lessIvEELb1EEEEC1B8ue170006IiRKSL_EEOT_OT0_, symObjAddr: 0x13478, symBinAddr: 0x100016534, symSize: 0x3C }
  - { offsetInCU: 0x452FE, offset: 0x452FE, size: 0x8, addend: 0x0, symName: __ZNSt3__117__compressed_pairINS_15__tree_end_nodeIPNS_16__tree_node_baseIPvEEEENS_9allocatorINS_11__tree_nodeINS_12__value_typeINS_12basic_stringIcNS_11char_traitsIcEENS7_IcEEEEN8nlohmann16json_abi_v3_12_010basic_jsonINS_3mapENS_6vectorESE_bxydS7_NSG_14adl_serializerENSJ_IhNS7_IhEEEEvEEEES3_EEEEEC2B8ue170006ILb1EvEEv, symObjAddr: 0x134B4, symBinAddr: 0x100016570, symSize: 0x34 }
  - { offsetInCU: 0x45333, offset: 0x45333, size: 0x8, addend: 0x0, symName: __ZNSt3__122__compressed_pair_elemINS_15__tree_end_nodeIPNS_16__tree_node_baseIPvEEEELi0ELb0EEC2B8ue170006ENS_16__value_init_tagE, symObjAddr: 0x134E8, symBinAddr: 0x1000165A4, symSize: 0x2C }
  - { offsetInCU: 0x45368, offset: 0x45368, size: 0x8, addend: 0x0, symName: __ZNSt3__122__compressed_pair_elemINS_9allocatorINS_11__tree_nodeINS_12__value_typeINS_12basic_stringIcNS_11char_traitsIcEENS1_IcEEEEN8nlohmann16json_abi_v3_12_010basic_jsonINS_3mapENS_6vectorES8_bxydS1_NSA_14adl_serializerENSD_IhNS1_IhEEEEvEEEEPvEEEELi1ELb1EEC2B8ue170006ENS_16__value_init_tagE, symObjAddr: 0x13514, symBinAddr: 0x1000165D0, symSize: 0x2C }
  - { offsetInCU: 0x4539D, offset: 0x4539D, size: 0x8, addend: 0x0, symName: __ZNSt3__115__tree_end_nodeIPNS_16__tree_node_baseIPvEEEC1B8ue170006Ev, symObjAddr: 0x13540, symBinAddr: 0x1000165FC, symSize: 0x2C }
  - { offsetInCU: 0x453C7, offset: 0x453C7, size: 0x8, addend: 0x0, symName: __ZNSt3__115__tree_end_nodeIPNS_16__tree_node_baseIPvEEEC2B8ue170006Ev, symObjAddr: 0x1356C, symBinAddr: 0x100016628, symSize: 0x18 }
  - { offsetInCU: 0x453F1, offset: 0x453F1, size: 0x8, addend: 0x0, symName: __ZNSt3__19allocatorINS_11__tree_nodeINS_12__value_typeINS_12basic_stringIcNS_11char_traitsIcEENS0_IcEEEEN8nlohmann16json_abi_v3_12_010basic_jsonINS_3mapENS_6vectorES7_bxydS0_NS9_14adl_serializerENSC_IhNS0_IhEEEEvEEEEPvEEEC2B8ue170006Ev, symObjAddr: 0x13584, symBinAddr: 0x100016640, symSize: 0x2C }
  - { offsetInCU: 0x4541B, offset: 0x4541B, size: 0x8, addend: 0x0, symName: __ZNSt3__116__non_trivial_ifILb1ENS_9allocatorINS_11__tree_nodeINS_12__value_typeINS_12basic_stringIcNS_11char_traitsIcEENS1_IcEEEEN8nlohmann16json_abi_v3_12_010basic_jsonINS_3mapENS_6vectorES8_bxydS1_NSA_14adl_serializerENSD_IhNS1_IhEEEEvEEEEPvEEEEEC2B8ue170006Ev, symObjAddr: 0x135B0, symBinAddr: 0x10001666C, symSize: 0x14 }
  - { offsetInCU: 0x45445, offset: 0x45445, size: 0x8, addend: 0x0, symName: __ZNSt3__117__compressed_pairImNS_19__map_value_compareINS_12basic_stringIcNS_11char_traitsIcEENS_9allocatorIcEEEENS_12__value_typeIS7_N8nlohmann16json_abi_v3_12_010basic_jsonINS_3mapENS_6vectorES7_bxydS5_NSA_14adl_serializerENSD_IhNS5_IhEEEEvEEEENS_4lessIvEELb1EEEEC2B8ue170006IiRKSL_EEOT_OT0_, symObjAddr: 0x135C4, symBinAddr: 0x100016680, symSize: 0x44 }
  - { offsetInCU: 0x4549D, offset: 0x4549D, size: 0x8, addend: 0x0, symName: __ZNSt3__122__compressed_pair_elemImLi0ELb0EEC2B8ue170006IivEEOT_, symObjAddr: 0x13608, symBinAddr: 0x1000166C4, symSize: 0x24 }
  - { offsetInCU: 0x454DF, offset: 0x454DF, size: 0x8, addend: 0x0, symName: __ZNSt3__122__compressed_pair_elemINS_19__map_value_compareINS_12basic_stringIcNS_11char_traitsIcEENS_9allocatorIcEEEENS_12__value_typeIS7_N8nlohmann16json_abi_v3_12_010basic_jsonINS_3mapENS_6vectorES7_bxydS5_NSA_14adl_serializerENSD_IhNS5_IhEEEEvEEEENS_4lessIvEELb1EEELi1ELb1EEC2B8ue170006IRKSL_vEEOT_, symObjAddr: 0x1362C, symBinAddr: 0x1000166E8, symSize: 0x18 }
  - { offsetInCU: 0x45521, offset: 0x45521, size: 0x8, addend: 0x0, symName: __ZNKSt3__117__compressed_pairIPNS_3mapINS_12basic_stringIcNS_11char_traitsIcEENS_9allocatorIcEEEEN8nlohmann16json_abi_v3_12_010basic_jsonIS1_NS_6vectorES7_bxydS5_NS9_14adl_serializerENSB_IhNS5_IhEEEEvEENS_4lessIvEENS5_INS_4pairIKS7_SF_EEEEEEZNSF_6createISM_JEEEPT_DpOT0_EUlSN_E_E5firstB8ue170006Ev, symObjAddr: 0x13644, symBinAddr: 0x100016700, symSize: 0x24 }
  - { offsetInCU: 0x45547, offset: 0x45547, size: 0x8, addend: 0x0, symName: __ZNKSt3__122__compressed_pair_elemIPNS_3mapINS_12basic_stringIcNS_11char_traitsIcEENS_9allocatorIcEEEEN8nlohmann16json_abi_v3_12_010basic_jsonIS1_NS_6vectorES7_bxydS5_NS9_14adl_serializerENSB_IhNS5_IhEEEEvEENS_4lessIvEENS5_INS_4pairIKS7_SF_EEEEEELi0ELb0EE5__getB8ue170006Ev, symObjAddr: 0x13668, symBinAddr: 0x100016724, symSize: 0x14 }
  - { offsetInCU: 0x4556D, offset: 0x4556D, size: 0x8, addend: 0x0, symName: __ZNKSt3__110unique_ptrINS_3mapINS_12basic_stringIcNS_11char_traitsIcEENS_9allocatorIcEEEEN8nlohmann16json_abi_v3_12_010basic_jsonIS1_NS_6vectorES7_bxydS5_NS9_14adl_serializerENSB_IhNS5_IhEEEEvEENS_4lessIvEENS5_INS_4pairIKS7_SF_EEEEEEZNSF_6createISM_JEEEPT_DpOT0_EUlPSM_E_EcvbB8ue170006Ev, symObjAddr: 0x1367C, symBinAddr: 0x100016738, symSize: 0x34 }
  - { offsetInCU: 0x45593, offset: 0x45593, size: 0x8, addend: 0x0, symName: __ZNSt3__117__compressed_pairIPNS_3mapINS_12basic_stringIcNS_11char_traitsIcEENS_9allocatorIcEEEEN8nlohmann16json_abi_v3_12_010basic_jsonIS1_NS_6vectorES7_bxydS5_NS9_14adl_serializerENSB_IhNS5_IhEEEEvEENS_4lessIvEENS5_INS_4pairIKS7_SF_EEEEEEZNSF_6createISM_JEEEPT_DpOT0_EUlSN_E_E5firstB8ue170006Ev, symObjAddr: 0x136B0, symBinAddr: 0x10001676C, symSize: 0x24 }
  - { offsetInCU: 0x455B9, offset: 0x455B9, size: 0x8, addend: 0x0, symName: __ZNSt3__122__compressed_pair_elemIPNS_3mapINS_12basic_stringIcNS_11char_traitsIcEENS_9allocatorIcEEEEN8nlohmann16json_abi_v3_12_010basic_jsonIS1_NS_6vectorES7_bxydS5_NS9_14adl_serializerENSB_IhNS5_IhEEEEvEENS_4lessIvEENS5_INS_4pairIKS7_SF_EEEEEELi0ELb0EE5__getB8ue170006Ev, symObjAddr: 0x136D4, symBinAddr: 0x100016790, symSize: 0x14 }
  - { offsetInCU: 0x455DF, offset: 0x455DF, size: 0x8, addend: 0x0, symName: __ZNSt3__110unique_ptrINS_3mapINS_12basic_stringIcNS_11char_traitsIcEENS_9allocatorIcEEEEN8nlohmann16json_abi_v3_12_010basic_jsonIS1_NS_6vectorES7_bxydS5_NS9_14adl_serializerENSB_IhNS5_IhEEEEvEENS_4lessIvEENS5_INS_4pairIKS7_SF_EEEEEEZNSF_6createISM_JEEEPT_DpOT0_EUlPSM_E_ED2B8ue170006Ev, symObjAddr: 0x136E8, symBinAddr: 0x1000167A4, symSize: 0x30 }
  - { offsetInCU: 0x45609, offset: 0x45609, size: 0x8, addend: 0x0, symName: __ZNSt3__110unique_ptrINS_3mapINS_12basic_stringIcNS_11char_traitsIcEENS_9allocatorIcEEEEN8nlohmann16json_abi_v3_12_010basic_jsonIS1_NS_6vectorES7_bxydS5_NS9_14adl_serializerENSB_IhNS5_IhEEEEvEENS_4lessIvEENS5_INS_4pairIKS7_SF_EEEEEEZNSF_6createISM_JEEEPT_DpOT0_EUlPSM_E_E5resetB8ue170006EST_, symObjAddr: 0x13718, symBinAddr: 0x1000167D4, symSize: 0x80 }
  - { offsetInCU: 0x4564E, offset: 0x4564E, size: 0x8, addend: 0x0, symName: __ZNSt3__117__compressed_pairIPNS_3mapINS_12basic_stringIcNS_11char_traitsIcEENS_9allocatorIcEEEEN8nlohmann16json_abi_v3_12_010basic_jsonIS1_NS_6vectorES7_bxydS5_NS9_14adl_serializerENSB_IhNS5_IhEEEEvEENS_4lessIvEENS5_INS_4pairIKS7_SF_EEEEEEZNSF_6createISM_JEEEPT_DpOT0_EUlSN_E_E6secondB8ue170006Ev, symObjAddr: 0x13798, symBinAddr: 0x100016854, symSize: 0x28 }
  - { offsetInCU: 0x4567A, offset: 0x4567A, size: 0x8, addend: 0x0, symName: __ZZN8nlohmann16json_abi_v3_12_010basic_jsonINSt3__13mapENS2_6vectorENS2_12basic_stringIcNS2_11char_traitsIcEENS2_9allocatorIcEEEEbxydS8_NS0_14adl_serializerENS4_IhNS8_IhEEEEvE6createINS3_ISA_SE_NS2_4lessIvEENS8_INS2_4pairIKSA_SE_EEEEEEJEEEPT_DpOT0_ENKUlPSM_E_clESS_, symObjAddr: 0x137C0, symBinAddr: 0x10001687C, symSize: 0x34 }
  - { offsetInCU: 0x456B4, offset: 0x456B4, size: 0x8, addend: 0x0, symName: __ZNSt3__122__compressed_pair_elemIZN8nlohmann16json_abi_v3_12_010basic_jsonINS_3mapENS_6vectorENS_12basic_stringIcNS_11char_traitsIcEENS_9allocatorIcEEEEbxydS9_NS2_14adl_serializerENS5_IhNS9_IhEEEEvE6createINS4_ISB_SF_NS_4lessIvEENS9_INS_4pairIKSB_SF_EEEEEEJEEEPT_DpOT0_EUlPSN_E_Li1ELb0EE5__getB8ue170006Ev, symObjAddr: 0x137F4, symBinAddr: 0x1000168B0, symSize: 0x14 }
  - { offsetInCU: 0x456DA, offset: 0x456DA, size: 0x8, addend: 0x0, symName: __ZNSt3__116allocator_traitsINS_9allocatorINS_6vectorIN8nlohmann16json_abi_v3_12_010basic_jsonINS_3mapES2_NS_12basic_stringIcNS_11char_traitsIcEENS1_IcEEEEbxydS1_NS4_14adl_serializerENS2_IhNS1_IhEEEEvEENS1_ISF_EEEEEEE8allocateB8ue170006ERSI_m, symObjAddr: 0x13808, symBinAddr: 0x1000168C4, symSize: 0x2C }
  - { offsetInCU: 0x457B0, offset: 0x457B0, size: 0x8, addend: 0x0, symName: __ZNSt3__110unique_ptrINS_6vectorIN8nlohmann16json_abi_v3_12_010basic_jsonINS_3mapES1_NS_12basic_stringIcNS_11char_traitsIcEENS_9allocatorIcEEEEbxydS9_NS3_14adl_serializerENS1_IhNS9_IhEEEEvEENS9_ISF_EEEEZNSF_6createISH_JEEEPT_DpOT0_EUlPSH_E_EC1B8ue170006ILb1EvEESO_NS_16__dependent_typeINS_27__unique_ptr_deleter_sfinaeISP_EEXT_EE15__lval_ref_typeE, symObjAddr: 0x13834, symBinAddr: 0x1000168F0, symSize: 0x3C }
  - { offsetInCU: 0x45801, offset: 0x45801, size: 0x8, addend: 0x0, symName: __ZNSt3__116allocator_traitsINS_9allocatorINS_6vectorIN8nlohmann16json_abi_v3_12_010basic_jsonINS_3mapES2_NS_12basic_stringIcNS_11char_traitsIcEENS1_IcEEEEbxydS1_NS4_14adl_serializerENS2_IhNS1_IhEEEEvEENS1_ISF_EEEEEEE9constructB8ue170006ISH_JEvvEEvRSI_PT_DpOT0_, symObjAddr: 0x13870, symBinAddr: 0x10001692C, symSize: 0x28 }
  - { offsetInCU: 0x45842, offset: 0x45842, size: 0x8, addend: 0x0, symName: __ZNKSt3__110unique_ptrINS_6vectorIN8nlohmann16json_abi_v3_12_010basic_jsonINS_3mapES1_NS_12basic_stringIcNS_11char_traitsIcEENS_9allocatorIcEEEEbxydS9_NS3_14adl_serializerENS1_IhNS9_IhEEEEvEENS9_ISF_EEEEZNSF_6createISH_JEEEPT_DpOT0_EUlPSH_E_E3getB8ue170006Ev, symObjAddr: 0x13898, symBinAddr: 0x100016954, symSize: 0x28 }
  - { offsetInCU: 0x45868, offset: 0x45868, size: 0x8, addend: 0x0, symName: __ZNSt3__110unique_ptrINS_6vectorIN8nlohmann16json_abi_v3_12_010basic_jsonINS_3mapES1_NS_12basic_stringIcNS_11char_traitsIcEENS_9allocatorIcEEEEbxydS9_NS3_14adl_serializerENS1_IhNS9_IhEEEEvEENS9_ISF_EEEEZNSF_6createISH_JEEEPT_DpOT0_EUlPSH_E_E7releaseB8ue170006Ev, symObjAddr: 0x138F0, symBinAddr: 0x1000169AC, symSize: 0x44 }
  - { offsetInCU: 0x4589D, offset: 0x4589D, size: 0x8, addend: 0x0, symName: __ZNSt3__110unique_ptrINS_6vectorIN8nlohmann16json_abi_v3_12_010basic_jsonINS_3mapES1_NS_12basic_stringIcNS_11char_traitsIcEENS_9allocatorIcEEEEbxydS9_NS3_14adl_serializerENS1_IhNS9_IhEEEEvEENS9_ISF_EEEEZNSF_6createISH_JEEEPT_DpOT0_EUlPSH_E_ED1B8ue170006Ev, symObjAddr: 0x13934, symBinAddr: 0x1000169F0, symSize: 0x2C }
  - { offsetInCU: 0x458C7, offset: 0x458C7, size: 0x8, addend: 0x0, symName: __ZNSt3__19allocatorINS_6vectorIN8nlohmann16json_abi_v3_12_010basic_jsonINS_3mapES1_NS_12basic_stringIcNS_11char_traitsIcEENS0_IcEEEEbxydS0_NS3_14adl_serializerENS1_IhNS0_IhEEEEvEENS0_ISE_EEEEE8allocateB8ue170006Em, symObjAddr: 0x13960, symBinAddr: 0x100016A1C, symSize: 0x5C }
  - { offsetInCU: 0x45906, offset: 0x45906, size: 0x8, addend: 0x0, symName: __ZNSt3__116allocator_traitsINS_9allocatorINS_6vectorIN8nlohmann16json_abi_v3_12_010basic_jsonINS_3mapES2_NS_12basic_stringIcNS_11char_traitsIcEENS1_IcEEEEbxydS1_NS4_14adl_serializerENS2_IhNS1_IhEEEEvEENS1_ISF_EEEEEEE8max_sizeB8ue170006ISI_vvEEmRKSI_, symObjAddr: 0x139BC, symBinAddr: 0x100016A78, symSize: 0x28 }
  - { offsetInCU: 0x45932, offset: 0x45932, size: 0x8, addend: 0x0, symName: __ZNSt3__110unique_ptrINS_6vectorIN8nlohmann16json_abi_v3_12_010basic_jsonINS_3mapES1_NS_12basic_stringIcNS_11char_traitsIcEENS_9allocatorIcEEEEbxydS9_NS3_14adl_serializerENS1_IhNS9_IhEEEEvEENS9_ISF_EEEEZNSF_6createISH_JEEEPT_DpOT0_EUlPSH_E_EC2B8ue170006ILb1EvEESO_NS_16__dependent_typeINS_27__unique_ptr_deleter_sfinaeISP_EEXT_EE15__lval_ref_typeE, symObjAddr: 0x139E4, symBinAddr: 0x100016AA0, symSize: 0x48 }
  - { offsetInCU: 0x45983, offset: 0x45983, size: 0x8, addend: 0x0, symName: __ZNSt3__117__compressed_pairIPNS_6vectorIN8nlohmann16json_abi_v3_12_010basic_jsonINS_3mapES1_NS_12basic_stringIcNS_11char_traitsIcEENS_9allocatorIcEEEEbxydS9_NS3_14adl_serializerENS1_IhNS9_IhEEEEvEENS9_ISF_EEEEZNSF_6createISH_JEEEPT_DpOT0_EUlSI_E_EC1B8ue170006IRSI_RKSP_EEOSK_OT0_, symObjAddr: 0x13A2C, symBinAddr: 0x100016AE8, symSize: 0x3C }
  - { offsetInCU: 0x459DB, offset: 0x459DB, size: 0x8, addend: 0x0, symName: __ZNSt3__117__compressed_pairIPNS_6vectorIN8nlohmann16json_abi_v3_12_010basic_jsonINS_3mapES1_NS_12basic_stringIcNS_11char_traitsIcEENS_9allocatorIcEEEEbxydS9_NS3_14adl_serializerENS1_IhNS9_IhEEEEvEENS9_ISF_EEEEZNSF_6createISH_JEEEPT_DpOT0_EUlSI_E_EC2B8ue170006IRSI_RKSP_EEOSK_OT0_, symObjAddr: 0x13A68, symBinAddr: 0x100016B24, symSize: 0x48 }
  - { offsetInCU: 0x45A33, offset: 0x45A33, size: 0x8, addend: 0x0, symName: __ZNSt3__122__compressed_pair_elemIPNS_6vectorIN8nlohmann16json_abi_v3_12_010basic_jsonINS_3mapES1_NS_12basic_stringIcNS_11char_traitsIcEENS_9allocatorIcEEEEbxydS9_NS3_14adl_serializerENS1_IhNS9_IhEEEEvEENS9_ISF_EEEELi0ELb0EEC2B8ue170006IRSI_vEEOT_, symObjAddr: 0x13AB0, symBinAddr: 0x100016B6C, symSize: 0x24 }
  - { offsetInCU: 0x45A75, offset: 0x45A75, size: 0x8, addend: 0x0, symName: __ZNSt3__122__compressed_pair_elemIZN8nlohmann16json_abi_v3_12_010basic_jsonINS_3mapENS_6vectorENS_12basic_stringIcNS_11char_traitsIcEENS_9allocatorIcEEEEbxydS9_NS2_14adl_serializerENS5_IhNS9_IhEEEEvE6createINS5_ISF_NS9_ISF_EEEEJEEEPT_DpOT0_EUlPSI_E_Li1ELb0EEC2B8ue170006IRKSP_vEEOSJ_, symObjAddr: 0x13AD4, symBinAddr: 0x100016B90, symSize: 0x24 }
  - { offsetInCU: 0x45AB7, offset: 0x45AB7, size: 0x8, addend: 0x0, symName: __ZNKSt3__117__compressed_pairIPNS_6vectorIN8nlohmann16json_abi_v3_12_010basic_jsonINS_3mapES1_NS_12basic_stringIcNS_11char_traitsIcEENS_9allocatorIcEEEEbxydS9_NS3_14adl_serializerENS1_IhNS9_IhEEEEvEENS9_ISF_EEEEZNSF_6createISH_JEEEPT_DpOT0_EUlSI_E_E5firstB8ue170006Ev, symObjAddr: 0x13B2C, symBinAddr: 0x100016BE8, symSize: 0x24 }
  - { offsetInCU: 0x45ADD, offset: 0x45ADD, size: 0x8, addend: 0x0, symName: __ZNKSt3__122__compressed_pair_elemIPNS_6vectorIN8nlohmann16json_abi_v3_12_010basic_jsonINS_3mapES1_NS_12basic_stringIcNS_11char_traitsIcEENS_9allocatorIcEEEEbxydS9_NS3_14adl_serializerENS1_IhNS9_IhEEEEvEENS9_ISF_EEEELi0ELb0EE5__getB8ue170006Ev, symObjAddr: 0x13B50, symBinAddr: 0x100016C0C, symSize: 0x14 }
  - { offsetInCU: 0x45B03, offset: 0x45B03, size: 0x8, addend: 0x0, symName: __ZNKSt3__110unique_ptrINS_6vectorIN8nlohmann16json_abi_v3_12_010basic_jsonINS_3mapES1_NS_12basic_stringIcNS_11char_traitsIcEENS_9allocatorIcEEEEbxydS9_NS3_14adl_serializerENS1_IhNS9_IhEEEEvEENS9_ISF_EEEEZNSF_6createISH_JEEEPT_DpOT0_EUlPSH_E_EcvbB8ue170006Ev, symObjAddr: 0x13B64, symBinAddr: 0x100016C20, symSize: 0x34 }
  - { offsetInCU: 0x45B29, offset: 0x45B29, size: 0x8, addend: 0x0, symName: __ZNSt3__117__compressed_pairIPNS_6vectorIN8nlohmann16json_abi_v3_12_010basic_jsonINS_3mapES1_NS_12basic_stringIcNS_11char_traitsIcEENS_9allocatorIcEEEEbxydS9_NS3_14adl_serializerENS1_IhNS9_IhEEEEvEENS9_ISF_EEEEZNSF_6createISH_JEEEPT_DpOT0_EUlSI_E_E5firstB8ue170006Ev, symObjAddr: 0x13B98, symBinAddr: 0x100016C54, symSize: 0x24 }
  - { offsetInCU: 0x45B4F, offset: 0x45B4F, size: 0x8, addend: 0x0, symName: __ZNSt3__122__compressed_pair_elemIPNS_6vectorIN8nlohmann16json_abi_v3_12_010basic_jsonINS_3mapES1_NS_12basic_stringIcNS_11char_traitsIcEENS_9allocatorIcEEEEbxydS9_NS3_14adl_serializerENS1_IhNS9_IhEEEEvEENS9_ISF_EEEELi0ELb0EE5__getB8ue170006Ev, symObjAddr: 0x13BBC, symBinAddr: 0x100016C78, symSize: 0x14 }
  - { offsetInCU: 0x45B75, offset: 0x45B75, size: 0x8, addend: 0x0, symName: __ZNSt3__110unique_ptrINS_6vectorIN8nlohmann16json_abi_v3_12_010basic_jsonINS_3mapES1_NS_12basic_stringIcNS_11char_traitsIcEENS_9allocatorIcEEEEbxydS9_NS3_14adl_serializerENS1_IhNS9_IhEEEEvEENS9_ISF_EEEEZNSF_6createISH_JEEEPT_DpOT0_EUlPSH_E_ED2B8ue170006Ev, symObjAddr: 0x13BD0, symBinAddr: 0x100016C8C, symSize: 0x30 }
  - { offsetInCU: 0x45B9F, offset: 0x45B9F, size: 0x8, addend: 0x0, symName: __ZNSt3__110unique_ptrINS_6vectorIN8nlohmann16json_abi_v3_12_010basic_jsonINS_3mapES1_NS_12basic_stringIcNS_11char_traitsIcEENS_9allocatorIcEEEEbxydS9_NS3_14adl_serializerENS1_IhNS9_IhEEEEvEENS9_ISF_EEEEZNSF_6createISH_JEEEPT_DpOT0_EUlPSH_E_E5resetB8ue170006ESO_, symObjAddr: 0x13C00, symBinAddr: 0x100016CBC, symSize: 0x80 }
  - { offsetInCU: 0x45BE4, offset: 0x45BE4, size: 0x8, addend: 0x0, symName: __ZNSt3__117__compressed_pairIPNS_6vectorIN8nlohmann16json_abi_v3_12_010basic_jsonINS_3mapES1_NS_12basic_stringIcNS_11char_traitsIcEENS_9allocatorIcEEEEbxydS9_NS3_14adl_serializerENS1_IhNS9_IhEEEEvEENS9_ISF_EEEEZNSF_6createISH_JEEEPT_DpOT0_EUlSI_E_E6secondB8ue170006Ev, symObjAddr: 0x13C80, symBinAddr: 0x100016D3C, symSize: 0x28 }
  - { offsetInCU: 0x45C10, offset: 0x45C10, size: 0x8, addend: 0x0, symName: __ZZN8nlohmann16json_abi_v3_12_010basic_jsonINSt3__13mapENS2_6vectorENS2_12basic_stringIcNS2_11char_traitsIcEENS2_9allocatorIcEEEEbxydS8_NS0_14adl_serializerENS4_IhNS8_IhEEEEvE6createINS4_ISE_NS8_ISE_EEEEJEEEPT_DpOT0_ENKUlPSH_E_clESN_, symObjAddr: 0x13CA8, symBinAddr: 0x100016D64, symSize: 0x34 }
  - { offsetInCU: 0x45C4A, offset: 0x45C4A, size: 0x8, addend: 0x0, symName: __ZNSt3__122__compressed_pair_elemIZN8nlohmann16json_abi_v3_12_010basic_jsonINS_3mapENS_6vectorENS_12basic_stringIcNS_11char_traitsIcEENS_9allocatorIcEEEEbxydS9_NS2_14adl_serializerENS5_IhNS9_IhEEEEvE6createINS5_ISF_NS9_ISF_EEEEJEEEPT_DpOT0_EUlPSI_E_Li1ELb0EE5__getB8ue170006Ev, symObjAddr: 0x13CDC, symBinAddr: 0x100016D98, symSize: 0x14 }
  - { offsetInCU: 0x45CE3, offset: 0x45CE3, size: 0x8, addend: 0x0, symName: __ZNSt3__110unique_ptrINS_12basic_stringIcNS_11char_traitsIcEENS_9allocatorIcEEEEZN8nlohmann16json_abi_v3_12_010basic_jsonINS_3mapENS_6vectorES6_bxydS4_NS8_14adl_serializerENSB_IhNS4_IhEEEEvE6createIS6_JRA1_KcEEEPT_DpOT0_EUlPS6_E_EC1B8ue170006ILb1EvEESP_NS_16__dependent_typeINS_27__unique_ptr_deleter_sfinaeISQ_EEXT_EE15__lval_ref_typeE, symObjAddr: 0x13CF0, symBinAddr: 0x100016DAC, symSize: 0x3C }
  - { offsetInCU: 0x45D34, offset: 0x45D34, size: 0x8, addend: 0x0, symName: __ZNSt3__116allocator_traitsINS_9allocatorINS_12basic_stringIcNS_11char_traitsIcEENS1_IcEEEEEEE9constructB8ue170006IS6_JRA1_KcEvvEEvRS7_PT_DpOT0_, symObjAddr: 0x13D2C, symBinAddr: 0x100016DE8, symSize: 0x30 }
  - { offsetInCU: 0x45D8B, offset: 0x45D8B, size: 0x8, addend: 0x0, symName: __ZNKSt3__110unique_ptrINS_12basic_stringIcNS_11char_traitsIcEENS_9allocatorIcEEEEZN8nlohmann16json_abi_v3_12_010basic_jsonINS_3mapENS_6vectorES6_bxydS4_NS8_14adl_serializerENSB_IhNS4_IhEEEEvE6createIS6_JRA1_KcEEEPT_DpOT0_EUlPS6_E_E3getB8ue170006Ev, symObjAddr: 0x13D5C, symBinAddr: 0x100016E18, symSize: 0x28 }
  - { offsetInCU: 0x45DB1, offset: 0x45DB1, size: 0x8, addend: 0x0, symName: __ZNSt3__110unique_ptrINS_12basic_stringIcNS_11char_traitsIcEENS_9allocatorIcEEEEZN8nlohmann16json_abi_v3_12_010basic_jsonINS_3mapENS_6vectorES6_bxydS4_NS8_14adl_serializerENSB_IhNS4_IhEEEEvE6createIS6_JRA1_KcEEEPT_DpOT0_EUlPS6_E_E7releaseB8ue170006Ev, symObjAddr: 0x13DB4, symBinAddr: 0x100016E70, symSize: 0x44 }
  - { offsetInCU: 0x45DE6, offset: 0x45DE6, size: 0x8, addend: 0x0, symName: __ZNSt3__110unique_ptrINS_12basic_stringIcNS_11char_traitsIcEENS_9allocatorIcEEEEZN8nlohmann16json_abi_v3_12_010basic_jsonINS_3mapENS_6vectorES6_bxydS4_NS8_14adl_serializerENSB_IhNS4_IhEEEEvE6createIS6_JRA1_KcEEEPT_DpOT0_EUlPS6_E_ED1B8ue170006Ev, symObjAddr: 0x13DF8, symBinAddr: 0x100016EB4, symSize: 0x2C }
  - { offsetInCU: 0x45E10, offset: 0x45E10, size: 0x8, addend: 0x0, symName: __ZNSt3__110unique_ptrINS_12basic_stringIcNS_11char_traitsIcEENS_9allocatorIcEEEEZN8nlohmann16json_abi_v3_12_010basic_jsonINS_3mapENS_6vectorES6_bxydS4_NS8_14adl_serializerENSB_IhNS4_IhEEEEvE6createIS6_JRA1_KcEEEPT_DpOT0_EUlPS6_E_EC2B8ue170006ILb1EvEESP_NS_16__dependent_typeINS_27__unique_ptr_deleter_sfinaeISQ_EEXT_EE15__lval_ref_typeE, symObjAddr: 0x13E24, symBinAddr: 0x100016EE0, symSize: 0x48 }
  - { offsetInCU: 0x45E61, offset: 0x45E61, size: 0x8, addend: 0x0, symName: __ZNSt3__117__compressed_pairIPNS_12basic_stringIcNS_11char_traitsIcEENS_9allocatorIcEEEEZN8nlohmann16json_abi_v3_12_010basic_jsonINS_3mapENS_6vectorES6_bxydS4_NS9_14adl_serializerENSC_IhNS4_IhEEEEvE6createIS6_JRA1_KcEEEPT_DpOT0_EUlS7_E_EC1B8ue170006IRS7_RKSQ_EEOSL_OT0_, symObjAddr: 0x13E6C, symBinAddr: 0x100016F28, symSize: 0x3C }
  - { offsetInCU: 0x45EB9, offset: 0x45EB9, size: 0x8, addend: 0x0, symName: __ZNSt3__117__compressed_pairIPNS_12basic_stringIcNS_11char_traitsIcEENS_9allocatorIcEEEEZN8nlohmann16json_abi_v3_12_010basic_jsonINS_3mapENS_6vectorES6_bxydS4_NS9_14adl_serializerENSC_IhNS4_IhEEEEvE6createIS6_JRA1_KcEEEPT_DpOT0_EUlS7_E_EC2B8ue170006IRS7_RKSQ_EEOSL_OT0_, symObjAddr: 0x13EA8, symBinAddr: 0x100016F64, symSize: 0x48 }
  - { offsetInCU: 0x45F11, offset: 0x45F11, size: 0x8, addend: 0x0, symName: __ZNSt3__122__compressed_pair_elemIZN8nlohmann16json_abi_v3_12_010basic_jsonINS_3mapENS_6vectorENS_12basic_stringIcNS_11char_traitsIcEENS_9allocatorIcEEEEbxydS9_NS2_14adl_serializerENS5_IhNS9_IhEEEEvE6createISB_JRA1_KcEEEPT_DpOT0_EUlPSB_E_Li1ELb0EEC2B8ue170006IRKSQ_vEEOSK_, symObjAddr: 0x13EF0, symBinAddr: 0x100016FAC, symSize: 0x24 }
  - { offsetInCU: 0x45F53, offset: 0x45F53, size: 0x8, addend: 0x0, symName: __ZNKSt3__117__compressed_pairIPNS_12basic_stringIcNS_11char_traitsIcEENS_9allocatorIcEEEEZN8nlohmann16json_abi_v3_12_010basic_jsonINS_3mapENS_6vectorES6_bxydS4_NS9_14adl_serializerENSC_IhNS4_IhEEEEvE6createIS6_JRA1_KcEEEPT_DpOT0_EUlS7_E_E5firstB8ue170006Ev, symObjAddr: 0x13F50, symBinAddr: 0x10001700C, symSize: 0x24 }
  - { offsetInCU: 0x45F79, offset: 0x45F79, size: 0x8, addend: 0x0, symName: __ZNKSt3__110unique_ptrINS_12basic_stringIcNS_11char_traitsIcEENS_9allocatorIcEEEEZN8nlohmann16json_abi_v3_12_010basic_jsonINS_3mapENS_6vectorES6_bxydS4_NS8_14adl_serializerENSB_IhNS4_IhEEEEvE6createIS6_JRA1_KcEEEPT_DpOT0_EUlPS6_E_EcvbB8ue170006Ev, symObjAddr: 0x13F74, symBinAddr: 0x100017030, symSize: 0x34 }
  - { offsetInCU: 0x45F9F, offset: 0x45F9F, size: 0x8, addend: 0x0, symName: __ZNSt3__117__compressed_pairIPNS_12basic_stringIcNS_11char_traitsIcEENS_9allocatorIcEEEEZN8nlohmann16json_abi_v3_12_010basic_jsonINS_3mapENS_6vectorES6_bxydS4_NS9_14adl_serializerENSC_IhNS4_IhEEEEvE6createIS6_JRA1_KcEEEPT_DpOT0_EUlS7_E_E5firstB8ue170006Ev, symObjAddr: 0x13FA8, symBinAddr: 0x100017064, symSize: 0x24 }
  - { offsetInCU: 0x45FC5, offset: 0x45FC5, size: 0x8, addend: 0x0, symName: __ZNSt3__110unique_ptrINS_12basic_stringIcNS_11char_traitsIcEENS_9allocatorIcEEEEZN8nlohmann16json_abi_v3_12_010basic_jsonINS_3mapENS_6vectorES6_bxydS4_NS8_14adl_serializerENSB_IhNS4_IhEEEEvE6createIS6_JRA1_KcEEEPT_DpOT0_EUlPS6_E_ED2B8ue170006Ev, symObjAddr: 0x13FCC, symBinAddr: 0x100017088, symSize: 0x30 }
  - { offsetInCU: 0x45FEF, offset: 0x45FEF, size: 0x8, addend: 0x0, symName: __ZNSt3__110unique_ptrINS_12basic_stringIcNS_11char_traitsIcEENS_9allocatorIcEEEEZN8nlohmann16json_abi_v3_12_010basic_jsonINS_3mapENS_6vectorES6_bxydS4_NS8_14adl_serializerENSB_IhNS4_IhEEEEvE6createIS6_JRA1_KcEEEPT_DpOT0_EUlPS6_E_E5resetB8ue170006ESP_, symObjAddr: 0x13FFC, symBinAddr: 0x1000170B8, symSize: 0x80 }
  - { offsetInCU: 0x46034, offset: 0x46034, size: 0x8, addend: 0x0, symName: __ZNSt3__117__compressed_pairIPNS_12basic_stringIcNS_11char_traitsIcEENS_9allocatorIcEEEEZN8nlohmann16json_abi_v3_12_010basic_jsonINS_3mapENS_6vectorES6_bxydS4_NS9_14adl_serializerENSC_IhNS4_IhEEEEvE6createIS6_JRA1_KcEEEPT_DpOT0_EUlS7_E_E6secondB8ue170006Ev, symObjAddr: 0x1407C, symBinAddr: 0x100017138, symSize: 0x28 }
  - { offsetInCU: 0x46060, offset: 0x46060, size: 0x8, addend: 0x0, symName: __ZZN8nlohmann16json_abi_v3_12_010basic_jsonINSt3__13mapENS2_6vectorENS2_12basic_stringIcNS2_11char_traitsIcEENS2_9allocatorIcEEEEbxydS8_NS0_14adl_serializerENS4_IhNS8_IhEEEEvE6createISA_JRA1_KcEEEPT_DpOT0_ENKUlPSA_E_clESO_, symObjAddr: 0x140A4, symBinAddr: 0x100017160, symSize: 0x34 }
  - { offsetInCU: 0x4609A, offset: 0x4609A, size: 0x8, addend: 0x0, symName: __ZNSt3__122__compressed_pair_elemIZN8nlohmann16json_abi_v3_12_010basic_jsonINS_3mapENS_6vectorENS_12basic_stringIcNS_11char_traitsIcEENS_9allocatorIcEEEEbxydS9_NS2_14adl_serializerENS5_IhNS9_IhEEEEvE6createISB_JRA1_KcEEEPT_DpOT0_EUlPSB_E_Li1ELb0EE5__getB8ue170006Ev, symObjAddr: 0x140D8, symBinAddr: 0x100017194, symSize: 0x14 }
  - { offsetInCU: 0x460C0, offset: 0x460C0, size: 0x8, addend: 0x0, symName: __ZNSt3__116allocator_traitsINS_9allocatorIN8nlohmann16json_abi_v3_12_027byte_container_with_subtypeINS_6vectorIhNS1_IhEEEEEEEEE8allocateB8ue170006ERS9_m, symObjAddr: 0x140EC, symBinAddr: 0x1000171A8, symSize: 0x2C }
  - { offsetInCU: 0x4619C, offset: 0x4619C, size: 0x8, addend: 0x0, symName: __ZNSt3__110unique_ptrIN8nlohmann16json_abi_v3_12_027byte_container_with_subtypeINS_6vectorIhNS_9allocatorIhEEEEEEZNS2_10basic_jsonINS_3mapES4_NS_12basic_stringIcNS_11char_traitsIcEENS5_IcEEEEbxydS5_NS2_14adl_serializerES7_vE6createIS8_JEEEPT_DpOT0_EUlPS8_E_EC1B8ue170006ILb1EvEESO_NS_16__dependent_typeINS_27__unique_ptr_deleter_sfinaeISP_EEXT_EE15__lval_ref_typeE, symObjAddr: 0x14118, symBinAddr: 0x1000171D4, symSize: 0x3C }
  - { offsetInCU: 0x461ED, offset: 0x461ED, size: 0x8, addend: 0x0, symName: __ZNSt3__116allocator_traitsINS_9allocatorIN8nlohmann16json_abi_v3_12_027byte_container_with_subtypeINS_6vectorIhNS1_IhEEEEEEEEE9constructB8ue170006IS8_JEvvEEvRS9_PT_DpOT0_, symObjAddr: 0x14154, symBinAddr: 0x100017210, symSize: 0x28 }
  - { offsetInCU: 0x4622E, offset: 0x4622E, size: 0x8, addend: 0x0, symName: __ZNKSt3__110unique_ptrIN8nlohmann16json_abi_v3_12_027byte_container_with_subtypeINS_6vectorIhNS_9allocatorIhEEEEEEZNS2_10basic_jsonINS_3mapES4_NS_12basic_stringIcNS_11char_traitsIcEENS5_IcEEEEbxydS5_NS2_14adl_serializerES7_vE6createIS8_JEEEPT_DpOT0_EUlPS8_E_E3getB8ue170006Ev, symObjAddr: 0x1417C, symBinAddr: 0x100017238, symSize: 0x28 }
  - { offsetInCU: 0x46254, offset: 0x46254, size: 0x8, addend: 0x0, symName: __ZNSt3__110unique_ptrIN8nlohmann16json_abi_v3_12_027byte_container_with_subtypeINS_6vectorIhNS_9allocatorIhEEEEEEZNS2_10basic_jsonINS_3mapES4_NS_12basic_stringIcNS_11char_traitsIcEENS5_IcEEEEbxydS5_NS2_14adl_serializerES7_vE6createIS8_JEEEPT_DpOT0_EUlPS8_E_E7releaseB8ue170006Ev, symObjAddr: 0x141D4, symBinAddr: 0x100017290, symSize: 0x44 }
  - { offsetInCU: 0x46289, offset: 0x46289, size: 0x8, addend: 0x0, symName: __ZNSt3__110unique_ptrIN8nlohmann16json_abi_v3_12_027byte_container_with_subtypeINS_6vectorIhNS_9allocatorIhEEEEEEZNS2_10basic_jsonINS_3mapES4_NS_12basic_stringIcNS_11char_traitsIcEENS5_IcEEEEbxydS5_NS2_14adl_serializerES7_vE6createIS8_JEEEPT_DpOT0_EUlPS8_E_ED1B8ue170006Ev, symObjAddr: 0x14218, symBinAddr: 0x1000172D4, symSize: 0x2C }
  - { offsetInCU: 0x462B3, offset: 0x462B3, size: 0x8, addend: 0x0, symName: __ZNSt3__19allocatorIN8nlohmann16json_abi_v3_12_027byte_container_with_subtypeINS_6vectorIhNS0_IhEEEEEEE8allocateB8ue170006Em, symObjAddr: 0x14244, symBinAddr: 0x100017300, symSize: 0x5C }
  - { offsetInCU: 0x462F2, offset: 0x462F2, size: 0x8, addend: 0x0, symName: __ZNSt3__116allocator_traitsINS_9allocatorIN8nlohmann16json_abi_v3_12_027byte_container_with_subtypeINS_6vectorIhNS1_IhEEEEEEEEE8max_sizeB8ue170006IS9_vvEEmRKS9_, symObjAddr: 0x142A0, symBinAddr: 0x10001735C, symSize: 0x28 }
  - { offsetInCU: 0x4631E, offset: 0x4631E, size: 0x8, addend: 0x0, symName: __ZNSt3__110unique_ptrIN8nlohmann16json_abi_v3_12_027byte_container_with_subtypeINS_6vectorIhNS_9allocatorIhEEEEEEZNS2_10basic_jsonINS_3mapES4_NS_12basic_stringIcNS_11char_traitsIcEENS5_IcEEEEbxydS5_NS2_14adl_serializerES7_vE6createIS8_JEEEPT_DpOT0_EUlPS8_E_EC2B8ue170006ILb1EvEESO_NS_16__dependent_typeINS_27__unique_ptr_deleter_sfinaeISP_EEXT_EE15__lval_ref_typeE, symObjAddr: 0x142C8, symBinAddr: 0x100017384, symSize: 0x48 }
  - { offsetInCU: 0x4636F, offset: 0x4636F, size: 0x8, addend: 0x0, symName: __ZNSt3__117__compressed_pairIPN8nlohmann16json_abi_v3_12_027byte_container_with_subtypeINS_6vectorIhNS_9allocatorIhEEEEEEZNS2_10basic_jsonINS_3mapES4_NS_12basic_stringIcNS_11char_traitsIcEENS5_IcEEEEbxydS5_NS2_14adl_serializerES7_vE6createIS8_JEEEPT_DpOT0_EUlS9_E_EC1B8ue170006IRS9_RKSP_EEOSK_OT0_, symObjAddr: 0x14310, symBinAddr: 0x1000173CC, symSize: 0x3C }
  - { offsetInCU: 0x463C7, offset: 0x463C7, size: 0x8, addend: 0x0, symName: __ZNSt3__117__compressed_pairIPN8nlohmann16json_abi_v3_12_027byte_container_with_subtypeINS_6vectorIhNS_9allocatorIhEEEEEEZNS2_10basic_jsonINS_3mapES4_NS_12basic_stringIcNS_11char_traitsIcEENS5_IcEEEEbxydS5_NS2_14adl_serializerES7_vE6createIS8_JEEEPT_DpOT0_EUlS9_E_EC2B8ue170006IRS9_RKSP_EEOSK_OT0_, symObjAddr: 0x1434C, symBinAddr: 0x100017408, symSize: 0x48 }
  - { offsetInCU: 0x4641F, offset: 0x4641F, size: 0x8, addend: 0x0, symName: __ZNSt3__122__compressed_pair_elemIPN8nlohmann16json_abi_v3_12_027byte_container_with_subtypeINS_6vectorIhNS_9allocatorIhEEEEEELi0ELb0EEC2B8ue170006IRS9_vEEOT_, symObjAddr: 0x14394, symBinAddr: 0x100017450, symSize: 0x24 }
  - { offsetInCU: 0x46461, offset: 0x46461, size: 0x8, addend: 0x0, symName: __ZNSt3__122__compressed_pair_elemIZN8nlohmann16json_abi_v3_12_010basic_jsonINS_3mapENS_6vectorENS_12basic_stringIcNS_11char_traitsIcEENS_9allocatorIcEEEEbxydS9_NS2_14adl_serializerENS5_IhNS9_IhEEEEvE6createINS2_27byte_container_with_subtypeISE_EEJEEEPT_DpOT0_EUlPSI_E_Li1ELb0EEC2B8ue170006IRKSP_vEEOSJ_, symObjAddr: 0x143B8, symBinAddr: 0x100017474, symSize: 0x24 }
  - { offsetInCU: 0x464A3, offset: 0x464A3, size: 0x8, addend: 0x0, symName: __ZN8nlohmann16json_abi_v3_12_027byte_container_with_subtypeINSt3__16vectorIhNS2_9allocatorIhEEEEEC1Ev, symObjAddr: 0x14410, symBinAddr: 0x1000174CC, symSize: 0x2C }
  - { offsetInCU: 0x464CD, offset: 0x464CD, size: 0x8, addend: 0x0, symName: __ZN8nlohmann16json_abi_v3_12_027byte_container_with_subtypeINSt3__16vectorIhNS2_9allocatorIhEEEEEC2Ev, symObjAddr: 0x1443C, symBinAddr: 0x1000174F8, symSize: 0x34 }
  - { offsetInCU: 0x464F7, offset: 0x464F7, size: 0x8, addend: 0x0, symName: __ZNSt3__16vectorIhNS_9allocatorIhEEEC2B8ue170006Ev, symObjAddr: 0x14470, symBinAddr: 0x10001752C, symSize: 0x4C }
  - { offsetInCU: 0x46521, offset: 0x46521, size: 0x8, addend: 0x0, symName: __ZNSt3__117__compressed_pairIPhNS_9allocatorIhEEEC1B8ue170006IDnNS_18__default_init_tagEEEOT_OT0_, symObjAddr: 0x144BC, symBinAddr: 0x100017578, symSize: 0x3C }
  - { offsetInCU: 0x46579, offset: 0x46579, size: 0x8, addend: 0x0, symName: __ZNSt3__117__compressed_pairIPhNS_9allocatorIhEEEC2B8ue170006IDnNS_18__default_init_tagEEEOT_OT0_, symObjAddr: 0x144F8, symBinAddr: 0x1000175B4, symSize: 0x40 }
  - { offsetInCU: 0x465D1, offset: 0x465D1, size: 0x8, addend: 0x0, symName: __ZNSt3__122__compressed_pair_elemIPhLi0ELb0EEC2B8ue170006IDnvEEOT_, symObjAddr: 0x14538, symBinAddr: 0x1000175F4, symSize: 0x1C }
  - { offsetInCU: 0x46613, offset: 0x46613, size: 0x8, addend: 0x0, symName: __ZNSt3__122__compressed_pair_elemINS_9allocatorIhEELi1ELb1EEC2B8ue170006ENS_18__default_init_tagE, symObjAddr: 0x14554, symBinAddr: 0x100017610, symSize: 0x2C }
  - { offsetInCU: 0x46648, offset: 0x46648, size: 0x8, addend: 0x0, symName: __ZNSt3__19allocatorIhEC2B8ue170006Ev, symObjAddr: 0x14580, symBinAddr: 0x10001763C, symSize: 0x2C }
  - { offsetInCU: 0x46672, offset: 0x46672, size: 0x8, addend: 0x0, symName: __ZNSt3__116__non_trivial_ifILb1ENS_9allocatorIhEEEC2B8ue170006Ev, symObjAddr: 0x145AC, symBinAddr: 0x100017668, symSize: 0x14 }
  - { offsetInCU: 0x4669C, offset: 0x4669C, size: 0x8, addend: 0x0, symName: __ZNKSt3__117__compressed_pairIPN8nlohmann16json_abi_v3_12_027byte_container_with_subtypeINS_6vectorIhNS_9allocatorIhEEEEEEZNS2_10basic_jsonINS_3mapES4_NS_12basic_stringIcNS_11char_traitsIcEENS5_IcEEEEbxydS5_NS2_14adl_serializerES7_vE6createIS8_JEEEPT_DpOT0_EUlS9_E_E5firstB8ue170006Ev, symObjAddr: 0x145C0, symBinAddr: 0x10001767C, symSize: 0x24 }
  - { offsetInCU: 0x466C2, offset: 0x466C2, size: 0x8, addend: 0x0, symName: __ZNKSt3__122__compressed_pair_elemIPN8nlohmann16json_abi_v3_12_027byte_container_with_subtypeINS_6vectorIhNS_9allocatorIhEEEEEELi0ELb0EE5__getB8ue170006Ev, symObjAddr: 0x145E4, symBinAddr: 0x1000176A0, symSize: 0x14 }
  - { offsetInCU: 0x466E8, offset: 0x466E8, size: 0x8, addend: 0x0, symName: __ZNKSt3__110unique_ptrIN8nlohmann16json_abi_v3_12_027byte_container_with_subtypeINS_6vectorIhNS_9allocatorIhEEEEEEZNS2_10basic_jsonINS_3mapES4_NS_12basic_stringIcNS_11char_traitsIcEENS5_IcEEEEbxydS5_NS2_14adl_serializerES7_vE6createIS8_JEEEPT_DpOT0_EUlPS8_E_EcvbB8ue170006Ev, symObjAddr: 0x145F8, symBinAddr: 0x1000176B4, symSize: 0x34 }
  - { offsetInCU: 0x4670E, offset: 0x4670E, size: 0x8, addend: 0x0, symName: __ZNSt3__117__compressed_pairIPN8nlohmann16json_abi_v3_12_027byte_container_with_subtypeINS_6vectorIhNS_9allocatorIhEEEEEEZNS2_10basic_jsonINS_3mapES4_NS_12basic_stringIcNS_11char_traitsIcEENS5_IcEEEEbxydS5_NS2_14adl_serializerES7_vE6createIS8_JEEEPT_DpOT0_EUlS9_E_E5firstB8ue170006Ev, symObjAddr: 0x1462C, symBinAddr: 0x1000176E8, symSize: 0x24 }
  - { offsetInCU: 0x46734, offset: 0x46734, size: 0x8, addend: 0x0, symName: __ZNSt3__122__compressed_pair_elemIPN8nlohmann16json_abi_v3_12_027byte_container_with_subtypeINS_6vectorIhNS_9allocatorIhEEEEEELi0ELb0EE5__getB8ue170006Ev, symObjAddr: 0x14650, symBinAddr: 0x10001770C, symSize: 0x14 }
  - { offsetInCU: 0x4675A, offset: 0x4675A, size: 0x8, addend: 0x0, symName: __ZNSt3__110unique_ptrIN8nlohmann16json_abi_v3_12_027byte_container_with_subtypeINS_6vectorIhNS_9allocatorIhEEEEEEZNS2_10basic_jsonINS_3mapES4_NS_12basic_stringIcNS_11char_traitsIcEENS5_IcEEEEbxydS5_NS2_14adl_serializerES7_vE6createIS8_JEEEPT_DpOT0_EUlPS8_E_ED2B8ue170006Ev, symObjAddr: 0x14664, symBinAddr: 0x100017720, symSize: 0x30 }
  - { offsetInCU: 0x46784, offset: 0x46784, size: 0x8, addend: 0x0, symName: __ZNSt3__110unique_ptrIN8nlohmann16json_abi_v3_12_027byte_container_with_subtypeINS_6vectorIhNS_9allocatorIhEEEEEEZNS2_10basic_jsonINS_3mapES4_NS_12basic_stringIcNS_11char_traitsIcEENS5_IcEEEEbxydS5_NS2_14adl_serializerES7_vE6createIS8_JEEEPT_DpOT0_EUlPS8_E_E5resetB8ue170006ESO_, symObjAddr: 0x14694, symBinAddr: 0x100017750, symSize: 0x80 }
  - { offsetInCU: 0x467C9, offset: 0x467C9, size: 0x8, addend: 0x0, symName: __ZNSt3__117__compressed_pairIPN8nlohmann16json_abi_v3_12_027byte_container_with_subtypeINS_6vectorIhNS_9allocatorIhEEEEEEZNS2_10basic_jsonINS_3mapES4_NS_12basic_stringIcNS_11char_traitsIcEENS5_IcEEEEbxydS5_NS2_14adl_serializerES7_vE6createIS8_JEEEPT_DpOT0_EUlS9_E_E6secondB8ue170006Ev, symObjAddr: 0x14714, symBinAddr: 0x1000177D0, symSize: 0x28 }
  - { offsetInCU: 0x467F5, offset: 0x467F5, size: 0x8, addend: 0x0, symName: __ZZN8nlohmann16json_abi_v3_12_010basic_jsonINSt3__13mapENS2_6vectorENS2_12basic_stringIcNS2_11char_traitsIcEENS2_9allocatorIcEEEEbxydS8_NS0_14adl_serializerENS4_IhNS8_IhEEEEvE6createINS0_27byte_container_with_subtypeISD_EEJEEEPT_DpOT0_ENKUlPSH_E_clESN_, symObjAddr: 0x1473C, symBinAddr: 0x1000177F8, symSize: 0x34 }
  - { offsetInCU: 0x4682F, offset: 0x4682F, size: 0x8, addend: 0x0, symName: __ZNSt3__122__compressed_pair_elemIZN8nlohmann16json_abi_v3_12_010basic_jsonINS_3mapENS_6vectorENS_12basic_stringIcNS_11char_traitsIcEENS_9allocatorIcEEEEbxydS9_NS2_14adl_serializerENS5_IhNS9_IhEEEEvE6createINS2_27byte_container_with_subtypeISE_EEJEEEPT_DpOT0_EUlPSI_E_Li1ELb0EE5__getB8ue170006Ev, symObjAddr: 0x14770, symBinAddr: 0x10001782C, symSize: 0x14 }
  - { offsetInCU: 0x46855, offset: 0x46855, size: 0x8, addend: 0x0, symName: __ZN8nlohmann16json_abi_v3_12_06detail11other_errorC1EiPKc, symObjAddr: 0x14784, symBinAddr: 0x100017840, symSize: 0x3C }
  - { offsetInCU: 0x4689F, offset: 0x4689F, size: 0x8, addend: 0x0, symName: __ZN8nlohmann16json_abi_v3_12_06detail11other_errorC2EiPKc, symObjAddr: 0x147C0, symBinAddr: 0x10001787C, symSize: 0x54 }
  - { offsetInCU: 0x468E9, offset: 0x468E9, size: 0x8, addend: 0x0, symName: __ZN8nlohmann16json_abi_v3_12_06detail11other_errorD0Ev, symObjAddr: 0x14814, symBinAddr: 0x1000178D0, symSize: 0x30 }
  - { offsetInCU: 0x46916, offset: 0x46916, size: 0x8, addend: 0x0, symName: __ZN8nlohmann16json_abi_v3_12_06detail11other_errorD2Ev, symObjAddr: 0x14844, symBinAddr: 0x100017900, symSize: 0x2C }
  - { offsetInCU: 0x46943, offset: 0x46943, size: 0x8, addend: 0x0, symName: __ZN8nlohmann16json_abi_v3_12_010basic_jsonINSt3__13mapENS2_6vectorENS2_12basic_stringIcNS2_11char_traitsIcEENS2_9allocatorIcEEEEbxydS8_NS0_14adl_serializerENS4_IhNS8_IhEEEEvEC1ERKSE_, symObjAddr: 0x14870, symBinAddr: 0x10001792C, symSize: 0x34 }
  - { offsetInCU: 0x4697D, offset: 0x4697D, size: 0x8, addend: 0x0, symName: __ZN8nlohmann16json_abi_v3_12_010basic_jsonINSt3__13mapENS2_6vectorENS2_12basic_stringIcNS2_11char_traitsIcEENS2_9allocatorIcEEEEbxydS8_NS0_14adl_serializerENS4_IhNS8_IhEEEEvEC2ERKSE_, symObjAddr: 0x148A4, symBinAddr: 0x100017960, symSize: 0x1F8 }
  - { offsetInCU: 0x469B7, offset: 0x469B7, size: 0x8, addend: 0x0, symName: __ZN8nlohmann16json_abi_v3_12_010basic_jsonINSt3__13mapENS2_6vectorENS2_12basic_stringIcNS2_11char_traitsIcEENS2_9allocatorIcEEEEbxydS8_NS0_14adl_serializerENS4_IhNS8_IhEEEEvE10json_valueC1ERKNS3_ISA_SE_NS2_4lessIvEENS8_INS2_4pairIKSA_SE_EEEEEE, symObjAddr: 0x14AC4, symBinAddr: 0x100017B80, symSize: 0x34 }
  - { offsetInCU: 0x469F1, offset: 0x469F1, size: 0x8, addend: 0x0, symName: __ZN8nlohmann16json_abi_v3_12_010basic_jsonINSt3__13mapENS2_6vectorENS2_12basic_stringIcNS2_11char_traitsIcEENS2_9allocatorIcEEEEbxydS8_NS0_14adl_serializerENS4_IhNS8_IhEEEEvE10json_valueC1ERKNS4_ISE_NS8_ISE_EEEE, symObjAddr: 0x14AF8, symBinAddr: 0x100017BB4, symSize: 0x34 }
  - { offsetInCU: 0x46A2B, offset: 0x46A2B, size: 0x8, addend: 0x0, symName: __ZN8nlohmann16json_abi_v3_12_010basic_jsonINSt3__13mapENS2_6vectorENS2_12basic_stringIcNS2_11char_traitsIcEENS2_9allocatorIcEEEEbxydS8_NS0_14adl_serializerENS4_IhNS8_IhEEEEvE10json_valueC1ERKSA_, symObjAddr: 0x14B2C, symBinAddr: 0x100017BE8, symSize: 0x34 }
  - { offsetInCU: 0x46A65, offset: 0x46A65, size: 0x8, addend: 0x0, symName: __ZN8nlohmann16json_abi_v3_12_010basic_jsonINSt3__13mapENS2_6vectorENS2_12basic_stringIcNS2_11char_traitsIcEENS2_9allocatorIcEEEEbxydS8_NS0_14adl_serializerENS4_IhNS8_IhEEEEvE10json_valueC1Eb, symObjAddr: 0x14B60, symBinAddr: 0x100017C1C, symSize: 0x40 }
  - { offsetInCU: 0x46A9F, offset: 0x46A9F, size: 0x8, addend: 0x0, symName: __ZN8nlohmann16json_abi_v3_12_010basic_jsonINSt3__13mapENS2_6vectorENS2_12basic_stringIcNS2_11char_traitsIcEENS2_9allocatorIcEEEEbxydS8_NS0_14adl_serializerENS4_IhNS8_IhEEEEvE10json_valueC1Ex, symObjAddr: 0x14BA0, symBinAddr: 0x100017C5C, symSize: 0x34 }
  - { offsetInCU: 0x46AD9, offset: 0x46AD9, size: 0x8, addend: 0x0, symName: __ZN8nlohmann16json_abi_v3_12_010basic_jsonINSt3__13mapENS2_6vectorENS2_12basic_stringIcNS2_11char_traitsIcEENS2_9allocatorIcEEEEbxydS8_NS0_14adl_serializerENS4_IhNS8_IhEEEEvE10json_valueC1Ey, symObjAddr: 0x14BD4, symBinAddr: 0x100017C90, symSize: 0x34 }
  - { offsetInCU: 0x46B13, offset: 0x46B13, size: 0x8, addend: 0x0, symName: __ZN8nlohmann16json_abi_v3_12_010basic_jsonINSt3__13mapENS2_6vectorENS2_12basic_stringIcNS2_11char_traitsIcEENS2_9allocatorIcEEEEbxydS8_NS0_14adl_serializerENS4_IhNS8_IhEEEEvE10json_valueC1Ed, symObjAddr: 0x14C08, symBinAddr: 0x100017CC4, symSize: 0x34 }
  - { offsetInCU: 0x46B4D, offset: 0x46B4D, size: 0x8, addend: 0x0, symName: __ZN8nlohmann16json_abi_v3_12_010basic_jsonINSt3__13mapENS2_6vectorENS2_12basic_stringIcNS2_11char_traitsIcEENS2_9allocatorIcEEEEbxydS8_NS0_14adl_serializerENS4_IhNS8_IhEEEEvE10json_valueC1ERKNS0_27byte_container_with_subtypeISD_EE, symObjAddr: 0x14C3C, symBinAddr: 0x100017CF8, symSize: 0x34 }
  - { offsetInCU: 0x46B87, offset: 0x46B87, size: 0x8, addend: 0x0, symName: __ZN8nlohmann16json_abi_v3_12_010basic_jsonINSt3__13mapENS2_6vectorENS2_12basic_stringIcNS2_11char_traitsIcEENS2_9allocatorIcEEEEbxydS8_NS0_14adl_serializerENS4_IhNS8_IhEEEEvE10json_valueC2ERKNS3_ISA_SE_NS2_4lessIvEENS8_INS2_4pairIKSA_SE_EEEEEE, symObjAddr: 0x14C70, symBinAddr: 0x100017D2C, symSize: 0x3C }
  - { offsetInCU: 0x46BC1, offset: 0x46BC1, size: 0x8, addend: 0x0, symName: __ZN8nlohmann16json_abi_v3_12_010basic_jsonINSt3__13mapENS2_6vectorENS2_12basic_stringIcNS2_11char_traitsIcEENS2_9allocatorIcEEEEbxydS8_NS0_14adl_serializerENS4_IhNS8_IhEEEEvE6createINS3_ISA_SE_NS2_4lessIvEENS8_INS2_4pairIKSA_SE_EEEEEEJRKSM_EEEPT_DpOT0_, symObjAddr: 0x14CAC, symBinAddr: 0x100017D68, symSize: 0xF4 }
  - { offsetInCU: 0x46CC2, offset: 0x46CC2, size: 0x8, addend: 0x0, symName: __ZNSt3__110unique_ptrINS_3mapINS_12basic_stringIcNS_11char_traitsIcEENS_9allocatorIcEEEEN8nlohmann16json_abi_v3_12_010basic_jsonIS1_NS_6vectorES7_bxydS5_NS9_14adl_serializerENSB_IhNS5_IhEEEEvEENS_4lessIvEENS5_INS_4pairIKS7_SF_EEEEEEZNSF_6createISM_JRKSM_EEEPT_DpOT0_EUlPSM_E_EC1B8ue170006ILb1EvEESV_NS_16__dependent_typeINS_27__unique_ptr_deleter_sfinaeISW_EEXT_EE15__lval_ref_typeE, symObjAddr: 0x14DA0, symBinAddr: 0x100017E5C, symSize: 0x3C }
  - { offsetInCU: 0x46D13, offset: 0x46D13, size: 0x8, addend: 0x0, symName: __ZNSt3__116allocator_traitsINS_9allocatorINS_3mapINS_12basic_stringIcNS_11char_traitsIcEENS1_IcEEEEN8nlohmann16json_abi_v3_12_010basic_jsonIS2_NS_6vectorES7_bxydS1_NS9_14adl_serializerENSB_IhNS1_IhEEEEvEENS_4lessIvEENS1_INS_4pairIKS7_SF_EEEEEEEEE9constructB8ue170006ISM_JRKSM_EvvEEvRSN_PT_DpOT0_, symObjAddr: 0x14DDC, symBinAddr: 0x100017E98, symSize: 0x30 }
  - { offsetInCU: 0x46D6A, offset: 0x46D6A, size: 0x8, addend: 0x0, symName: __ZNKSt3__110unique_ptrINS_3mapINS_12basic_stringIcNS_11char_traitsIcEENS_9allocatorIcEEEEN8nlohmann16json_abi_v3_12_010basic_jsonIS1_NS_6vectorES7_bxydS5_NS9_14adl_serializerENSB_IhNS5_IhEEEEvEENS_4lessIvEENS5_INS_4pairIKS7_SF_EEEEEEZNSF_6createISM_JRKSM_EEEPT_DpOT0_EUlPSM_E_E3getB8ue170006Ev, symObjAddr: 0x14E0C, symBinAddr: 0x100017EC8, symSize: 0x28 }
  - { offsetInCU: 0x46D90, offset: 0x46D90, size: 0x8, addend: 0x0, symName: __ZNSt3__110unique_ptrINS_3mapINS_12basic_stringIcNS_11char_traitsIcEENS_9allocatorIcEEEEN8nlohmann16json_abi_v3_12_010basic_jsonIS1_NS_6vectorES7_bxydS5_NS9_14adl_serializerENSB_IhNS5_IhEEEEvEENS_4lessIvEENS5_INS_4pairIKS7_SF_EEEEEEZNSF_6createISM_JRKSM_EEEPT_DpOT0_EUlPSM_E_E7releaseB8ue170006Ev, symObjAddr: 0x14E64, symBinAddr: 0x100017F20, symSize: 0x44 }
  - { offsetInCU: 0x46DC5, offset: 0x46DC5, size: 0x8, addend: 0x0, symName: __ZNSt3__110unique_ptrINS_3mapINS_12basic_stringIcNS_11char_traitsIcEENS_9allocatorIcEEEEN8nlohmann16json_abi_v3_12_010basic_jsonIS1_NS_6vectorES7_bxydS5_NS9_14adl_serializerENSB_IhNS5_IhEEEEvEENS_4lessIvEENS5_INS_4pairIKS7_SF_EEEEEEZNSF_6createISM_JRKSM_EEEPT_DpOT0_EUlPSM_E_ED1B8ue170006Ev, symObjAddr: 0x14EA8, symBinAddr: 0x100017F64, symSize: 0x2C }
  - { offsetInCU: 0x46DEF, offset: 0x46DEF, size: 0x8, addend: 0x0, symName: __ZNSt3__110unique_ptrINS_3mapINS_12basic_stringIcNS_11char_traitsIcEENS_9allocatorIcEEEEN8nlohmann16json_abi_v3_12_010basic_jsonIS1_NS_6vectorES7_bxydS5_NS9_14adl_serializerENSB_IhNS5_IhEEEEvEENS_4lessIvEENS5_INS_4pairIKS7_SF_EEEEEEZNSF_6createISM_JRKSM_EEEPT_DpOT0_EUlPSM_E_EC2B8ue170006ILb1EvEESV_NS_16__dependent_typeINS_27__unique_ptr_deleter_sfinaeISW_EEXT_EE15__lval_ref_typeE, symObjAddr: 0x14ED4, symBinAddr: 0x100017F90, symSize: 0x48 }
  - { offsetInCU: 0x46E40, offset: 0x46E40, size: 0x8, addend: 0x0, symName: __ZNSt3__117__compressed_pairIPNS_3mapINS_12basic_stringIcNS_11char_traitsIcEENS_9allocatorIcEEEEN8nlohmann16json_abi_v3_12_010basic_jsonIS1_NS_6vectorES7_bxydS5_NS9_14adl_serializerENSB_IhNS5_IhEEEEvEENS_4lessIvEENS5_INS_4pairIKS7_SF_EEEEEEZNSF_6createISM_JRKSM_EEEPT_DpOT0_EUlSN_E_EC1B8ue170006IRSN_RKSW_EEOSR_OT0_, symObjAddr: 0x14F1C, symBinAddr: 0x100017FD8, symSize: 0x3C }
  - { offsetInCU: 0x46E98, offset: 0x46E98, size: 0x8, addend: 0x0, symName: __ZNSt3__117__compressed_pairIPNS_3mapINS_12basic_stringIcNS_11char_traitsIcEENS_9allocatorIcEEEEN8nlohmann16json_abi_v3_12_010basic_jsonIS1_NS_6vectorES7_bxydS5_NS9_14adl_serializerENSB_IhNS5_IhEEEEvEENS_4lessIvEENS5_INS_4pairIKS7_SF_EEEEEEZNSF_6createISM_JRKSM_EEEPT_DpOT0_EUlSN_E_EC2B8ue170006IRSN_RKSW_EEOSR_OT0_, symObjAddr: 0x14F58, symBinAddr: 0x100018014, symSize: 0x48 }
  - { offsetInCU: 0x46EF0, offset: 0x46EF0, size: 0x8, addend: 0x0, symName: __ZNSt3__122__compressed_pair_elemIZN8nlohmann16json_abi_v3_12_010basic_jsonINS_3mapENS_6vectorENS_12basic_stringIcNS_11char_traitsIcEENS_9allocatorIcEEEEbxydS9_NS2_14adl_serializerENS5_IhNS9_IhEEEEvE6createINS4_ISB_SF_NS_4lessIvEENS9_INS_4pairIKSB_SF_EEEEEEJRKSN_EEEPT_DpOT0_EUlPSN_E_Li1ELb0EEC2B8ue170006IRKSW_vEEOSQ_, symObjAddr: 0x14FA0, symBinAddr: 0x10001805C, symSize: 0x24 }
  - { offsetInCU: 0x46F32, offset: 0x46F32, size: 0x8, addend: 0x0, symName: __ZNSt3__13mapINS_12basic_stringIcNS_11char_traitsIcEENS_9allocatorIcEEEEN8nlohmann16json_abi_v3_12_010basic_jsonIS0_NS_6vectorES6_bxydS4_NS8_14adl_serializerENSA_IhNS4_IhEEEEvEENS_4lessIvEENS4_INS_4pairIKS6_SE_EEEEEC1B8ue170006ERKSL_, symObjAddr: 0x15000, symBinAddr: 0x1000180BC, symSize: 0x34 }
  - { offsetInCU: 0x46F6C, offset: 0x46F6C, size: 0x8, addend: 0x0, symName: __ZNSt3__13mapINS_12basic_stringIcNS_11char_traitsIcEENS_9allocatorIcEEEEN8nlohmann16json_abi_v3_12_010basic_jsonIS0_NS_6vectorES6_bxydS4_NS8_14adl_serializerENSA_IhNS4_IhEEEEvEENS_4lessIvEENS4_INS_4pairIKS6_SE_EEEEEC2B8ue170006ERKSL_, symObjAddr: 0x15034, symBinAddr: 0x1000180F0, symSize: 0x88 }
  - { offsetInCU: 0x46FA6, offset: 0x46FA6, size: 0x8, addend: 0x0, symName: __ZNSt3__16__treeINS_12__value_typeINS_12basic_stringIcNS_11char_traitsIcEENS_9allocatorIcEEEEN8nlohmann16json_abi_v3_12_010basic_jsonINS_3mapENS_6vectorES7_bxydS5_NS9_14adl_serializerENSC_IhNS5_IhEEEEvEEEENS_19__map_value_compareIS7_SH_NS_4lessIvEELb1EEENS5_ISH_EEEC1ERKSN_, symObjAddr: 0x150BC, symBinAddr: 0x100018178, symSize: 0x34 }
  - { offsetInCU: 0x46FE2, offset: 0x46FE2, size: 0x8, addend: 0x0, symName: __ZNSt3__13mapINS_12basic_stringIcNS_11char_traitsIcEENS_9allocatorIcEEEEN8nlohmann16json_abi_v3_12_010basic_jsonIS0_NS_6vectorES6_bxydS4_NS8_14adl_serializerENSA_IhNS4_IhEEEEvEENS_4lessIvEENS4_INS_4pairIKS6_SE_EEEEE6insertB8ue170006INS_20__map_const_iteratorINS_21__tree_const_iteratorINS_12__value_typeIS6_SE_EEPNS_11__tree_nodeISQ_PvEElEEEEEEvT_SX_, symObjAddr: 0x150F0, symBinAddr: 0x1000181AC, symSize: 0x8C }
  - { offsetInCU: 0x4704E, offset: 0x4704E, size: 0x8, addend: 0x0, symName: __ZNKSt3__13mapINS_12basic_stringIcNS_11char_traitsIcEENS_9allocatorIcEEEEN8nlohmann16json_abi_v3_12_010basic_jsonIS0_NS_6vectorES6_bxydS4_NS8_14adl_serializerENSA_IhNS4_IhEEEEvEENS_4lessIvEENS4_INS_4pairIKS6_SE_EEEEE5beginB8ue170006Ev, symObjAddr: 0x1517C, symBinAddr: 0x100018238, symSize: 0x38 }
  - { offsetInCU: 0x47074, offset: 0x47074, size: 0x8, addend: 0x0, symName: __ZNKSt3__13mapINS_12basic_stringIcNS_11char_traitsIcEENS_9allocatorIcEEEEN8nlohmann16json_abi_v3_12_010basic_jsonIS0_NS_6vectorES6_bxydS4_NS8_14adl_serializerENSA_IhNS4_IhEEEEvEENS_4lessIvEENS4_INS_4pairIKS6_SE_EEEEE3endB8ue170006Ev, symObjAddr: 0x151B4, symBinAddr: 0x100018270, symSize: 0x38 }
  - { offsetInCU: 0x4709A, offset: 0x4709A, size: 0x8, addend: 0x0, symName: __ZNSt3__16__treeINS_12__value_typeINS_12basic_stringIcNS_11char_traitsIcEENS_9allocatorIcEEEEN8nlohmann16json_abi_v3_12_010basic_jsonINS_3mapENS_6vectorES7_bxydS5_NS9_14adl_serializerENSC_IhNS5_IhEEEEvEEEENS_19__map_value_compareIS7_SH_NS_4lessIvEELb1EEENS5_ISH_EEEC2ERKSN_, symObjAddr: 0x151EC, symBinAddr: 0x1000182A8, symSize: 0x9C }
  - { offsetInCU: 0x470E1, offset: 0x470E1, size: 0x8, addend: 0x0, symName: __ZNSt3__116allocator_traitsINS_9allocatorINS_11__tree_nodeINS_12__value_typeINS_12basic_stringIcNS_11char_traitsIcEENS1_IcEEEEN8nlohmann16json_abi_v3_12_010basic_jsonINS_3mapENS_6vectorES8_bxydS1_NSA_14adl_serializerENSD_IhNS1_IhEEEEvEEEEPvEEEEE37select_on_container_copy_constructionB8ue170006ISL_vvEESL_RKSL_, symObjAddr: 0x15288, symBinAddr: 0x100018344, symSize: 0x10 }
  - { offsetInCU: 0x47111, offset: 0x47111, size: 0x8, addend: 0x0, symName: __ZNKSt3__16__treeINS_12__value_typeINS_12basic_stringIcNS_11char_traitsIcEENS_9allocatorIcEEEEN8nlohmann16json_abi_v3_12_010basic_jsonINS_3mapENS_6vectorES7_bxydS5_NS9_14adl_serializerENSC_IhNS5_IhEEEEvEEEENS_19__map_value_compareIS7_SH_NS_4lessIvEELb1EEENS5_ISH_EEE12__node_allocB8ue170006Ev, symObjAddr: 0x15298, symBinAddr: 0x100018354, symSize: 0x28 }
  - { offsetInCU: 0x4713D, offset: 0x4713D, size: 0x8, addend: 0x0, symName: __ZNSt3__117__compressed_pairINS_15__tree_end_nodeIPNS_16__tree_node_baseIPvEEEENS_9allocatorINS_11__tree_nodeINS_12__value_typeINS_12basic_stringIcNS_11char_traitsIcEENS7_IcEEEEN8nlohmann16json_abi_v3_12_010basic_jsonINS_3mapENS_6vectorESE_bxydS7_NSG_14adl_serializerENSJ_IhNS7_IhEEEEvEEEES3_EEEEEC1B8ue170006INS_18__default_init_tagESQ_EEOT_OT0_, symObjAddr: 0x152C0, symBinAddr: 0x10001837C, symSize: 0x3C }
  - { offsetInCU: 0x47195, offset: 0x47195, size: 0x8, addend: 0x0, symName: __ZNKSt3__16__treeINS_12__value_typeINS_12basic_stringIcNS_11char_traitsIcEENS_9allocatorIcEEEEN8nlohmann16json_abi_v3_12_010basic_jsonINS_3mapENS_6vectorES7_bxydS5_NS9_14adl_serializerENSC_IhNS5_IhEEEEvEEEENS_19__map_value_compareIS7_SH_NS_4lessIvEELb1EEENS5_ISH_EEE10value_compB8ue170006Ev, symObjAddr: 0x152FC, symBinAddr: 0x1000183B8, symSize: 0x28 }
  - { offsetInCU: 0x471BB, offset: 0x471BB, size: 0x8, addend: 0x0, symName: __ZNKSt3__117__compressed_pairINS_15__tree_end_nodeIPNS_16__tree_node_baseIPvEEEENS_9allocatorINS_11__tree_nodeINS_12__value_typeINS_12basic_stringIcNS_11char_traitsIcEENS7_IcEEEEN8nlohmann16json_abi_v3_12_010basic_jsonINS_3mapENS_6vectorESE_bxydS7_NSG_14adl_serializerENSJ_IhNS7_IhEEEEvEEEES3_EEEEE6secondB8ue170006Ev, symObjAddr: 0x15324, symBinAddr: 0x1000183E0, symSize: 0x24 }
  - { offsetInCU: 0x471E1, offset: 0x471E1, size: 0x8, addend: 0x0, symName: __ZNKSt3__122__compressed_pair_elemINS_9allocatorINS_11__tree_nodeINS_12__value_typeINS_12basic_stringIcNS_11char_traitsIcEENS1_IcEEEEN8nlohmann16json_abi_v3_12_010basic_jsonINS_3mapENS_6vectorES8_bxydS1_NSA_14adl_serializerENSD_IhNS1_IhEEEEvEEEEPvEEEELi1ELb1EE5__getB8ue170006Ev, symObjAddr: 0x15348, symBinAddr: 0x100018404, symSize: 0x14 }
  - { offsetInCU: 0x47207, offset: 0x47207, size: 0x8, addend: 0x0, symName: __ZNSt3__117__compressed_pairINS_15__tree_end_nodeIPNS_16__tree_node_baseIPvEEEENS_9allocatorINS_11__tree_nodeINS_12__value_typeINS_12basic_stringIcNS_11char_traitsIcEENS7_IcEEEEN8nlohmann16json_abi_v3_12_010basic_jsonINS_3mapENS_6vectorESE_bxydS7_NSG_14adl_serializerENSJ_IhNS7_IhEEEEvEEEES3_EEEEEC2B8ue170006INS_18__default_init_tagESQ_EEOT_OT0_, symObjAddr: 0x1535C, symBinAddr: 0x100018418, symSize: 0x40 }
  - { offsetInCU: 0x4725F, offset: 0x4725F, size: 0x8, addend: 0x0, symName: __ZNSt3__122__compressed_pair_elemINS_15__tree_end_nodeIPNS_16__tree_node_baseIPvEEEELi0ELb0EEC2B8ue170006ENS_18__default_init_tagE, symObjAddr: 0x1539C, symBinAddr: 0x100018458, symSize: 0x2C }
  - { offsetInCU: 0x47294, offset: 0x47294, size: 0x8, addend: 0x0, symName: __ZNSt3__122__compressed_pair_elemINS_9allocatorINS_11__tree_nodeINS_12__value_typeINS_12basic_stringIcNS_11char_traitsIcEENS1_IcEEEEN8nlohmann16json_abi_v3_12_010basic_jsonINS_3mapENS_6vectorES8_bxydS1_NSA_14adl_serializerENSD_IhNS1_IhEEEEvEEEEPvEEEELi1ELb1EEC2B8ue170006ISL_vEEOT_, symObjAddr: 0x153C8, symBinAddr: 0x100018484, symSize: 0x18 }
  - { offsetInCU: 0x472D6, offset: 0x472D6, size: 0x8, addend: 0x0, symName: __ZNKSt3__117__compressed_pairImNS_19__map_value_compareINS_12basic_stringIcNS_11char_traitsIcEENS_9allocatorIcEEEENS_12__value_typeIS7_N8nlohmann16json_abi_v3_12_010basic_jsonINS_3mapENS_6vectorES7_bxydS5_NSA_14adl_serializerENSD_IhNS5_IhEEEEvEEEENS_4lessIvEELb1EEEE6secondB8ue170006Ev, symObjAddr: 0x153E0, symBinAddr: 0x10001849C, symSize: 0x24 }
  - { offsetInCU: 0x472FC, offset: 0x472FC, size: 0x8, addend: 0x0, symName: __ZNKSt3__122__compressed_pair_elemINS_19__map_value_compareINS_12basic_stringIcNS_11char_traitsIcEENS_9allocatorIcEEEENS_12__value_typeIS7_N8nlohmann16json_abi_v3_12_010basic_jsonINS_3mapENS_6vectorES7_bxydS5_NSA_14adl_serializerENSD_IhNS5_IhEEEEvEEEENS_4lessIvEELb1EEELi1ELb1EE5__getB8ue170006Ev, symObjAddr: 0x15404, symBinAddr: 0x1000184C0, symSize: 0x14 }
  - { offsetInCU: 0x47322, offset: 0x47322, size: 0x8, addend: 0x0, symName: __ZNKSt3__13mapINS_12basic_stringIcNS_11char_traitsIcEENS_9allocatorIcEEEEN8nlohmann16json_abi_v3_12_010basic_jsonIS0_NS_6vectorES6_bxydS4_NS8_14adl_serializerENSA_IhNS4_IhEEEEvEENS_4lessIvEENS4_INS_4pairIKS6_SE_EEEEE4cendB8ue170006Ev, symObjAddr: 0x15418, symBinAddr: 0x1000184D4, symSize: 0x2C }
  - { offsetInCU: 0x47348, offset: 0x47348, size: 0x8, addend: 0x0, symName: __ZNSt3__13mapINS_12basic_stringIcNS_11char_traitsIcEENS_9allocatorIcEEEEN8nlohmann16json_abi_v3_12_010basic_jsonIS0_NS_6vectorES6_bxydS4_NS8_14adl_serializerENSA_IhNS4_IhEEEEvEENS_4lessIvEENS4_INS_4pairIKS6_SE_EEEEE6insertB8ue170006ENS_20__map_const_iteratorINS_21__tree_const_iteratorINS_12__value_typeIS6_SE_EEPNS_11__tree_nodeISP_PvEElEEEERKSJ_, symObjAddr: 0x15474, symBinAddr: 0x100018530, symSize: 0x50 }
  - { offsetInCU: 0x4738E, offset: 0x4738E, size: 0x8, addend: 0x0, symName: __ZNSt3__120__map_const_iteratorINS_21__tree_const_iteratorINS_12__value_typeINS_12basic_stringIcNS_11char_traitsIcEENS_9allocatorIcEEEEN8nlohmann16json_abi_v3_12_010basic_jsonINS_3mapENS_6vectorES8_bxydS6_NSA_14adl_serializerENSD_IhNS6_IhEEEEvEEEEPNS_11__tree_nodeISI_PvEElEEEC1B8ue170006ESN_, symObjAddr: 0x154C4, symBinAddr: 0x100018580, symSize: 0x34 }
  - { offsetInCU: 0x473C8, offset: 0x473C8, size: 0x8, addend: 0x0, symName: __ZNKSt3__120__map_const_iteratorINS_21__tree_const_iteratorINS_12__value_typeINS_12basic_stringIcNS_11char_traitsIcEENS_9allocatorIcEEEEN8nlohmann16json_abi_v3_12_010basic_jsonINS_3mapENS_6vectorES8_bxydS6_NSA_14adl_serializerENSD_IhNS6_IhEEEEvEEEEPNS_11__tree_nodeISI_PvEElEEEdeB8ue170006Ev, symObjAddr: 0x154F8, symBinAddr: 0x1000185B4, symSize: 0x28 }
  - { offsetInCU: 0x473EE, offset: 0x473EE, size: 0x8, addend: 0x0, symName: __ZNSt3__120__map_const_iteratorINS_21__tree_const_iteratorINS_12__value_typeINS_12basic_stringIcNS_11char_traitsIcEENS_9allocatorIcEEEEN8nlohmann16json_abi_v3_12_010basic_jsonINS_3mapENS_6vectorES8_bxydS6_NSA_14adl_serializerENSD_IhNS6_IhEEEEvEEEEPNS_11__tree_nodeISI_PvEElEEEppB8ue170006Ev, symObjAddr: 0x15520, symBinAddr: 0x1000185DC, symSize: 0x2C }
  - { offsetInCU: 0x47414, offset: 0x47414, size: 0x8, addend: 0x0, symName: __ZNSt3__16__treeINS_12__value_typeINS_12basic_stringIcNS_11char_traitsIcEENS_9allocatorIcEEEEN8nlohmann16json_abi_v3_12_010basic_jsonINS_3mapENS_6vectorES7_bxydS5_NS9_14adl_serializerENSC_IhNS5_IhEEEEvEEEENS_19__map_value_compareIS7_SH_NS_4lessIvEELb1EEENS5_ISH_EEE15__insert_uniqueB8ue170006ENS_21__tree_const_iteratorISH_PNS_11__tree_nodeISH_PvEElEERKNS_4pairIKS7_SG_EE, symObjAddr: 0x155B0, symBinAddr: 0x10001866C, symSize: 0x64 }
  - { offsetInCU: 0x4745A, offset: 0x4745A, size: 0x8, addend: 0x0, symName: __ZNSt3__16__treeINS_12__value_typeINS_12basic_stringIcNS_11char_traitsIcEENS_9allocatorIcEEEEN8nlohmann16json_abi_v3_12_010basic_jsonINS_3mapENS_6vectorES7_bxydS5_NS9_14adl_serializerENSC_IhNS5_IhEEEEvEEEENS_19__map_value_compareIS7_SH_NS_4lessIvEELb1EEENS5_ISH_EEE30__emplace_hint_unique_key_argsIS7_JRKNS_4pairIKS7_SG_EEEEENSP_INS_15__tree_iteratorISH_PNS_11__tree_nodeISH_PvEElEEbEENS_21__tree_const_iteratorISH_SY_lEERKT_DpOT0_, symObjAddr: 0x15614, symBinAddr: 0x1000186D0, symSize: 0x104 }
  - { offsetInCU: 0x47529, offset: 0x47529, size: 0x8, addend: 0x0, symName: __ZNSt3__122__tree_key_value_typesINS_12__value_typeINS_12basic_stringIcNS_11char_traitsIcEENS_9allocatorIcEEEEN8nlohmann16json_abi_v3_12_010basic_jsonINS_3mapENS_6vectorES7_bxydS5_NS9_14adl_serializerENSC_IhNS5_IhEEEEvEEEEE9__get_keyB8ue170006IKNS_4pairIKS7_SG_EEEENS_9enable_ifIXsr17__is_same_uncvrefIT_SM_EE5valueERSL_E4typeERSP_, symObjAddr: 0x15718, symBinAddr: 0x1000187D4, symSize: 0x14 }
  - { offsetInCU: 0x47557, offset: 0x47557, size: 0x8, addend: 0x0, symName: __ZNSt3__16__treeINS_12__value_typeINS_12basic_stringIcNS_11char_traitsIcEENS_9allocatorIcEEEEN8nlohmann16json_abi_v3_12_010basic_jsonINS_3mapENS_6vectorES7_bxydS5_NS9_14adl_serializerENSC_IhNS5_IhEEEEvEEEENS_19__map_value_compareIS7_SH_NS_4lessIvEELb1EEENS5_ISH_EEE12__find_equalIS7_EERPNS_16__tree_node_baseIPvEENS_21__tree_const_iteratorISH_PNS_11__tree_nodeISH_SQ_EElEERPNS_15__tree_end_nodeISS_EEST_RKT_, symObjAddr: 0x1572C, symBinAddr: 0x1000187E8, symSize: 0x304 }
  - { offsetInCU: 0x47604, offset: 0x47604, size: 0x8, addend: 0x0, symName: __ZNSt3__16__treeINS_12__value_typeINS_12basic_stringIcNS_11char_traitsIcEENS_9allocatorIcEEEEN8nlohmann16json_abi_v3_12_010basic_jsonINS_3mapENS_6vectorES7_bxydS5_NS9_14adl_serializerENSC_IhNS5_IhEEEEvEEEENS_19__map_value_compareIS7_SH_NS_4lessIvEELb1EEENS5_ISH_EEE16__construct_nodeIJRKNS_4pairIKS7_SG_EEEEENS_10unique_ptrINS_11__tree_nodeISH_PvEENS_22__tree_node_destructorINS5_ISX_EEEEEEDpOT_, symObjAddr: 0x15A30, symBinAddr: 0x100018AEC, symSize: 0x108 }
  - { offsetInCU: 0x47666, offset: 0x47666, size: 0x8, addend: 0x0, symName: __ZNSt3__16__treeINS_12__value_typeINS_12basic_stringIcNS_11char_traitsIcEENS_9allocatorIcEEEEN8nlohmann16json_abi_v3_12_010basic_jsonINS_3mapENS_6vectorES7_bxydS5_NS9_14adl_serializerENSC_IhNS5_IhEEEEvEEEENS_19__map_value_compareIS7_SH_NS_4lessIvEELb1EEENS5_ISH_EEE16__insert_node_atEPNS_15__tree_end_nodeIPNS_16__tree_node_baseIPvEEEERSS_SS_, symObjAddr: 0x15B38, symBinAddr: 0x100018BF4, symSize: 0xCC }
  - { offsetInCU: 0x476BE, offset: 0x476BE, size: 0x8, addend: 0x0, symName: __ZNKSt3__110unique_ptrINS_11__tree_nodeINS_12__value_typeINS_12basic_stringIcNS_11char_traitsIcEENS_9allocatorIcEEEEN8nlohmann16json_abi_v3_12_010basic_jsonINS_3mapENS_6vectorES8_bxydS6_NSA_14adl_serializerENSD_IhNS6_IhEEEEvEEEEPvEENS_22__tree_node_destructorINS6_ISK_EEEEE3getB8ue170006Ev, symObjAddr: 0x15C04, symBinAddr: 0x100018CC0, symSize: 0x28 }
  - { offsetInCU: 0x476E4, offset: 0x476E4, size: 0x8, addend: 0x0, symName: __ZNSt3__110unique_ptrINS_11__tree_nodeINS_12__value_typeINS_12basic_stringIcNS_11char_traitsIcEENS_9allocatorIcEEEEN8nlohmann16json_abi_v3_12_010basic_jsonINS_3mapENS_6vectorES8_bxydS6_NSA_14adl_serializerENSD_IhNS6_IhEEEEvEEEEPvEENS_22__tree_node_destructorINS6_ISK_EEEEE7releaseB8ue170006Ev, symObjAddr: 0x15C2C, symBinAddr: 0x100018CE8, symSize: 0x44 }
  - { offsetInCU: 0x47719, offset: 0x47719, size: 0x8, addend: 0x0, symName: __ZNSt3__110unique_ptrINS_11__tree_nodeINS_12__value_typeINS_12basic_stringIcNS_11char_traitsIcEENS_9allocatorIcEEEEN8nlohmann16json_abi_v3_12_010basic_jsonINS_3mapENS_6vectorES8_bxydS6_NSA_14adl_serializerENSD_IhNS6_IhEEEEvEEEEPvEENS_22__tree_node_destructorINS6_ISK_EEEEED1B8ue170006Ev, symObjAddr: 0x15C70, symBinAddr: 0x100018D2C, symSize: 0x2C }
  - { offsetInCU: 0x47743, offset: 0x47743, size: 0x8, addend: 0x0, symName: __ZNSt3__115__tree_iteratorINS_12__value_typeINS_12basic_stringIcNS_11char_traitsIcEENS_9allocatorIcEEEEN8nlohmann16json_abi_v3_12_010basic_jsonINS_3mapENS_6vectorES7_bxydS5_NS9_14adl_serializerENSC_IhNS5_IhEEEEvEEEEPNS_11__tree_nodeISH_PvEElEC1B8ue170006ESL_, symObjAddr: 0x15C9C, symBinAddr: 0x100018D58, symSize: 0x34 }
  - { offsetInCU: 0x47789, offset: 0x47789, size: 0x8, addend: 0x0, symName: __ZNSt3__14pairINS_15__tree_iteratorINS_12__value_typeINS_12basic_stringIcNS_11char_traitsIcEENS_9allocatorIcEEEEN8nlohmann16json_abi_v3_12_010basic_jsonINS_3mapENS_6vectorES8_bxydS6_NSA_14adl_serializerENSD_IhNS6_IhEEEEvEEEEPNS_11__tree_nodeISI_PvEElEEbEC1B8ue170006ISN_RbLSK_0EEEOT_OT0_, symObjAddr: 0x15CD0, symBinAddr: 0x100018D8C, symSize: 0x3C }
  - { offsetInCU: 0x477E7, offset: 0x477E7, size: 0x8, addend: 0x0, symName: __ZNSt3__121__tree_const_iteratorINS_12__value_typeINS_12basic_stringIcNS_11char_traitsIcEENS_9allocatorIcEEEEN8nlohmann16json_abi_v3_12_010basic_jsonINS_3mapENS_6vectorES7_bxydS5_NS9_14adl_serializerENSC_IhNS5_IhEEEEvEEEEPNS_11__tree_nodeISH_PvEElEC1B8ue170006ENS_15__tree_iteratorISH_SL_lEE, symObjAddr: 0x15D0C, symBinAddr: 0x100018DC8, symSize: 0x34 }
  - { offsetInCU: 0x47821, offset: 0x47821, size: 0x8, addend: 0x0, symName: __ZNSt3__16__treeINS_12__value_typeINS_12basic_stringIcNS_11char_traitsIcEENS_9allocatorIcEEEEN8nlohmann16json_abi_v3_12_010basic_jsonINS_3mapENS_6vectorES7_bxydS5_NS9_14adl_serializerENSC_IhNS5_IhEEEEvEEEENS_19__map_value_compareIS7_SH_NS_4lessIvEELb1EEENS5_ISH_EEE10value_compB8ue170006Ev, symObjAddr: 0x15D40, symBinAddr: 0x100018DFC, symSize: 0x28 }
  - { offsetInCU: 0x47847, offset: 0x47847, size: 0x8, addend: 0x0, symName: __ZNKSt3__119__map_value_compareINS_12basic_stringIcNS_11char_traitsIcEENS_9allocatorIcEEEENS_12__value_typeIS6_N8nlohmann16json_abi_v3_12_010basic_jsonINS_3mapENS_6vectorES6_bxydS4_NS9_14adl_serializerENSC_IhNS4_IhEEEEvEEEENS_4lessIvEELb1EEclB8ue170006ERKS6_RKSH_, symObjAddr: 0x15D68, symBinAddr: 0x100018E24, symSize: 0x50 }
  - { offsetInCU: 0x4788D, offset: 0x4788D, size: 0x8, addend: 0x0, symName: __ZNKSt3__121__tree_const_iteratorINS_12__value_typeINS_12basic_stringIcNS_11char_traitsIcEENS_9allocatorIcEEEEN8nlohmann16json_abi_v3_12_010basic_jsonINS_3mapENS_6vectorES7_bxydS5_NS9_14adl_serializerENSC_IhNS5_IhEEEEvEEEEPNS_11__tree_nodeISH_PvEElEdeB8ue170006Ev, symObjAddr: 0x15DB8, symBinAddr: 0x100018E74, symSize: 0x28 }
  - { offsetInCU: 0x478B3, offset: 0x478B3, size: 0x8, addend: 0x0, symName: __ZNKSt3__119__map_value_compareINS_12basic_stringIcNS_11char_traitsIcEENS_9allocatorIcEEEENS_12__value_typeIS6_N8nlohmann16json_abi_v3_12_010basic_jsonINS_3mapENS_6vectorES6_bxydS4_NS9_14adl_serializerENSC_IhNS4_IhEEEEvEEEENS_4lessIvEELb1EEclB8ue170006ERKSH_RKS6_, symObjAddr: 0x15DE0, symBinAddr: 0x100018E9C, symSize: 0x48 }
  - { offsetInCU: 0x478F9, offset: 0x478F9, size: 0x8, addend: 0x0, symName: __ZNSt3__121__tree_const_iteratorINS_12__value_typeINS_12basic_stringIcNS_11char_traitsIcEENS_9allocatorIcEEEEN8nlohmann16json_abi_v3_12_010basic_jsonINS_3mapENS_6vectorES7_bxydS5_NS9_14adl_serializerENSC_IhNS5_IhEEEEvEEEEPNS_11__tree_nodeISH_PvEElEmmB8ue170006Ev, symObjAddr: 0x15E28, symBinAddr: 0x100018EE4, symSize: 0x38 }
  - { offsetInCU: 0x4791F, offset: 0x4791F, size: 0x8, addend: 0x0, symName: __ZNSt3__16__treeINS_12__value_typeINS_12basic_stringIcNS_11char_traitsIcEENS_9allocatorIcEEEEN8nlohmann16json_abi_v3_12_010basic_jsonINS_3mapENS_6vectorES7_bxydS5_NS9_14adl_serializerENSC_IhNS5_IhEEEEvEEEENS_19__map_value_compareIS7_SH_NS_4lessIvEELb1EEENS5_ISH_EEE12__find_equalIS7_EERPNS_16__tree_node_baseIPvEERPNS_15__tree_end_nodeISS_EERKT_, symObjAddr: 0x15E60, symBinAddr: 0x100018F1C, symSize: 0x184 }
  - { offsetInCU: 0x4798E, offset: 0x4798E, size: 0x8, addend: 0x0, symName: __ZNKSt3__121__tree_const_iteratorINS_12__value_typeINS_12basic_stringIcNS_11char_traitsIcEENS_9allocatorIcEEEEN8nlohmann16json_abi_v3_12_010basic_jsonINS_3mapENS_6vectorES7_bxydS5_NS9_14adl_serializerENSC_IhNS5_IhEEEEvEEEEPNS_11__tree_nodeISH_PvEElE8__get_npB8ue170006Ev, symObjAddr: 0x16020, symBinAddr: 0x1000190DC, symSize: 0x18 }
  - { offsetInCU: 0x479B4, offset: 0x479B4, size: 0x8, addend: 0x0, symName: __ZNSt3__121__tree_const_iteratorINS_12__value_typeINS_12basic_stringIcNS_11char_traitsIcEENS_9allocatorIcEEEEN8nlohmann16json_abi_v3_12_010basic_jsonINS_3mapENS_6vectorES7_bxydS5_NS9_14adl_serializerENSC_IhNS5_IhEEEEvEEEEPNS_11__tree_nodeISH_PvEElEC2B8ue170006ENS_15__tree_iteratorISH_SL_lEE, symObjAddr: 0x16038, symBinAddr: 0x1000190F4, symSize: 0x20 }
  - { offsetInCU: 0x479EE, offset: 0x479EE, size: 0x8, addend: 0x0, symName: __ZNSt3__117__compressed_pairImNS_19__map_value_compareINS_12basic_stringIcNS_11char_traitsIcEENS_9allocatorIcEEEENS_12__value_typeIS7_N8nlohmann16json_abi_v3_12_010basic_jsonINS_3mapENS_6vectorES7_bxydS5_NSA_14adl_serializerENSD_IhNS5_IhEEEEvEEEENS_4lessIvEELb1EEEE6secondB8ue170006Ev, symObjAddr: 0x16058, symBinAddr: 0x100019114, symSize: 0x24 }
  - { offsetInCU: 0x47A14, offset: 0x47A14, size: 0x8, addend: 0x0, symName: __ZNSt3__122__compressed_pair_elemINS_19__map_value_compareINS_12basic_stringIcNS_11char_traitsIcEENS_9allocatorIcEEEENS_12__value_typeIS7_N8nlohmann16json_abi_v3_12_010basic_jsonINS_3mapENS_6vectorES7_bxydS5_NSA_14adl_serializerENSD_IhNS5_IhEEEEvEEEENS_4lessIvEELb1EEELi1ELb1EE5__getB8ue170006Ev, symObjAddr: 0x1607C, symBinAddr: 0x100019138, symSize: 0x14 }
  - { offsetInCU: 0x47A40, offset: 0x47A40, size: 0x8, addend: 0x0, symName: __ZNKSt3__14lessIvEclB8ue170006IRKNS_12basic_stringIcNS_11char_traitsIcEENS_9allocatorIcEEEESA_EEDTltclsr3stdE7forwardIT_Efp_Eclsr3stdE7forwardIT0_Efp0_EEOSB_OSC_, symObjAddr: 0x16090, symBinAddr: 0x10001914C, symSize: 0x50 }
  - { offsetInCU: 0x47A98, offset: 0x47A98, size: 0x8, addend: 0x0, symName: __ZNKSt3__112__value_typeINS_12basic_stringIcNS_11char_traitsIcEENS_9allocatorIcEEEEN8nlohmann16json_abi_v3_12_010basic_jsonINS_3mapENS_6vectorES6_bxydS4_NS8_14adl_serializerENSB_IhNS4_IhEEEEvEEE11__get_valueB8ue170006Ev, symObjAddr: 0x160E0, symBinAddr: 0x10001919C, symSize: 0x24 }
  - { offsetInCU: 0x47ACE, offset: 0x47ACE, size: 0x8, addend: 0x0, symName: __ZNSt3__120_CmpUnspecifiedParamC1B8ue170006EMS0_i, symObjAddr: 0x16184, symBinAddr: 0x100019240, symSize: 0x34 }
  - { offsetInCU: 0x47B03, offset: 0x47B03, size: 0x8, addend: 0x0, symName: __ZNKSt3__112basic_stringIcNS_11char_traitsIcEENS_9allocatorIcEEEcvNS_17basic_string_viewIcS2_EEB8ue170006Ev, symObjAddr: 0x16234, symBinAddr: 0x1000192F0, symSize: 0x50 }
  - { offsetInCU: 0x47B29, offset: 0x47B29, size: 0x8, addend: 0x0, symName: __ZNKSt3__117basic_string_viewIcNS_11char_traitsIcEEE7compareES3_, symObjAddr: 0x16284, symBinAddr: 0x100019340, symSize: 0x13C }
  - { offsetInCU: 0x47B7D, offset: 0x47B7D, size: 0x8, addend: 0x0, symName: __ZNKSt3__117basic_string_viewIcNS_11char_traitsIcEEE4sizeB8ue170006Ev, symObjAddr: 0x163C0, symBinAddr: 0x10001947C, symSize: 0x18 }
  - { offsetInCU: 0x47BA3, offset: 0x47BA3, size: 0x8, addend: 0x0, symName: __ZNSt3__111char_traitsIcE7compareB8ue170006EPKcS3_m, symObjAddr: 0x163D8, symBinAddr: 0x100019494, symSize: 0x34 }
  - { offsetInCU: 0x47BE2, offset: 0x47BE2, size: 0x8, addend: 0x0, symName: __ZNKSt3__117basic_string_viewIcNS_11char_traitsIcEEE4dataB8ue170006Ev, symObjAddr: 0x1640C, symBinAddr: 0x1000194C8, symSize: 0x18 }
  - { offsetInCU: 0x47C08, offset: 0x47C08, size: 0x8, addend: 0x0, symName: __ZNSt3__117basic_string_viewIcNS_11char_traitsIcEEEC1B8ue170006EPKcm, symObjAddr: 0x16424, symBinAddr: 0x1000194E0, symSize: 0x3C }
  - { offsetInCU: 0x47C52, offset: 0x47C52, size: 0x8, addend: 0x0, symName: __ZNSt3__117basic_string_viewIcNS_11char_traitsIcEEEC2B8ue170006EPKcm, symObjAddr: 0x16460, symBinAddr: 0x10001951C, symSize: 0x2C }
  - { offsetInCU: 0x47C9C, offset: 0x47C9C, size: 0x8, addend: 0x0, symName: __ZNSt3__120_CmpUnspecifiedParamC2B8ue170006EMS0_i, symObjAddr: 0x1648C, symBinAddr: 0x100019548, symSize: 0x18 }
  - { offsetInCU: 0x47CD1, offset: 0x47CD1, size: 0x8, addend: 0x0, symName: __ZNKSt3__16__treeINS_12__value_typeINS_12basic_stringIcNS_11char_traitsIcEENS_9allocatorIcEEEEN8nlohmann16json_abi_v3_12_010basic_jsonINS_3mapENS_6vectorES7_bxydS5_NS9_14adl_serializerENSC_IhNS5_IhEEEEvEEEENS_19__map_value_compareIS7_SH_NS_4lessIvEELb1EEENS5_ISH_EEE10__root_ptrB8ue170006Ev, symObjAddr: 0x165A4, symBinAddr: 0x100019660, symSize: 0x24 }
  - { offsetInCU: 0x47CF7, offset: 0x47CF7, size: 0x8, addend: 0x0, symName: __ZNSt3__121__tree_const_iteratorINS_12__value_typeINS_12basic_stringIcNS_11char_traitsIcEENS_9allocatorIcEEEEN8nlohmann16json_abi_v3_12_010basic_jsonINS_3mapENS_6vectorES7_bxydS5_NS9_14adl_serializerENSC_IhNS5_IhEEEEvEEEEPNS_11__tree_nodeISH_PvEElEppB8ue170006Ev, symObjAddr: 0x166A4, symBinAddr: 0x100019760, symSize: 0x38 }
  - { offsetInCU: 0x47D1D, offset: 0x47D1D, size: 0x8, addend: 0x0, symName: __ZNSt3__116allocator_traitsINS_9allocatorINS_11__tree_nodeINS_12__value_typeINS_12basic_stringIcNS_11char_traitsIcEENS1_IcEEEEN8nlohmann16json_abi_v3_12_010basic_jsonINS_3mapENS_6vectorES8_bxydS1_NSA_14adl_serializerENSD_IhNS1_IhEEEEvEEEEPvEEEEE8allocateB8ue170006ERSL_m, symObjAddr: 0x166DC, symBinAddr: 0x100019798, symSize: 0x2C }
  - { offsetInCU: 0x47D52, offset: 0x47D52, size: 0x8, addend: 0x0, symName: __ZNSt3__122__tree_node_destructorINS_9allocatorINS_11__tree_nodeINS_12__value_typeINS_12basic_stringIcNS_11char_traitsIcEENS1_IcEEEEN8nlohmann16json_abi_v3_12_010basic_jsonINS_3mapENS_6vectorES8_bxydS1_NSA_14adl_serializerENSD_IhNS1_IhEEEEvEEEEPvEEEEEC1B8ue170006ERSL_b, symObjAddr: 0x16708, symBinAddr: 0x1000197C4, symSize: 0x48 }
  - { offsetInCU: 0x47DA2, offset: 0x47DA2, size: 0x8, addend: 0x0, symName: __ZNSt3__110unique_ptrINS_11__tree_nodeINS_12__value_typeINS_12basic_stringIcNS_11char_traitsIcEENS_9allocatorIcEEEEN8nlohmann16json_abi_v3_12_010basic_jsonINS_3mapENS_6vectorES8_bxydS6_NSA_14adl_serializerENSD_IhNS6_IhEEEEvEEEEPvEENS_22__tree_node_destructorINS6_ISK_EEEEEC1B8ue170006ILb1EvEEPSK_NS_16__dependent_typeINS_27__unique_ptr_deleter_sfinaeISN_EEXT_EE20__good_rval_ref_typeE, symObjAddr: 0x16750, symBinAddr: 0x10001980C, symSize: 0x3C }
  - { offsetInCU: 0x47DF3, offset: 0x47DF3, size: 0x8, addend: 0x0, symName: __ZNSt3__116allocator_traitsINS_9allocatorINS_11__tree_nodeINS_12__value_typeINS_12basic_stringIcNS_11char_traitsIcEENS1_IcEEEEN8nlohmann16json_abi_v3_12_010basic_jsonINS_3mapENS_6vectorES8_bxydS1_NSA_14adl_serializerENSD_IhNS1_IhEEEEvEEEEPvEEEEE9constructB8ue170006INS_4pairIKS8_SH_EEJRKSQ_EvvEEvRSL_PT_DpOT0_, symObjAddr: 0x1678C, symBinAddr: 0x100019848, symSize: 0x30 }
  - { offsetInCU: 0x47E4A, offset: 0x47E4A, size: 0x8, addend: 0x0, symName: __ZNKSt3__110unique_ptrINS_11__tree_nodeINS_12__value_typeINS_12basic_stringIcNS_11char_traitsIcEENS_9allocatorIcEEEEN8nlohmann16json_abi_v3_12_010basic_jsonINS_3mapENS_6vectorES8_bxydS6_NSA_14adl_serializerENSD_IhNS6_IhEEEEvEEEEPvEENS_22__tree_node_destructorINS6_ISK_EEEEEptB8ue170006Ev, symObjAddr: 0x167BC, symBinAddr: 0x100019878, symSize: 0x28 }
  - { offsetInCU: 0x47E70, offset: 0x47E70, size: 0x8, addend: 0x0, symName: __ZNSt3__110unique_ptrINS_11__tree_nodeINS_12__value_typeINS_12basic_stringIcNS_11char_traitsIcEENS_9allocatorIcEEEEN8nlohmann16json_abi_v3_12_010basic_jsonINS_3mapENS_6vectorES8_bxydS6_NSA_14adl_serializerENSD_IhNS6_IhEEEEvEEEEPvEENS_22__tree_node_destructorINS6_ISK_EEEEE11get_deleterB8ue170006Ev, symObjAddr: 0x167E4, symBinAddr: 0x1000198A0, symSize: 0x24 }
  - { offsetInCU: 0x47E96, offset: 0x47E96, size: 0x8, addend: 0x0, symName: __ZNSt3__19allocatorINS_11__tree_nodeINS_12__value_typeINS_12basic_stringIcNS_11char_traitsIcEENS0_IcEEEEN8nlohmann16json_abi_v3_12_010basic_jsonINS_3mapENS_6vectorES7_bxydS0_NS9_14adl_serializerENSC_IhNS0_IhEEEEvEEEEPvEEE8allocateB8ue170006Em, symObjAddr: 0x16808, symBinAddr: 0x1000198C4, symSize: 0x5C }
  - { offsetInCU: 0x47ECA, offset: 0x47ECA, size: 0x8, addend: 0x0, symName: __ZNSt3__116allocator_traitsINS_9allocatorINS_11__tree_nodeINS_12__value_typeINS_12basic_stringIcNS_11char_traitsIcEENS1_IcEEEEN8nlohmann16json_abi_v3_12_010basic_jsonINS_3mapENS_6vectorES8_bxydS1_NSA_14adl_serializerENSD_IhNS1_IhEEEEvEEEEPvEEEEE8max_sizeB8ue170006ISL_vvEEmRKSL_, symObjAddr: 0x16864, symBinAddr: 0x100019920, symSize: 0x28 }
  - { offsetInCU: 0x47EF6, offset: 0x47EF6, size: 0x8, addend: 0x0, symName: __ZNSt3__122__tree_node_destructorINS_9allocatorINS_11__tree_nodeINS_12__value_typeINS_12basic_stringIcNS_11char_traitsIcEENS1_IcEEEEN8nlohmann16json_abi_v3_12_010basic_jsonINS_3mapENS_6vectorES8_bxydS1_NSA_14adl_serializerENSD_IhNS1_IhEEEEvEEEEPvEEEEEC2B8ue170006ERSL_b, symObjAddr: 0x1688C, symBinAddr: 0x100019948, symSize: 0x38 }
  - { offsetInCU: 0x47F40, offset: 0x47F40, size: 0x8, addend: 0x0, symName: __ZNSt3__110unique_ptrINS_11__tree_nodeINS_12__value_typeINS_12basic_stringIcNS_11char_traitsIcEENS_9allocatorIcEEEEN8nlohmann16json_abi_v3_12_010basic_jsonINS_3mapENS_6vectorES8_bxydS6_NSA_14adl_serializerENSD_IhNS6_IhEEEEvEEEEPvEENS_22__tree_node_destructorINS6_ISK_EEEEEC2B8ue170006ILb1EvEEPSK_NS_16__dependent_typeINS_27__unique_ptr_deleter_sfinaeISN_EEXT_EE20__good_rval_ref_typeE, symObjAddr: 0x168C4, symBinAddr: 0x100019980, symSize: 0x48 }
  - { offsetInCU: 0x47F91, offset: 0x47F91, size: 0x8, addend: 0x0, symName: __ZNSt3__117__compressed_pairIPNS_11__tree_nodeINS_12__value_typeINS_12basic_stringIcNS_11char_traitsIcEENS_9allocatorIcEEEEN8nlohmann16json_abi_v3_12_010basic_jsonINS_3mapENS_6vectorES8_bxydS6_NSA_14adl_serializerENSD_IhNS6_IhEEEEvEEEEPvEENS_22__tree_node_destructorINS6_ISK_EEEEEC1B8ue170006IRSL_SO_EEOT_OT0_, symObjAddr: 0x1690C, symBinAddr: 0x1000199C8, symSize: 0x3C }
  - { offsetInCU: 0x47FE9, offset: 0x47FE9, size: 0x8, addend: 0x0, symName: __ZNSt3__117__compressed_pairIPNS_11__tree_nodeINS_12__value_typeINS_12basic_stringIcNS_11char_traitsIcEENS_9allocatorIcEEEEN8nlohmann16json_abi_v3_12_010basic_jsonINS_3mapENS_6vectorES8_bxydS6_NSA_14adl_serializerENSD_IhNS6_IhEEEEvEEEEPvEENS_22__tree_node_destructorINS6_ISK_EEEEEC2B8ue170006IRSL_SO_EEOT_OT0_, symObjAddr: 0x16948, symBinAddr: 0x100019A04, symSize: 0x48 }
  - { offsetInCU: 0x48041, offset: 0x48041, size: 0x8, addend: 0x0, symName: __ZNSt3__122__compressed_pair_elemIPNS_11__tree_nodeINS_12__value_typeINS_12basic_stringIcNS_11char_traitsIcEENS_9allocatorIcEEEEN8nlohmann16json_abi_v3_12_010basic_jsonINS_3mapENS_6vectorES8_bxydS6_NSA_14adl_serializerENSD_IhNS6_IhEEEEvEEEEPvEELi0ELb0EEC2B8ue170006IRSL_vEEOT_, symObjAddr: 0x16990, symBinAddr: 0x100019A4C, symSize: 0x24 }
  - { offsetInCU: 0x48083, offset: 0x48083, size: 0x8, addend: 0x0, symName: __ZNSt3__122__compressed_pair_elemINS_22__tree_node_destructorINS_9allocatorINS_11__tree_nodeINS_12__value_typeINS_12basic_stringIcNS_11char_traitsIcEENS2_IcEEEEN8nlohmann16json_abi_v3_12_010basic_jsonINS_3mapENS_6vectorES9_bxydS2_NSB_14adl_serializerENSE_IhNS2_IhEEEEvEEEEPvEEEEEELi1ELb0EEC2B8ue170006ISN_vEEOT_, symObjAddr: 0x169B4, symBinAddr: 0x100019A70, symSize: 0x24 }
  - { offsetInCU: 0x480C5, offset: 0x480C5, size: 0x8, addend: 0x0, symName: __ZNSt3__14pairIKNS_12basic_stringIcNS_11char_traitsIcEENS_9allocatorIcEEEEN8nlohmann16json_abi_v3_12_010basic_jsonINS_3mapENS_6vectorES6_bxydS4_NS9_14adl_serializerENSC_IhNS4_IhEEEEvEEEC1B8ue170006ERKSH_, symObjAddr: 0x16A14, symBinAddr: 0x100019AD0, symSize: 0x34 }
  - { offsetInCU: 0x480FA, offset: 0x480FA, size: 0x8, addend: 0x0, symName: __ZNSt3__14pairIKNS_12basic_stringIcNS_11char_traitsIcEENS_9allocatorIcEEEEN8nlohmann16json_abi_v3_12_010basic_jsonINS_3mapENS_6vectorES6_bxydS4_NS9_14adl_serializerENSC_IhNS4_IhEEEEvEEEC2B8ue170006ERKSH_, symObjAddr: 0x16A48, symBinAddr: 0x100019B04, symSize: 0x70 }
  - { offsetInCU: 0x4812F, offset: 0x4812F, size: 0x8, addend: 0x0, symName: __ZNKSt3__117__compressed_pairIPNS_11__tree_nodeINS_12__value_typeINS_12basic_stringIcNS_11char_traitsIcEENS_9allocatorIcEEEEN8nlohmann16json_abi_v3_12_010basic_jsonINS_3mapENS_6vectorES8_bxydS6_NSA_14adl_serializerENSD_IhNS6_IhEEEEvEEEEPvEENS_22__tree_node_destructorINS6_ISK_EEEEE5firstB8ue170006Ev, symObjAddr: 0x16AB8, symBinAddr: 0x100019B74, symSize: 0x24 }
  - { offsetInCU: 0x48155, offset: 0x48155, size: 0x8, addend: 0x0, symName: __ZNKSt3__122__compressed_pair_elemIPNS_11__tree_nodeINS_12__value_typeINS_12basic_stringIcNS_11char_traitsIcEENS_9allocatorIcEEEEN8nlohmann16json_abi_v3_12_010basic_jsonINS_3mapENS_6vectorES8_bxydS6_NSA_14adl_serializerENSD_IhNS6_IhEEEEvEEEEPvEELi0ELb0EE5__getB8ue170006Ev, symObjAddr: 0x16ADC, symBinAddr: 0x100019B98, symSize: 0x14 }
  - { offsetInCU: 0x4817B, offset: 0x4817B, size: 0x8, addend: 0x0, symName: __ZNSt3__117__compressed_pairIPNS_11__tree_nodeINS_12__value_typeINS_12basic_stringIcNS_11char_traitsIcEENS_9allocatorIcEEEEN8nlohmann16json_abi_v3_12_010basic_jsonINS_3mapENS_6vectorES8_bxydS6_NSA_14adl_serializerENSD_IhNS6_IhEEEEvEEEEPvEENS_22__tree_node_destructorINS6_ISK_EEEEE6secondB8ue170006Ev, symObjAddr: 0x16AF0, symBinAddr: 0x100019BAC, symSize: 0x28 }
  - { offsetInCU: 0x481A1, offset: 0x481A1, size: 0x8, addend: 0x0, symName: __ZNSt3__122__compressed_pair_elemINS_22__tree_node_destructorINS_9allocatorINS_11__tree_nodeINS_12__value_typeINS_12basic_stringIcNS_11char_traitsIcEENS2_IcEEEEN8nlohmann16json_abi_v3_12_010basic_jsonINS_3mapENS_6vectorES9_bxydS2_NSB_14adl_serializerENSE_IhNS2_IhEEEEvEEEEPvEEEEEELi1ELb0EE5__getB8ue170006Ev, symObjAddr: 0x16B18, symBinAddr: 0x100019BD4, symSize: 0x14 }
  - { offsetInCU: 0x481C7, offset: 0x481C7, size: 0x8, addend: 0x0, symName: __ZNSt3__116__tree_node_baseIPvE12__set_parentB8ue170006EPS2_, symObjAddr: 0x16F4C, symBinAddr: 0x10001A008, symSize: 0x20 }
  - { offsetInCU: 0x481FD, offset: 0x481FD, size: 0x8, addend: 0x0, symName: __ZNSt3__117__compressed_pairIPNS_11__tree_nodeINS_12__value_typeINS_12basic_stringIcNS_11char_traitsIcEENS_9allocatorIcEEEEN8nlohmann16json_abi_v3_12_010basic_jsonINS_3mapENS_6vectorES8_bxydS6_NSA_14adl_serializerENSD_IhNS6_IhEEEEvEEEEPvEENS_22__tree_node_destructorINS6_ISK_EEEEE5firstB8ue170006Ev, symObjAddr: 0x16F6C, symBinAddr: 0x10001A028, symSize: 0x24 }
  - { offsetInCU: 0x48223, offset: 0x48223, size: 0x8, addend: 0x0, symName: __ZNSt3__122__compressed_pair_elemIPNS_11__tree_nodeINS_12__value_typeINS_12basic_stringIcNS_11char_traitsIcEENS_9allocatorIcEEEEN8nlohmann16json_abi_v3_12_010basic_jsonINS_3mapENS_6vectorES8_bxydS6_NSA_14adl_serializerENSD_IhNS6_IhEEEEvEEEEPvEELi0ELb0EE5__getB8ue170006Ev, symObjAddr: 0x16F90, symBinAddr: 0x10001A04C, symSize: 0x14 }
  - { offsetInCU: 0x48249, offset: 0x48249, size: 0x8, addend: 0x0, symName: __ZNSt3__110unique_ptrINS_11__tree_nodeINS_12__value_typeINS_12basic_stringIcNS_11char_traitsIcEENS_9allocatorIcEEEEN8nlohmann16json_abi_v3_12_010basic_jsonINS_3mapENS_6vectorES8_bxydS6_NSA_14adl_serializerENSD_IhNS6_IhEEEEvEEEEPvEENS_22__tree_node_destructorINS6_ISK_EEEEED2B8ue170006Ev, symObjAddr: 0x16FA4, symBinAddr: 0x10001A060, symSize: 0x30 }
  - { offsetInCU: 0x48273, offset: 0x48273, size: 0x8, addend: 0x0, symName: __ZNSt3__110unique_ptrINS_11__tree_nodeINS_12__value_typeINS_12basic_stringIcNS_11char_traitsIcEENS_9allocatorIcEEEEN8nlohmann16json_abi_v3_12_010basic_jsonINS_3mapENS_6vectorES8_bxydS6_NSA_14adl_serializerENSD_IhNS6_IhEEEEvEEEEPvEENS_22__tree_node_destructorINS6_ISK_EEEEE5resetB8ue170006EPSK_, symObjAddr: 0x16FD4, symBinAddr: 0x10001A090, symSize: 0x78 }
  - { offsetInCU: 0x482B8, offset: 0x482B8, size: 0x8, addend: 0x0, symName: __ZNSt3__122__tree_node_destructorINS_9allocatorINS_11__tree_nodeINS_12__value_typeINS_12basic_stringIcNS_11char_traitsIcEENS1_IcEEEEN8nlohmann16json_abi_v3_12_010basic_jsonINS_3mapENS_6vectorES8_bxydS1_NSA_14adl_serializerENSD_IhNS1_IhEEEEvEEEEPvEEEEEclB8ue170006EPSK_, symObjAddr: 0x1704C, symBinAddr: 0x10001A108, symSize: 0x90 }
  - { offsetInCU: 0x482EE, offset: 0x482EE, size: 0x8, addend: 0x0, symName: __ZNSt3__115__tree_iteratorINS_12__value_typeINS_12basic_stringIcNS_11char_traitsIcEENS_9allocatorIcEEEEN8nlohmann16json_abi_v3_12_010basic_jsonINS_3mapENS_6vectorES7_bxydS5_NS9_14adl_serializerENSC_IhNS5_IhEEEEvEEEEPNS_11__tree_nodeISH_PvEElEC2B8ue170006ESL_, symObjAddr: 0x170DC, symBinAddr: 0x10001A198, symSize: 0x20 }
  - { offsetInCU: 0x48328, offset: 0x48328, size: 0x8, addend: 0x0, symName: __ZNSt3__14pairINS_15__tree_iteratorINS_12__value_typeINS_12basic_stringIcNS_11char_traitsIcEENS_9allocatorIcEEEEN8nlohmann16json_abi_v3_12_010basic_jsonINS_3mapENS_6vectorES8_bxydS6_NSA_14adl_serializerENSD_IhNS6_IhEEEEvEEEEPNS_11__tree_nodeISI_PvEElEEbEC2B8ue170006ISN_RbLSK_0EEEOT_OT0_, symObjAddr: 0x170FC, symBinAddr: 0x10001A1B8, symSize: 0x38 }
  - { offsetInCU: 0x48386, offset: 0x48386, size: 0x8, addend: 0x0, symName: __ZNSt3__120__map_const_iteratorINS_21__tree_const_iteratorINS_12__value_typeINS_12basic_stringIcNS_11char_traitsIcEENS_9allocatorIcEEEEN8nlohmann16json_abi_v3_12_010basic_jsonINS_3mapENS_6vectorES8_bxydS6_NSA_14adl_serializerENSD_IhNS6_IhEEEEvEEEEPNS_11__tree_nodeISI_PvEElEEEC2B8ue170006ESN_, symObjAddr: 0x17134, symBinAddr: 0x10001A1F0, symSize: 0x20 }
  - { offsetInCU: 0x483C0, offset: 0x483C0, size: 0x8, addend: 0x0, symName: __ZNKSt3__121__tree_const_iteratorINS_12__value_typeINS_12basic_stringIcNS_11char_traitsIcEENS_9allocatorIcEEEEN8nlohmann16json_abi_v3_12_010basic_jsonINS_3mapENS_6vectorES7_bxydS5_NS9_14adl_serializerENSC_IhNS5_IhEEEEvEEEEPNS_11__tree_nodeISH_PvEElEptB8ue170006Ev, symObjAddr: 0x17154, symBinAddr: 0x10001A210, symSize: 0x2C }
  - { offsetInCU: 0x483E6, offset: 0x483E6, size: 0x8, addend: 0x0, symName: __ZNSt3__114pointer_traitsIPKNS_12__value_typeINS_12basic_stringIcNS_11char_traitsIcEENS_9allocatorIcEEEEN8nlohmann16json_abi_v3_12_010basic_jsonINS_3mapENS_6vectorES7_bxydS5_NS9_14adl_serializerENSC_IhNS5_IhEEEEvEEEEE10pointer_toB8ue170006ERSI_, symObjAddr: 0x17180, symBinAddr: 0x10001A23C, symSize: 0x14 }
  - { offsetInCU: 0x48409, offset: 0x48409, size: 0x8, addend: 0x0, symName: __ZNKSt3__16__treeINS_12__value_typeINS_12basic_stringIcNS_11char_traitsIcEENS_9allocatorIcEEEEN8nlohmann16json_abi_v3_12_010basic_jsonINS_3mapENS_6vectorES7_bxydS5_NS9_14adl_serializerENSC_IhNS5_IhEEEEvEEEENS_19__map_value_compareIS7_SH_NS_4lessIvEELb1EEENS5_ISH_EEE5beginB8ue170006Ev, symObjAddr: 0x17194, symBinAddr: 0x10001A250, symSize: 0x34 }
  - { offsetInCU: 0x4842F, offset: 0x4842F, size: 0x8, addend: 0x0, symName: __ZNKSt3__16__treeINS_12__value_typeINS_12basic_stringIcNS_11char_traitsIcEENS_9allocatorIcEEEEN8nlohmann16json_abi_v3_12_010basic_jsonINS_3mapENS_6vectorES7_bxydS5_NS9_14adl_serializerENSC_IhNS5_IhEEEEvEEEENS_19__map_value_compareIS7_SH_NS_4lessIvEELb1EEENS5_ISH_EEE12__begin_nodeB8ue170006Ev, symObjAddr: 0x171C8, symBinAddr: 0x10001A284, symSize: 0x14 }
  - { offsetInCU: 0x48455, offset: 0x48455, size: 0x8, addend: 0x0, symName: __ZNSt3__121__tree_const_iteratorINS_12__value_typeINS_12basic_stringIcNS_11char_traitsIcEENS_9allocatorIcEEEEN8nlohmann16json_abi_v3_12_010basic_jsonINS_3mapENS_6vectorES7_bxydS5_NS9_14adl_serializerENSC_IhNS5_IhEEEEvEEEEPNS_11__tree_nodeISH_PvEElEC1B8ue170006EPNS_15__tree_end_nodeIPNS_16__tree_node_baseISJ_EEEE, symObjAddr: 0x171DC, symBinAddr: 0x10001A298, symSize: 0x34 }
  - { offsetInCU: 0x4848F, offset: 0x4848F, size: 0x8, addend: 0x0, symName: __ZNSt3__121__tree_const_iteratorINS_12__value_typeINS_12basic_stringIcNS_11char_traitsIcEENS_9allocatorIcEEEEN8nlohmann16json_abi_v3_12_010basic_jsonINS_3mapENS_6vectorES7_bxydS5_NS9_14adl_serializerENSC_IhNS5_IhEEEEvEEEEPNS_11__tree_nodeISH_PvEElEC2B8ue170006EPNS_15__tree_end_nodeIPNS_16__tree_node_baseISJ_EEEE, symObjAddr: 0x17210, symBinAddr: 0x10001A2CC, symSize: 0x20 }
  - { offsetInCU: 0x484C9, offset: 0x484C9, size: 0x8, addend: 0x0, symName: __ZNKSt3__16__treeINS_12__value_typeINS_12basic_stringIcNS_11char_traitsIcEENS_9allocatorIcEEEEN8nlohmann16json_abi_v3_12_010basic_jsonINS_3mapENS_6vectorES7_bxydS5_NS9_14adl_serializerENSC_IhNS5_IhEEEEvEEEENS_19__map_value_compareIS7_SH_NS_4lessIvEELb1EEENS5_ISH_EEE3endB8ue170006Ev, symObjAddr: 0x17230, symBinAddr: 0x10001A2EC, symSize: 0x34 }
  - { offsetInCU: 0x484EF, offset: 0x484EF, size: 0x8, addend: 0x0, symName: __ZNKSt3__117__compressed_pairIPNS_3mapINS_12basic_stringIcNS_11char_traitsIcEENS_9allocatorIcEEEEN8nlohmann16json_abi_v3_12_010basic_jsonIS1_NS_6vectorES7_bxydS5_NS9_14adl_serializerENSB_IhNS5_IhEEEEvEENS_4lessIvEENS5_INS_4pairIKS7_SF_EEEEEEZNSF_6createISM_JRKSM_EEEPT_DpOT0_EUlSN_E_E5firstB8ue170006Ev, symObjAddr: 0x17264, symBinAddr: 0x10001A320, symSize: 0x24 }
  - { offsetInCU: 0x48515, offset: 0x48515, size: 0x8, addend: 0x0, symName: __ZNKSt3__110unique_ptrINS_3mapINS_12basic_stringIcNS_11char_traitsIcEENS_9allocatorIcEEEEN8nlohmann16json_abi_v3_12_010basic_jsonIS1_NS_6vectorES7_bxydS5_NS9_14adl_serializerENSB_IhNS5_IhEEEEvEENS_4lessIvEENS5_INS_4pairIKS7_SF_EEEEEEZNSF_6createISM_JRKSM_EEEPT_DpOT0_EUlPSM_E_EcvbB8ue170006Ev, symObjAddr: 0x17288, symBinAddr: 0x10001A344, symSize: 0x34 }
  - { offsetInCU: 0x4853B, offset: 0x4853B, size: 0x8, addend: 0x0, symName: __ZNSt3__117__compressed_pairIPNS_3mapINS_12basic_stringIcNS_11char_traitsIcEENS_9allocatorIcEEEEN8nlohmann16json_abi_v3_12_010basic_jsonIS1_NS_6vectorES7_bxydS5_NS9_14adl_serializerENSB_IhNS5_IhEEEEvEENS_4lessIvEENS5_INS_4pairIKS7_SF_EEEEEEZNSF_6createISM_JRKSM_EEEPT_DpOT0_EUlSN_E_E5firstB8ue170006Ev, symObjAddr: 0x172BC, symBinAddr: 0x10001A378, symSize: 0x24 }
  - { offsetInCU: 0x48561, offset: 0x48561, size: 0x8, addend: 0x0, symName: __ZNSt3__110unique_ptrINS_3mapINS_12basic_stringIcNS_11char_traitsIcEENS_9allocatorIcEEEEN8nlohmann16json_abi_v3_12_010basic_jsonIS1_NS_6vectorES7_bxydS5_NS9_14adl_serializerENSB_IhNS5_IhEEEEvEENS_4lessIvEENS5_INS_4pairIKS7_SF_EEEEEEZNSF_6createISM_JRKSM_EEEPT_DpOT0_EUlPSM_E_ED2B8ue170006Ev, symObjAddr: 0x172E0, symBinAddr: 0x10001A39C, symSize: 0x30 }
  - { offsetInCU: 0x4858B, offset: 0x4858B, size: 0x8, addend: 0x0, symName: __ZNSt3__110unique_ptrINS_3mapINS_12basic_stringIcNS_11char_traitsIcEENS_9allocatorIcEEEEN8nlohmann16json_abi_v3_12_010basic_jsonIS1_NS_6vectorES7_bxydS5_NS9_14adl_serializerENSB_IhNS5_IhEEEEvEENS_4lessIvEENS5_INS_4pairIKS7_SF_EEEEEEZNSF_6createISM_JRKSM_EEEPT_DpOT0_EUlPSM_E_E5resetB8ue170006ESV_, symObjAddr: 0x17310, symBinAddr: 0x10001A3CC, symSize: 0x80 }
  - { offsetInCU: 0x485D0, offset: 0x485D0, size: 0x8, addend: 0x0, symName: __ZNSt3__117__compressed_pairIPNS_3mapINS_12basic_stringIcNS_11char_traitsIcEENS_9allocatorIcEEEEN8nlohmann16json_abi_v3_12_010basic_jsonIS1_NS_6vectorES7_bxydS5_NS9_14adl_serializerENSB_IhNS5_IhEEEEvEENS_4lessIvEENS5_INS_4pairIKS7_SF_EEEEEEZNSF_6createISM_JRKSM_EEEPT_DpOT0_EUlSN_E_E6secondB8ue170006Ev, symObjAddr: 0x17390, symBinAddr: 0x10001A44C, symSize: 0x28 }
  - { offsetInCU: 0x485FC, offset: 0x485FC, size: 0x8, addend: 0x0, symName: __ZZN8nlohmann16json_abi_v3_12_010basic_jsonINSt3__13mapENS2_6vectorENS2_12basic_stringIcNS2_11char_traitsIcEENS2_9allocatorIcEEEEbxydS8_NS0_14adl_serializerENS4_IhNS8_IhEEEEvE6createINS3_ISA_SE_NS2_4lessIvEENS8_INS2_4pairIKSA_SE_EEEEEEJRKSM_EEEPT_DpOT0_ENKUlPSM_E_clESU_, symObjAddr: 0x173B8, symBinAddr: 0x10001A474, symSize: 0x34 }
  - { offsetInCU: 0x48636, offset: 0x48636, size: 0x8, addend: 0x0, symName: __ZNSt3__122__compressed_pair_elemIZN8nlohmann16json_abi_v3_12_010basic_jsonINS_3mapENS_6vectorENS_12basic_stringIcNS_11char_traitsIcEENS_9allocatorIcEEEEbxydS9_NS2_14adl_serializerENS5_IhNS9_IhEEEEvE6createINS4_ISB_SF_NS_4lessIvEENS9_INS_4pairIKSB_SF_EEEEEEJRKSN_EEEPT_DpOT0_EUlPSN_E_Li1ELb0EE5__getB8ue170006Ev, symObjAddr: 0x173EC, symBinAddr: 0x10001A4A8, symSize: 0x14 }
  - { offsetInCU: 0x4865C, offset: 0x4865C, size: 0x8, addend: 0x0, symName: __ZN8nlohmann16json_abi_v3_12_010basic_jsonINSt3__13mapENS2_6vectorENS2_12basic_stringIcNS2_11char_traitsIcEENS2_9allocatorIcEEEEbxydS8_NS0_14adl_serializerENS4_IhNS8_IhEEEEvE10json_valueC2ERKNS4_ISE_NS8_ISE_EEEE, symObjAddr: 0x17400, symBinAddr: 0x10001A4BC, symSize: 0x3C }
  - { offsetInCU: 0x48696, offset: 0x48696, size: 0x8, addend: 0x0, symName: __ZN8nlohmann16json_abi_v3_12_010basic_jsonINSt3__13mapENS2_6vectorENS2_12basic_stringIcNS2_11char_traitsIcEENS2_9allocatorIcEEEEbxydS8_NS0_14adl_serializerENS4_IhNS8_IhEEEEvE6createINS4_ISE_NS8_ISE_EEEEJRKSH_EEEPT_DpOT0_, symObjAddr: 0x1743C, symBinAddr: 0x10001A4F8, symSize: 0xF4 }
  - { offsetInCU: 0x48797, offset: 0x48797, size: 0x8, addend: 0x0, symName: __ZNSt3__110unique_ptrINS_6vectorIN8nlohmann16json_abi_v3_12_010basic_jsonINS_3mapES1_NS_12basic_stringIcNS_11char_traitsIcEENS_9allocatorIcEEEEbxydS9_NS3_14adl_serializerENS1_IhNS9_IhEEEEvEENS9_ISF_EEEEZNSF_6createISH_JRKSH_EEEPT_DpOT0_EUlPSH_E_EC1B8ue170006ILb1EvEESQ_NS_16__dependent_typeINS_27__unique_ptr_deleter_sfinaeISR_EEXT_EE15__lval_ref_typeE, symObjAddr: 0x17530, symBinAddr: 0x10001A5EC, symSize: 0x3C }
  - { offsetInCU: 0x487E8, offset: 0x487E8, size: 0x8, addend: 0x0, symName: __ZNSt3__116allocator_traitsINS_9allocatorINS_6vectorIN8nlohmann16json_abi_v3_12_010basic_jsonINS_3mapES2_NS_12basic_stringIcNS_11char_traitsIcEENS1_IcEEEEbxydS1_NS4_14adl_serializerENS2_IhNS1_IhEEEEvEENS1_ISF_EEEEEEE9constructB8ue170006ISH_JRKSH_EvvEEvRSI_PT_DpOT0_, symObjAddr: 0x1756C, symBinAddr: 0x10001A628, symSize: 0x30 }
  - { offsetInCU: 0x4883F, offset: 0x4883F, size: 0x8, addend: 0x0, symName: __ZNKSt3__110unique_ptrINS_6vectorIN8nlohmann16json_abi_v3_12_010basic_jsonINS_3mapES1_NS_12basic_stringIcNS_11char_traitsIcEENS_9allocatorIcEEEEbxydS9_NS3_14adl_serializerENS1_IhNS9_IhEEEEvEENS9_ISF_EEEEZNSF_6createISH_JRKSH_EEEPT_DpOT0_EUlPSH_E_E3getB8ue170006Ev, symObjAddr: 0x1759C, symBinAddr: 0x10001A658, symSize: 0x28 }
  - { offsetInCU: 0x48865, offset: 0x48865, size: 0x8, addend: 0x0, symName: __ZNSt3__110unique_ptrINS_6vectorIN8nlohmann16json_abi_v3_12_010basic_jsonINS_3mapES1_NS_12basic_stringIcNS_11char_traitsIcEENS_9allocatorIcEEEEbxydS9_NS3_14adl_serializerENS1_IhNS9_IhEEEEvEENS9_ISF_EEEEZNSF_6createISH_JRKSH_EEEPT_DpOT0_EUlPSH_E_E7releaseB8ue170006Ev, symObjAddr: 0x175F4, symBinAddr: 0x10001A6B0, symSize: 0x44 }
  - { offsetInCU: 0x4889A, offset: 0x4889A, size: 0x8, addend: 0x0, symName: __ZNSt3__110unique_ptrINS_6vectorIN8nlohmann16json_abi_v3_12_010basic_jsonINS_3mapES1_NS_12basic_stringIcNS_11char_traitsIcEENS_9allocatorIcEEEEbxydS9_NS3_14adl_serializerENS1_IhNS9_IhEEEEvEENS9_ISF_EEEEZNSF_6createISH_JRKSH_EEEPT_DpOT0_EUlPSH_E_ED1B8ue170006Ev, symObjAddr: 0x17638, symBinAddr: 0x10001A6F4, symSize: 0x2C }
  - { offsetInCU: 0x488C4, offset: 0x488C4, size: 0x8, addend: 0x0, symName: __ZNSt3__110unique_ptrINS_6vectorIN8nlohmann16json_abi_v3_12_010basic_jsonINS_3mapES1_NS_12basic_stringIcNS_11char_traitsIcEENS_9allocatorIcEEEEbxydS9_NS3_14adl_serializerENS1_IhNS9_IhEEEEvEENS9_ISF_EEEEZNSF_6createISH_JRKSH_EEEPT_DpOT0_EUlPSH_E_EC2B8ue170006ILb1EvEESQ_NS_16__dependent_typeINS_27__unique_ptr_deleter_sfinaeISR_EEXT_EE15__lval_ref_typeE, symObjAddr: 0x17664, symBinAddr: 0x10001A720, symSize: 0x48 }
  - { offsetInCU: 0x48915, offset: 0x48915, size: 0x8, addend: 0x0, symName: __ZNSt3__117__compressed_pairIPNS_6vectorIN8nlohmann16json_abi_v3_12_010basic_jsonINS_3mapES1_NS_12basic_stringIcNS_11char_traitsIcEENS_9allocatorIcEEEEbxydS9_NS3_14adl_serializerENS1_IhNS9_IhEEEEvEENS9_ISF_EEEEZNSF_6createISH_JRKSH_EEEPT_DpOT0_EUlSI_E_EC1B8ue170006IRSI_RKSR_EEOSM_OT0_, symObjAddr: 0x176AC, symBinAddr: 0x10001A768, symSize: 0x3C }
  - { offsetInCU: 0x4896D, offset: 0x4896D, size: 0x8, addend: 0x0, symName: __ZNSt3__117__compressed_pairIPNS_6vectorIN8nlohmann16json_abi_v3_12_010basic_jsonINS_3mapES1_NS_12basic_stringIcNS_11char_traitsIcEENS_9allocatorIcEEEEbxydS9_NS3_14adl_serializerENS1_IhNS9_IhEEEEvEENS9_ISF_EEEEZNSF_6createISH_JRKSH_EEEPT_DpOT0_EUlSI_E_EC2B8ue170006IRSI_RKSR_EEOSM_OT0_, symObjAddr: 0x176E8, symBinAddr: 0x10001A7A4, symSize: 0x48 }
  - { offsetInCU: 0x489C5, offset: 0x489C5, size: 0x8, addend: 0x0, symName: __ZNSt3__122__compressed_pair_elemIZN8nlohmann16json_abi_v3_12_010basic_jsonINS_3mapENS_6vectorENS_12basic_stringIcNS_11char_traitsIcEENS_9allocatorIcEEEEbxydS9_NS2_14adl_serializerENS5_IhNS9_IhEEEEvE6createINS5_ISF_NS9_ISF_EEEEJRKSI_EEEPT_DpOT0_EUlPSI_E_Li1ELb0EEC2B8ue170006IRKSR_vEEOSL_, symObjAddr: 0x17730, symBinAddr: 0x10001A7EC, symSize: 0x24 }
  - { offsetInCU: 0x48A07, offset: 0x48A07, size: 0x8, addend: 0x0, symName: __ZNSt3__16vectorIN8nlohmann16json_abi_v3_12_010basic_jsonINS_3mapES0_NS_12basic_stringIcNS_11char_traitsIcEENS_9allocatorIcEEEEbxydS8_NS2_14adl_serializerENS0_IhNS8_IhEEEEvEENS8_ISE_EEEC1ERKSG_, symObjAddr: 0x17790, symBinAddr: 0x10001A84C, symSize: 0x34 }
  - { offsetInCU: 0x48A43, offset: 0x48A43, size: 0x8, addend: 0x0, symName: __ZNSt3__16vectorIN8nlohmann16json_abi_v3_12_010basic_jsonINS_3mapES0_NS_12basic_stringIcNS_11char_traitsIcEENS_9allocatorIcEEEEbxydS8_NS2_14adl_serializerENS0_IhNS8_IhEEEEvEENS8_ISE_EEEC2ERKSG_, symObjAddr: 0x177C4, symBinAddr: 0x10001A880, symSize: 0x94 }
  - { offsetInCU: 0x48A7F, offset: 0x48A7F, size: 0x8, addend: 0x0, symName: __ZNSt3__116allocator_traitsINS_9allocatorIN8nlohmann16json_abi_v3_12_010basic_jsonINS_3mapENS_6vectorENS_12basic_stringIcNS_11char_traitsIcEENS1_IcEEEEbxydS1_NS3_14adl_serializerENS6_IhNS1_IhEEEEvEEEEE37select_on_container_copy_constructionB8ue170006ISG_vvEESG_RKSG_, symObjAddr: 0x17858, symBinAddr: 0x10001A914, symSize: 0x10 }
  - { offsetInCU: 0x48AB5, offset: 0x48AB5, size: 0x8, addend: 0x0, symName: __ZNSt3__117__compressed_pairIPN8nlohmann16json_abi_v3_12_010basic_jsonINS_3mapENS_6vectorENS_12basic_stringIcNS_11char_traitsIcEENS_9allocatorIcEEEEbxydS9_NS2_14adl_serializerENS5_IhNS9_IhEEEEvEENS9_ISF_EEEC1B8ue170006IDnSH_EEOT_OT0_, symObjAddr: 0x17868, symBinAddr: 0x10001A924, symSize: 0x3C }
  - { offsetInCU: 0x48B0D, offset: 0x48B0D, size: 0x8, addend: 0x0, symName: __ZNSt3__16vectorIN8nlohmann16json_abi_v3_12_010basic_jsonINS_3mapES0_NS_12basic_stringIcNS_11char_traitsIcEENS_9allocatorIcEEEEbxydS8_NS2_14adl_serializerENS0_IhNS8_IhEEEEvEENS8_ISE_EEE16__init_with_sizeB8ue170006IPSE_SI_EEvT_T0_m, symObjAddr: 0x178A4, symBinAddr: 0x10001A960, symSize: 0xB8 }
  - { offsetInCU: 0x48B84, offset: 0x48B84, size: 0x8, addend: 0x0, symName: __ZNSt3__117__compressed_pairIPN8nlohmann16json_abi_v3_12_010basic_jsonINS_3mapENS_6vectorENS_12basic_stringIcNS_11char_traitsIcEENS_9allocatorIcEEEEbxydS9_NS2_14adl_serializerENS5_IhNS9_IhEEEEvEENS9_ISF_EEEC2B8ue170006IDnSH_EEOT_OT0_, symObjAddr: 0x1795C, symBinAddr: 0x10001AA18, symSize: 0x44 }
  - { offsetInCU: 0x48BDC, offset: 0x48BDC, size: 0x8, addend: 0x0, symName: __ZNSt3__122__compressed_pair_elemINS_9allocatorIN8nlohmann16json_abi_v3_12_010basic_jsonINS_3mapENS_6vectorENS_12basic_stringIcNS_11char_traitsIcEENS1_IcEEEEbxydS1_NS3_14adl_serializerENS6_IhNS1_IhEEEEvEEEELi1ELb1EEC2B8ue170006ISG_vEEOT_, symObjAddr: 0x179A0, symBinAddr: 0x10001AA5C, symSize: 0x18 }
  - { offsetInCU: 0x48C1E, offset: 0x48C1E, size: 0x8, addend: 0x0, symName: __ZNSt3__16vectorIN8nlohmann16json_abi_v3_12_010basic_jsonINS_3mapES0_NS_12basic_stringIcNS_11char_traitsIcEENS_9allocatorIcEEEEbxydS8_NS2_14adl_serializerENS0_IhNS8_IhEEEEvEENS8_ISE_EEE11__vallocateB8ue170006Em, symObjAddr: 0x179F8, symBinAddr: 0x10001AAB4, symSize: 0xAC }
  - { offsetInCU: 0x48C63, offset: 0x48C63, size: 0x8, addend: 0x0, symName: __ZNSt3__16vectorIN8nlohmann16json_abi_v3_12_010basic_jsonINS_3mapES0_NS_12basic_stringIcNS_11char_traitsIcEENS_9allocatorIcEEEEbxydS8_NS2_14adl_serializerENS0_IhNS8_IhEEEEvEENS8_ISE_EEE18__construct_at_endIPSE_SI_EEvT_T0_m, symObjAddr: 0x17AA4, symBinAddr: 0x10001AB60, symSize: 0x8C }
  - { offsetInCU: 0x48CDC, offset: 0x48CDC, size: 0x8, addend: 0x0, symName: __ZNSt3__128__exception_guard_exceptionsINS_6vectorIN8nlohmann16json_abi_v3_12_010basic_jsonINS_3mapES1_NS_12basic_stringIcNS_11char_traitsIcEENS_9allocatorIcEEEEbxydS9_NS3_14adl_serializerENS1_IhNS9_IhEEEEvEENS9_ISF_EEE16__destroy_vectorEE10__completeB8ue170006Ev, symObjAddr: 0x17B30, symBinAddr: 0x10001ABEC, symSize: 0x1C }
  - { offsetInCU: 0x48D02, offset: 0x48D02, size: 0x8, addend: 0x0, symName: __ZNSt3__128__exception_guard_exceptionsINS_6vectorIN8nlohmann16json_abi_v3_12_010basic_jsonINS_3mapES1_NS_12basic_stringIcNS_11char_traitsIcEENS_9allocatorIcEEEEbxydS9_NS3_14adl_serializerENS1_IhNS9_IhEEEEvEENS9_ISF_EEE16__destroy_vectorEED1B8ue170006Ev, symObjAddr: 0x17B4C, symBinAddr: 0x10001AC08, symSize: 0x2C }
  - { offsetInCU: 0x48D2C, offset: 0x48D2C, size: 0x8, addend: 0x0, symName: __ZNSt3__128__exception_guard_exceptionsINS_6vectorIN8nlohmann16json_abi_v3_12_010basic_jsonINS_3mapES1_NS_12basic_stringIcNS_11char_traitsIcEENS_9allocatorIcEEEEbxydS9_NS3_14adl_serializerENS1_IhNS9_IhEEEEvEENS9_ISF_EEE16__destroy_vectorEEC1B8ue170006ESI_, symObjAddr: 0x17B78, symBinAddr: 0x10001AC34, symSize: 0x34 }
  - { offsetInCU: 0x48D64, offset: 0x48D64, size: 0x8, addend: 0x0, symName: __ZNSt3__128__exception_guard_exceptionsINS_6vectorIN8nlohmann16json_abi_v3_12_010basic_jsonINS_3mapES1_NS_12basic_stringIcNS_11char_traitsIcEENS_9allocatorIcEEEEbxydS9_NS3_14adl_serializerENS1_IhNS9_IhEEEEvEENS9_ISF_EEE16__destroy_vectorEEC2B8ue170006ESI_, symObjAddr: 0x17BAC, symBinAddr: 0x10001AC68, symSize: 0x24 }
  - { offsetInCU: 0x48D9C, offset: 0x48D9C, size: 0x8, addend: 0x0, symName: __ZNSt3__119__unwrap_range_implIPN8nlohmann16json_abi_v3_12_010basic_jsonINS_3mapENS_6vectorENS_12basic_stringIcNS_11char_traitsIcEENS_9allocatorIcEEEEbxydS9_NS2_14adl_serializerENS5_IhNS9_IhEEEEvEESG_E8__unwrapB8ue170006ESG_SG_, symObjAddr: 0x17DE0, symBinAddr: 0x10001AE9C, symSize: 0x58 }
  - { offsetInCU: 0x48DCD, offset: 0x48DCD, size: 0x8, addend: 0x0, symName: __ZNSt3__129_AllocatorDestroyRangeReverseINS_9allocatorIN8nlohmann16json_abi_v3_12_010basic_jsonINS_3mapENS_6vectorENS_12basic_stringIcNS_11char_traitsIcEENS1_IcEEEEbxydS1_NS3_14adl_serializerENS6_IhNS1_IhEEEEvEEEEPSF_EC1B8ue170006ERSG_RSH_SK_, symObjAddr: 0x17E84, symBinAddr: 0x10001AF40, symSize: 0x44 }
  - { offsetInCU: 0x48E27, offset: 0x48E27, size: 0x8, addend: 0x0, symName: __ZNSt3__116allocator_traitsINS_9allocatorIN8nlohmann16json_abi_v3_12_010basic_jsonINS_3mapENS_6vectorENS_12basic_stringIcNS_11char_traitsIcEENS1_IcEEEEbxydS1_NS3_14adl_serializerENS6_IhNS1_IhEEEEvEEEEE9constructB8ue170006ISF_JRSF_EvvEEvRSG_PT_DpOT0_, symObjAddr: 0x17EC8, symBinAddr: 0x10001AF84, symSize: 0x30 }
  - { offsetInCU: 0x48E7E, offset: 0x48E7E, size: 0x8, addend: 0x0, symName: __ZNSt3__128__exception_guard_exceptionsINS_29_AllocatorDestroyRangeReverseINS_9allocatorIN8nlohmann16json_abi_v3_12_010basic_jsonINS_3mapENS_6vectorENS_12basic_stringIcNS_11char_traitsIcEENS2_IcEEEEbxydS2_NS4_14adl_serializerENS7_IhNS2_IhEEEEvEEEEPSG_EEE10__completeB8ue170006Ev, symObjAddr: 0x17EF8, symBinAddr: 0x10001AFB4, symSize: 0x1C }
  - { offsetInCU: 0x48EA4, offset: 0x48EA4, size: 0x8, addend: 0x0, symName: __ZNSt3__128__exception_guard_exceptionsINS_29_AllocatorDestroyRangeReverseINS_9allocatorIN8nlohmann16json_abi_v3_12_010basic_jsonINS_3mapENS_6vectorENS_12basic_stringIcNS_11char_traitsIcEENS2_IcEEEEbxydS2_NS4_14adl_serializerENS7_IhNS2_IhEEEEvEEEEPSG_EEED1B8ue170006Ev, symObjAddr: 0x17F14, symBinAddr: 0x10001AFD0, symSize: 0x2C }
  - { offsetInCU: 0x48ECE, offset: 0x48ECE, size: 0x8, addend: 0x0, symName: __ZNSt3__128__exception_guard_exceptionsINS_29_AllocatorDestroyRangeReverseINS_9allocatorIN8nlohmann16json_abi_v3_12_010basic_jsonINS_3mapENS_6vectorENS_12basic_stringIcNS_11char_traitsIcEENS2_IcEEEEbxydS2_NS4_14adl_serializerENS7_IhNS2_IhEEEEvEEEEPSG_EEEC1B8ue170006ESJ_, symObjAddr: 0x17F40, symBinAddr: 0x10001AFFC, symSize: 0x34 }
  - { offsetInCU: 0x48F07, offset: 0x48F07, size: 0x8, addend: 0x0, symName: __ZNSt3__128__exception_guard_exceptionsINS_29_AllocatorDestroyRangeReverseINS_9allocatorIN8nlohmann16json_abi_v3_12_010basic_jsonINS_3mapENS_6vectorENS_12basic_stringIcNS_11char_traitsIcEENS2_IcEEEEbxydS2_NS4_14adl_serializerENS7_IhNS2_IhEEEEvEEEEPSG_EEEC2B8ue170006ESJ_, symObjAddr: 0x17F74, symBinAddr: 0x10001B030, symSize: 0x30 }
  - { offsetInCU: 0x48F40, offset: 0x48F40, size: 0x8, addend: 0x0, symName: __ZNSt3__129_AllocatorDestroyRangeReverseINS_9allocatorIN8nlohmann16json_abi_v3_12_010basic_jsonINS_3mapENS_6vectorENS_12basic_stringIcNS_11char_traitsIcEENS1_IcEEEEbxydS1_NS3_14adl_serializerENS6_IhNS1_IhEEEEvEEEEPSF_EC2B8ue170006ERSG_RSH_SK_, symObjAddr: 0x17FA4, symBinAddr: 0x10001B060, symSize: 0x38 }
  - { offsetInCU: 0x48F9A, offset: 0x48F9A, size: 0x8, addend: 0x0, symName: __ZNSt3__128__exception_guard_exceptionsINS_29_AllocatorDestroyRangeReverseINS_9allocatorIN8nlohmann16json_abi_v3_12_010basic_jsonINS_3mapENS_6vectorENS_12basic_stringIcNS_11char_traitsIcEENS2_IcEEEEbxydS2_NS4_14adl_serializerENS7_IhNS2_IhEEEEvEEEEPSG_EEED2B8ue170006Ev, symObjAddr: 0x18018, symBinAddr: 0x10001B0D4, symSize: 0x50 }
  - { offsetInCU: 0x48FC4, offset: 0x48FC4, size: 0x8, addend: 0x0, symName: __ZNKSt3__129_AllocatorDestroyRangeReverseINS_9allocatorIN8nlohmann16json_abi_v3_12_010basic_jsonINS_3mapENS_6vectorENS_12basic_stringIcNS_11char_traitsIcEENS1_IcEEEEbxydS1_NS3_14adl_serializerENS6_IhNS1_IhEEEEvEEEEPSF_EclB8ue170006Ev, symObjAddr: 0x18068, symBinAddr: 0x10001B124, symSize: 0x68 }
  - { offsetInCU: 0x48FEA, offset: 0x48FEA, size: 0x8, addend: 0x0, symName: __ZNSt3__118__unwrap_iter_implIPN8nlohmann16json_abi_v3_12_010basic_jsonINS_3mapENS_6vectorENS_12basic_stringIcNS_11char_traitsIcEENS_9allocatorIcEEEEbxydS9_NS2_14adl_serializerENS5_IhNS9_IhEEEEvEELb1EE8__unwrapB8ue170006ESG_, symObjAddr: 0x18140, symBinAddr: 0x10001B1FC, symSize: 0x24 }
  - { offsetInCU: 0x4900D, offset: 0x4900D, size: 0x8, addend: 0x0, symName: __ZNSt3__118__unwrap_iter_implIPN8nlohmann16json_abi_v3_12_010basic_jsonINS_3mapENS_6vectorENS_12basic_stringIcNS_11char_traitsIcEENS_9allocatorIcEEEEbxydS9_NS2_14adl_serializerENS5_IhNS9_IhEEEEvEELb1EE8__rewrapB8ue170006ESG_SG_, symObjAddr: 0x18164, symBinAddr: 0x10001B220, symSize: 0x50 }
  - { offsetInCU: 0x4903E, offset: 0x4903E, size: 0x8, addend: 0x0, symName: __ZNSt3__128__exception_guard_exceptionsINS_6vectorIN8nlohmann16json_abi_v3_12_010basic_jsonINS_3mapES1_NS_12basic_stringIcNS_11char_traitsIcEENS_9allocatorIcEEEEbxydS9_NS3_14adl_serializerENS1_IhNS9_IhEEEEvEENS9_ISF_EEE16__destroy_vectorEED2B8ue170006Ev, symObjAddr: 0x181B4, symBinAddr: 0x10001B270, symSize: 0x48 }
  - { offsetInCU: 0x49068, offset: 0x49068, size: 0x8, addend: 0x0, symName: __ZNKSt3__117__compressed_pairIPNS_6vectorIN8nlohmann16json_abi_v3_12_010basic_jsonINS_3mapES1_NS_12basic_stringIcNS_11char_traitsIcEENS_9allocatorIcEEEEbxydS9_NS3_14adl_serializerENS1_IhNS9_IhEEEEvEENS9_ISF_EEEEZNSF_6createISH_JRKSH_EEEPT_DpOT0_EUlSI_E_E5firstB8ue170006Ev, symObjAddr: 0x181FC, symBinAddr: 0x10001B2B8, symSize: 0x24 }
  - { offsetInCU: 0x4908E, offset: 0x4908E, size: 0x8, addend: 0x0, symName: __ZNKSt3__110unique_ptrINS_6vectorIN8nlohmann16json_abi_v3_12_010basic_jsonINS_3mapES1_NS_12basic_stringIcNS_11char_traitsIcEENS_9allocatorIcEEEEbxydS9_NS3_14adl_serializerENS1_IhNS9_IhEEEEvEENS9_ISF_EEEEZNSF_6createISH_JRKSH_EEEPT_DpOT0_EUlPSH_E_EcvbB8ue170006Ev, symObjAddr: 0x18220, symBinAddr: 0x10001B2DC, symSize: 0x34 }
  - { offsetInCU: 0x490B4, offset: 0x490B4, size: 0x8, addend: 0x0, symName: __ZNSt3__117__compressed_pairIPNS_6vectorIN8nlohmann16json_abi_v3_12_010basic_jsonINS_3mapES1_NS_12basic_stringIcNS_11char_traitsIcEENS_9allocatorIcEEEEbxydS9_NS3_14adl_serializerENS1_IhNS9_IhEEEEvEENS9_ISF_EEEEZNSF_6createISH_JRKSH_EEEPT_DpOT0_EUlSI_E_E5firstB8ue170006Ev, symObjAddr: 0x18254, symBinAddr: 0x10001B310, symSize: 0x24 }
  - { offsetInCU: 0x490DA, offset: 0x490DA, size: 0x8, addend: 0x0, symName: __ZNSt3__110unique_ptrINS_6vectorIN8nlohmann16json_abi_v3_12_010basic_jsonINS_3mapES1_NS_12basic_stringIcNS_11char_traitsIcEENS_9allocatorIcEEEEbxydS9_NS3_14adl_serializerENS1_IhNS9_IhEEEEvEENS9_ISF_EEEEZNSF_6createISH_JRKSH_EEEPT_DpOT0_EUlPSH_E_ED2B8ue170006Ev, symObjAddr: 0x18278, symBinAddr: 0x10001B334, symSize: 0x30 }
  - { offsetInCU: 0x49104, offset: 0x49104, size: 0x8, addend: 0x0, symName: __ZNSt3__110unique_ptrINS_6vectorIN8nlohmann16json_abi_v3_12_010basic_jsonINS_3mapES1_NS_12basic_stringIcNS_11char_traitsIcEENS_9allocatorIcEEEEbxydS9_NS3_14adl_serializerENS1_IhNS9_IhEEEEvEENS9_ISF_EEEEZNSF_6createISH_JRKSH_EEEPT_DpOT0_EUlPSH_E_E5resetB8ue170006ESQ_, symObjAddr: 0x182A8, symBinAddr: 0x10001B364, symSize: 0x80 }
  - { offsetInCU: 0x49149, offset: 0x49149, size: 0x8, addend: 0x0, symName: __ZNSt3__117__compressed_pairIPNS_6vectorIN8nlohmann16json_abi_v3_12_010basic_jsonINS_3mapES1_NS_12basic_stringIcNS_11char_traitsIcEENS_9allocatorIcEEEEbxydS9_NS3_14adl_serializerENS1_IhNS9_IhEEEEvEENS9_ISF_EEEEZNSF_6createISH_JRKSH_EEEPT_DpOT0_EUlSI_E_E6secondB8ue170006Ev, symObjAddr: 0x18328, symBinAddr: 0x10001B3E4, symSize: 0x28 }
  - { offsetInCU: 0x49175, offset: 0x49175, size: 0x8, addend: 0x0, symName: __ZZN8nlohmann16json_abi_v3_12_010basic_jsonINSt3__13mapENS2_6vectorENS2_12basic_stringIcNS2_11char_traitsIcEENS2_9allocatorIcEEEEbxydS8_NS0_14adl_serializerENS4_IhNS8_IhEEEEvE6createINS4_ISE_NS8_ISE_EEEEJRKSH_EEEPT_DpOT0_ENKUlPSH_E_clESP_, symObjAddr: 0x18350, symBinAddr: 0x10001B40C, symSize: 0x34 }
  - { offsetInCU: 0x491AF, offset: 0x491AF, size: 0x8, addend: 0x0, symName: __ZNSt3__122__compressed_pair_elemIZN8nlohmann16json_abi_v3_12_010basic_jsonINS_3mapENS_6vectorENS_12basic_stringIcNS_11char_traitsIcEENS_9allocatorIcEEEEbxydS9_NS2_14adl_serializerENS5_IhNS9_IhEEEEvE6createINS5_ISF_NS9_ISF_EEEEJRKSI_EEEPT_DpOT0_EUlPSI_E_Li1ELb0EE5__getB8ue170006Ev, symObjAddr: 0x18384, symBinAddr: 0x10001B440, symSize: 0x14 }
  - { offsetInCU: 0x491D5, offset: 0x491D5, size: 0x8, addend: 0x0, symName: __ZN8nlohmann16json_abi_v3_12_010basic_jsonINSt3__13mapENS2_6vectorENS2_12basic_stringIcNS2_11char_traitsIcEENS2_9allocatorIcEEEEbxydS8_NS0_14adl_serializerENS4_IhNS8_IhEEEEvE10json_valueC2ERKSA_, symObjAddr: 0x18398, symBinAddr: 0x10001B454, symSize: 0x3C }
  - { offsetInCU: 0x4920F, offset: 0x4920F, size: 0x8, addend: 0x0, symName: __ZN8nlohmann16json_abi_v3_12_010basic_jsonINSt3__13mapENS2_6vectorENS2_12basic_stringIcNS2_11char_traitsIcEENS2_9allocatorIcEEEEbxydS8_NS0_14adl_serializerENS4_IhNS8_IhEEEEvE6createISA_JRKSA_EEEPT_DpOT0_, symObjAddr: 0x183D4, symBinAddr: 0x10001B490, symSize: 0xF4 }
  - { offsetInCU: 0x49310, offset: 0x49310, size: 0x8, addend: 0x0, symName: __ZNSt3__110unique_ptrINS_12basic_stringIcNS_11char_traitsIcEENS_9allocatorIcEEEEZN8nlohmann16json_abi_v3_12_010basic_jsonINS_3mapENS_6vectorES6_bxydS4_NS8_14adl_serializerENSB_IhNS4_IhEEEEvE6createIS6_JRKS6_EEEPT_DpOT0_EUlPS6_E_EC1B8ue170006ILb1EvEESO_NS_16__dependent_typeINS_27__unique_ptr_deleter_sfinaeISP_EEXT_EE15__lval_ref_typeE, symObjAddr: 0x184C8, symBinAddr: 0x10001B584, symSize: 0x3C }
  - { offsetInCU: 0x49361, offset: 0x49361, size: 0x8, addend: 0x0, symName: __ZNSt3__116allocator_traitsINS_9allocatorINS_12basic_stringIcNS_11char_traitsIcEENS1_IcEEEEEEE9constructB8ue170006IS6_JRKS6_EvvEEvRS7_PT_DpOT0_, symObjAddr: 0x18504, symBinAddr: 0x10001B5C0, symSize: 0x30 }
  - { offsetInCU: 0x493B8, offset: 0x493B8, size: 0x8, addend: 0x0, symName: __ZNKSt3__110unique_ptrINS_12basic_stringIcNS_11char_traitsIcEENS_9allocatorIcEEEEZN8nlohmann16json_abi_v3_12_010basic_jsonINS_3mapENS_6vectorES6_bxydS4_NS8_14adl_serializerENSB_IhNS4_IhEEEEvE6createIS6_JRKS6_EEEPT_DpOT0_EUlPS6_E_E3getB8ue170006Ev, symObjAddr: 0x18534, symBinAddr: 0x10001B5F0, symSize: 0x28 }
  - { offsetInCU: 0x493DE, offset: 0x493DE, size: 0x8, addend: 0x0, symName: __ZNSt3__110unique_ptrINS_12basic_stringIcNS_11char_traitsIcEENS_9allocatorIcEEEEZN8nlohmann16json_abi_v3_12_010basic_jsonINS_3mapENS_6vectorES6_bxydS4_NS8_14adl_serializerENSB_IhNS4_IhEEEEvE6createIS6_JRKS6_EEEPT_DpOT0_EUlPS6_E_E7releaseB8ue170006Ev, symObjAddr: 0x1858C, symBinAddr: 0x10001B648, symSize: 0x44 }
  - { offsetInCU: 0x49413, offset: 0x49413, size: 0x8, addend: 0x0, symName: __ZNSt3__110unique_ptrINS_12basic_stringIcNS_11char_traitsIcEENS_9allocatorIcEEEEZN8nlohmann16json_abi_v3_12_010basic_jsonINS_3mapENS_6vectorES6_bxydS4_NS8_14adl_serializerENSB_IhNS4_IhEEEEvE6createIS6_JRKS6_EEEPT_DpOT0_EUlPS6_E_ED1B8ue170006Ev, symObjAddr: 0x185D0, symBinAddr: 0x10001B68C, symSize: 0x2C }
  - { offsetInCU: 0x4943D, offset: 0x4943D, size: 0x8, addend: 0x0, symName: __ZNSt3__110unique_ptrINS_12basic_stringIcNS_11char_traitsIcEENS_9allocatorIcEEEEZN8nlohmann16json_abi_v3_12_010basic_jsonINS_3mapENS_6vectorES6_bxydS4_NS8_14adl_serializerENSB_IhNS4_IhEEEEvE6createIS6_JRKS6_EEEPT_DpOT0_EUlPS6_E_EC2B8ue170006ILb1EvEESO_NS_16__dependent_typeINS_27__unique_ptr_deleter_sfinaeISP_EEXT_EE15__lval_ref_typeE, symObjAddr: 0x185FC, symBinAddr: 0x10001B6B8, symSize: 0x48 }
  - { offsetInCU: 0x4948E, offset: 0x4948E, size: 0x8, addend: 0x0, symName: __ZNSt3__117__compressed_pairIPNS_12basic_stringIcNS_11char_traitsIcEENS_9allocatorIcEEEEZN8nlohmann16json_abi_v3_12_010basic_jsonINS_3mapENS_6vectorES6_bxydS4_NS9_14adl_serializerENSC_IhNS4_IhEEEEvE6createIS6_JRKS6_EEEPT_DpOT0_EUlS7_E_EC1B8ue170006IRS7_RKSP_EEOSK_OT0_, symObjAddr: 0x18644, symBinAddr: 0x10001B700, symSize: 0x3C }
  - { offsetInCU: 0x494E6, offset: 0x494E6, size: 0x8, addend: 0x0, symName: __ZNSt3__117__compressed_pairIPNS_12basic_stringIcNS_11char_traitsIcEENS_9allocatorIcEEEEZN8nlohmann16json_abi_v3_12_010basic_jsonINS_3mapENS_6vectorES6_bxydS4_NS9_14adl_serializerENSC_IhNS4_IhEEEEvE6createIS6_JRKS6_EEEPT_DpOT0_EUlS7_E_EC2B8ue170006IRS7_RKSP_EEOSK_OT0_, symObjAddr: 0x18680, symBinAddr: 0x10001B73C, symSize: 0x48 }
  - { offsetInCU: 0x4953E, offset: 0x4953E, size: 0x8, addend: 0x0, symName: __ZNSt3__122__compressed_pair_elemIZN8nlohmann16json_abi_v3_12_010basic_jsonINS_3mapENS_6vectorENS_12basic_stringIcNS_11char_traitsIcEENS_9allocatorIcEEEEbxydS9_NS2_14adl_serializerENS5_IhNS9_IhEEEEvE6createISB_JRKSB_EEEPT_DpOT0_EUlPSB_E_Li1ELb0EEC2B8ue170006IRKSP_vEEOSJ_, symObjAddr: 0x186C8, symBinAddr: 0x10001B784, symSize: 0x24 }
  - { offsetInCU: 0x49580, offset: 0x49580, size: 0x8, addend: 0x0, symName: __ZNKSt3__117__compressed_pairIPNS_12basic_stringIcNS_11char_traitsIcEENS_9allocatorIcEEEEZN8nlohmann16json_abi_v3_12_010basic_jsonINS_3mapENS_6vectorES6_bxydS4_NS9_14adl_serializerENSC_IhNS4_IhEEEEvE6createIS6_JRKS6_EEEPT_DpOT0_EUlS7_E_E5firstB8ue170006Ev, symObjAddr: 0x18728, symBinAddr: 0x10001B7E4, symSize: 0x24 }
  - { offsetInCU: 0x495A6, offset: 0x495A6, size: 0x8, addend: 0x0, symName: __ZNKSt3__110unique_ptrINS_12basic_stringIcNS_11char_traitsIcEENS_9allocatorIcEEEEZN8nlohmann16json_abi_v3_12_010basic_jsonINS_3mapENS_6vectorES6_bxydS4_NS8_14adl_serializerENSB_IhNS4_IhEEEEvE6createIS6_JRKS6_EEEPT_DpOT0_EUlPS6_E_EcvbB8ue170006Ev, symObjAddr: 0x1874C, symBinAddr: 0x10001B808, symSize: 0x34 }
  - { offsetInCU: 0x495CC, offset: 0x495CC, size: 0x8, addend: 0x0, symName: __ZNSt3__117__compressed_pairIPNS_12basic_stringIcNS_11char_traitsIcEENS_9allocatorIcEEEEZN8nlohmann16json_abi_v3_12_010basic_jsonINS_3mapENS_6vectorES6_bxydS4_NS9_14adl_serializerENSC_IhNS4_IhEEEEvE6createIS6_JRKS6_EEEPT_DpOT0_EUlS7_E_E5firstB8ue170006Ev, symObjAddr: 0x18780, symBinAddr: 0x10001B83C, symSize: 0x24 }
  - { offsetInCU: 0x495F2, offset: 0x495F2, size: 0x8, addend: 0x0, symName: __ZNSt3__110unique_ptrINS_12basic_stringIcNS_11char_traitsIcEENS_9allocatorIcEEEEZN8nlohmann16json_abi_v3_12_010basic_jsonINS_3mapENS_6vectorES6_bxydS4_NS8_14adl_serializerENSB_IhNS4_IhEEEEvE6createIS6_JRKS6_EEEPT_DpOT0_EUlPS6_E_ED2B8ue170006Ev, symObjAddr: 0x187A4, symBinAddr: 0x10001B860, symSize: 0x30 }
  - { offsetInCU: 0x4961C, offset: 0x4961C, size: 0x8, addend: 0x0, symName: __ZNSt3__110unique_ptrINS_12basic_stringIcNS_11char_traitsIcEENS_9allocatorIcEEEEZN8nlohmann16json_abi_v3_12_010basic_jsonINS_3mapENS_6vectorES6_bxydS4_NS8_14adl_serializerENSB_IhNS4_IhEEEEvE6createIS6_JRKS6_EEEPT_DpOT0_EUlPS6_E_E5resetB8ue170006ESO_, symObjAddr: 0x187D4, symBinAddr: 0x10001B890, symSize: 0x80 }
  - { offsetInCU: 0x49661, offset: 0x49661, size: 0x8, addend: 0x0, symName: __ZNSt3__117__compressed_pairIPNS_12basic_stringIcNS_11char_traitsIcEENS_9allocatorIcEEEEZN8nlohmann16json_abi_v3_12_010basic_jsonINS_3mapENS_6vectorES6_bxydS4_NS9_14adl_serializerENSC_IhNS4_IhEEEEvE6createIS6_JRKS6_EEEPT_DpOT0_EUlS7_E_E6secondB8ue170006Ev, symObjAddr: 0x18854, symBinAddr: 0x10001B910, symSize: 0x28 }
  - { offsetInCU: 0x4968D, offset: 0x4968D, size: 0x8, addend: 0x0, symName: __ZZN8nlohmann16json_abi_v3_12_010basic_jsonINSt3__13mapENS2_6vectorENS2_12basic_stringIcNS2_11char_traitsIcEENS2_9allocatorIcEEEEbxydS8_NS0_14adl_serializerENS4_IhNS8_IhEEEEvE6createISA_JRKSA_EEEPT_DpOT0_ENKUlPSA_E_clESN_, symObjAddr: 0x1887C, symBinAddr: 0x10001B938, symSize: 0x34 }
  - { offsetInCU: 0x496C7, offset: 0x496C7, size: 0x8, addend: 0x0, symName: __ZNSt3__122__compressed_pair_elemIZN8nlohmann16json_abi_v3_12_010basic_jsonINS_3mapENS_6vectorENS_12basic_stringIcNS_11char_traitsIcEENS_9allocatorIcEEEEbxydS9_NS2_14adl_serializerENS5_IhNS9_IhEEEEvE6createISB_JRKSB_EEEPT_DpOT0_EUlPSB_E_Li1ELb0EE5__getB8ue170006Ev, symObjAddr: 0x188B0, symBinAddr: 0x10001B96C, symSize: 0x14 }
  - { offsetInCU: 0x496ED, offset: 0x496ED, size: 0x8, addend: 0x0, symName: __ZN8nlohmann16json_abi_v3_12_010basic_jsonINSt3__13mapENS2_6vectorENS2_12basic_stringIcNS2_11char_traitsIcEENS2_9allocatorIcEEEEbxydS8_NS0_14adl_serializerENS4_IhNS8_IhEEEEvE10json_valueC2Eb, symObjAddr: 0x188C4, symBinAddr: 0x10001B980, symSize: 0x2C }
  - { offsetInCU: 0x49727, offset: 0x49727, size: 0x8, addend: 0x0, symName: __ZN8nlohmann16json_abi_v3_12_010basic_jsonINSt3__13mapENS2_6vectorENS2_12basic_stringIcNS2_11char_traitsIcEENS2_9allocatorIcEEEEbxydS8_NS0_14adl_serializerENS4_IhNS8_IhEEEEvE10json_valueC2Ex, symObjAddr: 0x188F0, symBinAddr: 0x10001B9AC, symSize: 0x20 }
  - { offsetInCU: 0x49761, offset: 0x49761, size: 0x8, addend: 0x0, symName: __ZN8nlohmann16json_abi_v3_12_010basic_jsonINSt3__13mapENS2_6vectorENS2_12basic_stringIcNS2_11char_traitsIcEENS2_9allocatorIcEEEEbxydS8_NS0_14adl_serializerENS4_IhNS8_IhEEEEvE10json_valueC2Ey, symObjAddr: 0x18910, symBinAddr: 0x10001B9CC, symSize: 0x20 }
  - { offsetInCU: 0x4979B, offset: 0x4979B, size: 0x8, addend: 0x0, symName: __ZN8nlohmann16json_abi_v3_12_010basic_jsonINSt3__13mapENS2_6vectorENS2_12basic_stringIcNS2_11char_traitsIcEENS2_9allocatorIcEEEEbxydS8_NS0_14adl_serializerENS4_IhNS8_IhEEEEvE10json_valueC2Ed, symObjAddr: 0x18930, symBinAddr: 0x10001B9EC, symSize: 0x20 }
  - { offsetInCU: 0x497D5, offset: 0x497D5, size: 0x8, addend: 0x0, symName: __ZN8nlohmann16json_abi_v3_12_010basic_jsonINSt3__13mapENS2_6vectorENS2_12basic_stringIcNS2_11char_traitsIcEENS2_9allocatorIcEEEEbxydS8_NS0_14adl_serializerENS4_IhNS8_IhEEEEvE10json_valueC2ERKNS0_27byte_container_with_subtypeISD_EE, symObjAddr: 0x18950, symBinAddr: 0x10001BA0C, symSize: 0x3C }
  - { offsetInCU: 0x4980F, offset: 0x4980F, size: 0x8, addend: 0x0, symName: __ZN8nlohmann16json_abi_v3_12_010basic_jsonINSt3__13mapENS2_6vectorENS2_12basic_stringIcNS2_11char_traitsIcEENS2_9allocatorIcEEEEbxydS8_NS0_14adl_serializerENS4_IhNS8_IhEEEEvE6createINS0_27byte_container_with_subtypeISD_EEJRKSH_EEEPT_DpOT0_, symObjAddr: 0x1898C, symBinAddr: 0x10001BA48, symSize: 0xF4 }
  - { offsetInCU: 0x49910, offset: 0x49910, size: 0x8, addend: 0x0, symName: __ZNSt3__110unique_ptrIN8nlohmann16json_abi_v3_12_027byte_container_with_subtypeINS_6vectorIhNS_9allocatorIhEEEEEEZNS2_10basic_jsonINS_3mapES4_NS_12basic_stringIcNS_11char_traitsIcEENS5_IcEEEEbxydS5_NS2_14adl_serializerES7_vE6createIS8_JRKS8_EEEPT_DpOT0_EUlPS8_E_EC1B8ue170006ILb1EvEESQ_NS_16__dependent_typeINS_27__unique_ptr_deleter_sfinaeISR_EEXT_EE15__lval_ref_typeE, symObjAddr: 0x18A80, symBinAddr: 0x10001BB3C, symSize: 0x3C }
  - { offsetInCU: 0x49961, offset: 0x49961, size: 0x8, addend: 0x0, symName: __ZNSt3__116allocator_traitsINS_9allocatorIN8nlohmann16json_abi_v3_12_027byte_container_with_subtypeINS_6vectorIhNS1_IhEEEEEEEEE9constructB8ue170006IS8_JRKS8_EvvEEvRS9_PT_DpOT0_, symObjAddr: 0x18ABC, symBinAddr: 0x10001BB78, symSize: 0x30 }
  - { offsetInCU: 0x499B8, offset: 0x499B8, size: 0x8, addend: 0x0, symName: __ZNKSt3__110unique_ptrIN8nlohmann16json_abi_v3_12_027byte_container_with_subtypeINS_6vectorIhNS_9allocatorIhEEEEEEZNS2_10basic_jsonINS_3mapES4_NS_12basic_stringIcNS_11char_traitsIcEENS5_IcEEEEbxydS5_NS2_14adl_serializerES7_vE6createIS8_JRKS8_EEEPT_DpOT0_EUlPS8_E_E3getB8ue170006Ev, symObjAddr: 0x18AEC, symBinAddr: 0x10001BBA8, symSize: 0x28 }
  - { offsetInCU: 0x499DE, offset: 0x499DE, size: 0x8, addend: 0x0, symName: __ZNSt3__110unique_ptrIN8nlohmann16json_abi_v3_12_027byte_container_with_subtypeINS_6vectorIhNS_9allocatorIhEEEEEEZNS2_10basic_jsonINS_3mapES4_NS_12basic_stringIcNS_11char_traitsIcEENS5_IcEEEEbxydS5_NS2_14adl_serializerES7_vE6createIS8_JRKS8_EEEPT_DpOT0_EUlPS8_E_E7releaseB8ue170006Ev, symObjAddr: 0x18B44, symBinAddr: 0x10001BC00, symSize: 0x44 }
  - { offsetInCU: 0x49A13, offset: 0x49A13, size: 0x8, addend: 0x0, symName: __ZNSt3__110unique_ptrIN8nlohmann16json_abi_v3_12_027byte_container_with_subtypeINS_6vectorIhNS_9allocatorIhEEEEEEZNS2_10basic_jsonINS_3mapES4_NS_12basic_stringIcNS_11char_traitsIcEENS5_IcEEEEbxydS5_NS2_14adl_serializerES7_vE6createIS8_JRKS8_EEEPT_DpOT0_EUlPS8_E_ED1B8ue170006Ev, symObjAddr: 0x18B88, symBinAddr: 0x10001BC44, symSize: 0x2C }
  - { offsetInCU: 0x49A3D, offset: 0x49A3D, size: 0x8, addend: 0x0, symName: __ZNSt3__110unique_ptrIN8nlohmann16json_abi_v3_12_027byte_container_with_subtypeINS_6vectorIhNS_9allocatorIhEEEEEEZNS2_10basic_jsonINS_3mapES4_NS_12basic_stringIcNS_11char_traitsIcEENS5_IcEEEEbxydS5_NS2_14adl_serializerES7_vE6createIS8_JRKS8_EEEPT_DpOT0_EUlPS8_E_EC2B8ue170006ILb1EvEESQ_NS_16__dependent_typeINS_27__unique_ptr_deleter_sfinaeISR_EEXT_EE15__lval_ref_typeE, symObjAddr: 0x18BB4, symBinAddr: 0x10001BC70, symSize: 0x48 }
  - { offsetInCU: 0x49A8E, offset: 0x49A8E, size: 0x8, addend: 0x0, symName: __ZNSt3__117__compressed_pairIPN8nlohmann16json_abi_v3_12_027byte_container_with_subtypeINS_6vectorIhNS_9allocatorIhEEEEEEZNS2_10basic_jsonINS_3mapES4_NS_12basic_stringIcNS_11char_traitsIcEENS5_IcEEEEbxydS5_NS2_14adl_serializerES7_vE6createIS8_JRKS8_EEEPT_DpOT0_EUlS9_E_EC1B8ue170006IRS9_RKSR_EEOSM_OT0_, symObjAddr: 0x18BFC, symBinAddr: 0x10001BCB8, symSize: 0x3C }
  - { offsetInCU: 0x49AE6, offset: 0x49AE6, size: 0x8, addend: 0x0, symName: __ZNSt3__117__compressed_pairIPN8nlohmann16json_abi_v3_12_027byte_container_with_subtypeINS_6vectorIhNS_9allocatorIhEEEEEEZNS2_10basic_jsonINS_3mapES4_NS_12basic_stringIcNS_11char_traitsIcEENS5_IcEEEEbxydS5_NS2_14adl_serializerES7_vE6createIS8_JRKS8_EEEPT_DpOT0_EUlS9_E_EC2B8ue170006IRS9_RKSR_EEOSM_OT0_, symObjAddr: 0x18C38, symBinAddr: 0x10001BCF4, symSize: 0x48 }
  - { offsetInCU: 0x49B3E, offset: 0x49B3E, size: 0x8, addend: 0x0, symName: __ZNSt3__122__compressed_pair_elemIZN8nlohmann16json_abi_v3_12_010basic_jsonINS_3mapENS_6vectorENS_12basic_stringIcNS_11char_traitsIcEENS_9allocatorIcEEEEbxydS9_NS2_14adl_serializerENS5_IhNS9_IhEEEEvE6createINS2_27byte_container_with_subtypeISE_EEJRKSI_EEEPT_DpOT0_EUlPSI_E_Li1ELb0EEC2B8ue170006IRKSR_vEEOSL_, symObjAddr: 0x18C80, symBinAddr: 0x10001BD3C, symSize: 0x24 }
  - { offsetInCU: 0x49B80, offset: 0x49B80, size: 0x8, addend: 0x0, symName: __ZN8nlohmann16json_abi_v3_12_027byte_container_with_subtypeINSt3__16vectorIhNS2_9allocatorIhEEEEEC1ERKS7_, symObjAddr: 0x18CE0, symBinAddr: 0x10001BD9C, symSize: 0x34 }
  - { offsetInCU: 0x49BB6, offset: 0x49BB6, size: 0x8, addend: 0x0, symName: __ZN8nlohmann16json_abi_v3_12_027byte_container_with_subtypeINSt3__16vectorIhNS2_9allocatorIhEEEEEC2ERKS7_, symObjAddr: 0x18D14, symBinAddr: 0x10001BDD0, symSize: 0x48 }
  - { offsetInCU: 0x49BEC, offset: 0x49BEC, size: 0x8, addend: 0x0, symName: __ZNSt3__16vectorIhNS_9allocatorIhEEEC2ERKS3_, symObjAddr: 0x18D5C, symBinAddr: 0x10001BE18, symSize: 0x94 }
  - { offsetInCU: 0x49C33, offset: 0x49C33, size: 0x8, addend: 0x0, symName: __ZNSt3__116allocator_traitsINS_9allocatorIhEEE37select_on_container_copy_constructionB8ue170006IS2_vvEES2_RKS2_, symObjAddr: 0x18DF0, symBinAddr: 0x10001BEAC, symSize: 0x10 }
  - { offsetInCU: 0x49C63, offset: 0x49C63, size: 0x8, addend: 0x0, symName: __ZNKSt3__16vectorIhNS_9allocatorIhEEE7__allocB8ue170006Ev, symObjAddr: 0x18E00, symBinAddr: 0x10001BEBC, symSize: 0x28 }
  - { offsetInCU: 0x49C8F, offset: 0x49C8F, size: 0x8, addend: 0x0, symName: __ZNSt3__117__compressed_pairIPhNS_9allocatorIhEEEC1B8ue170006IDnS3_EEOT_OT0_, symObjAddr: 0x18E28, symBinAddr: 0x10001BEE4, symSize: 0x3C }
  - { offsetInCU: 0x49CE7, offset: 0x49CE7, size: 0x8, addend: 0x0, symName: __ZNSt3__16vectorIhNS_9allocatorIhEEE16__init_with_sizeB8ue170006IPhS5_EEvT_T0_m, symObjAddr: 0x18E64, symBinAddr: 0x10001BF20, symSize: 0xB8 }
  - { offsetInCU: 0x49D5E, offset: 0x49D5E, size: 0x8, addend: 0x0, symName: __ZNKSt3__117__compressed_pairIPhNS_9allocatorIhEEE6secondB8ue170006Ev, symObjAddr: 0x18F1C, symBinAddr: 0x10001BFD8, symSize: 0x24 }
  - { offsetInCU: 0x49D84, offset: 0x49D84, size: 0x8, addend: 0x0, symName: __ZNKSt3__122__compressed_pair_elemINS_9allocatorIhEELi1ELb1EE5__getB8ue170006Ev, symObjAddr: 0x18F40, symBinAddr: 0x10001BFFC, symSize: 0x14 }
  - { offsetInCU: 0x49DAA, offset: 0x49DAA, size: 0x8, addend: 0x0, symName: __ZNSt3__117__compressed_pairIPhNS_9allocatorIhEEEC2B8ue170006IDnS3_EEOT_OT0_, symObjAddr: 0x18F54, symBinAddr: 0x10001C010, symSize: 0x44 }
  - { offsetInCU: 0x49E02, offset: 0x49E02, size: 0x8, addend: 0x0, symName: __ZNSt3__122__compressed_pair_elemINS_9allocatorIhEELi1ELb1EEC2B8ue170006IS2_vEEOT_, symObjAddr: 0x18F98, symBinAddr: 0x10001C054, symSize: 0x18 }
  - { offsetInCU: 0x49E44, offset: 0x49E44, size: 0x8, addend: 0x0, symName: __ZNSt3__16vectorIhNS_9allocatorIhEEE11__vallocateB8ue170006Em, symObjAddr: 0x18FF0, symBinAddr: 0x10001C0AC, symSize: 0xAC }
  - { offsetInCU: 0x49E89, offset: 0x49E89, size: 0x8, addend: 0x0, symName: __ZNSt3__16vectorIhNS_9allocatorIhEEE18__construct_at_endIPhS5_EEvT_T0_m, symObjAddr: 0x1909C, symBinAddr: 0x10001C158, symSize: 0x8C }
  - { offsetInCU: 0x49F02, offset: 0x49F02, size: 0x8, addend: 0x0, symName: __ZNSt3__128__exception_guard_exceptionsINS_6vectorIhNS_9allocatorIhEEE16__destroy_vectorEE10__completeB8ue170006Ev, symObjAddr: 0x19128, symBinAddr: 0x10001C1E4, symSize: 0x1C }
  - { offsetInCU: 0x49F28, offset: 0x49F28, size: 0x8, addend: 0x0, symName: __ZNSt3__128__exception_guard_exceptionsINS_6vectorIhNS_9allocatorIhEEE16__destroy_vectorEED1B8ue170006Ev, symObjAddr: 0x19144, symBinAddr: 0x10001C200, symSize: 0x2C }
  - { offsetInCU: 0x49F52, offset: 0x49F52, size: 0x8, addend: 0x0, symName: __ZNSt3__128__exception_guard_exceptionsINS_6vectorIhNS_9allocatorIhEEE16__destroy_vectorEEC1B8ue170006ES5_, symObjAddr: 0x19170, symBinAddr: 0x10001C22C, symSize: 0x34 }
  - { offsetInCU: 0x49F8A, offset: 0x49F8A, size: 0x8, addend: 0x0, symName: __ZNSt3__128__exception_guard_exceptionsINS_6vectorIhNS_9allocatorIhEEE16__destroy_vectorEEC2B8ue170006ES5_, symObjAddr: 0x191A4, symBinAddr: 0x10001C260, symSize: 0x24 }
  - { offsetInCU: 0x49FC2, offset: 0x49FC2, size: 0x8, addend: 0x0, symName: __ZNKSt3__16vectorIhNS_9allocatorIhEEE8max_sizeEv, symObjAddr: 0x191C8, symBinAddr: 0x10001C284, symSize: 0x60 }
  - { offsetInCU: 0x49FEA, offset: 0x49FEA, size: 0x8, addend: 0x0, symName: __ZNKSt3__16vectorIhNS_9allocatorIhEEE20__throw_length_errorB8ue170006Ev, symObjAddr: 0x19228, symBinAddr: 0x10001C2E4, symSize: 0x1C }
  - { offsetInCU: 0x4A010, offset: 0x4A010, size: 0x8, addend: 0x0, symName: __ZNSt3__16vectorIhNS_9allocatorIhEEE9__end_capB8ue170006Ev, symObjAddr: 0x19284, symBinAddr: 0x10001C340, symSize: 0x28 }
  - { offsetInCU: 0x4A036, offset: 0x4A036, size: 0x8, addend: 0x0, symName: __ZNKSt3__16vectorIhNS_9allocatorIhEEE14__annotate_newB8ue170006Em, symObjAddr: 0x192AC, symBinAddr: 0x10001C368, symSize: 0xAC }
  - { offsetInCU: 0x4A06C, offset: 0x4A06C, size: 0x8, addend: 0x0, symName: __ZNSt3__116allocator_traitsINS_9allocatorIhEEE8max_sizeB8ue170006IS2_vvEEmRKS2_, symObjAddr: 0x19358, symBinAddr: 0x10001C414, symSize: 0x28 }
  - { offsetInCU: 0x4A098, offset: 0x4A098, size: 0x8, addend: 0x0, symName: __ZNSt3__19allocatorIhE8allocateB8ue170006Em, symObjAddr: 0x19380, symBinAddr: 0x10001C43C, symSize: 0x58 }
  - { offsetInCU: 0x4A0CC, offset: 0x4A0CC, size: 0x8, addend: 0x0, symName: __ZNSt3__117__compressed_pairIPhNS_9allocatorIhEEE5firstB8ue170006Ev, symObjAddr: 0x193D8, symBinAddr: 0x10001C494, symSize: 0x24 }
  - { offsetInCU: 0x4A0F2, offset: 0x4A0F2, size: 0x8, addend: 0x0, symName: __ZNSt3__122__compressed_pair_elemIPhLi0ELb0EE5__getB8ue170006Ev, symObjAddr: 0x193FC, symBinAddr: 0x10001C4B8, symSize: 0x14 }
  - { offsetInCU: 0x4A134, offset: 0x4A134, size: 0x8, addend: 0x0, symName: __ZNSt3__16vectorIhNS_9allocatorIhEEE21_ConstructTransactionC1B8ue170006ERS3_m, symObjAddr: 0x19410, symBinAddr: 0x10001C4CC, symSize: 0x3C }
  - { offsetInCU: 0x4A17E, offset: 0x4A17E, size: 0x8, addend: 0x0, symName: __ZNSt3__16vectorIhNS_9allocatorIhEEE21_ConstructTransactionD1B8ue170006Ev, symObjAddr: 0x194CC, symBinAddr: 0x10001C588, symSize: 0x2C }
  - { offsetInCU: 0x4A1A8, offset: 0x4A1A8, size: 0x8, addend: 0x0, symName: __ZNSt3__16vectorIhNS_9allocatorIhEEE21_ConstructTransactionC2B8ue170006ERS3_m, symObjAddr: 0x194F8, symBinAddr: 0x10001C5B4, symSize: 0x44 }
  - { offsetInCU: 0x4A20F, offset: 0x4A20F, size: 0x8, addend: 0x0, symName: __ZNSt3__119__unwrap_range_implIPhS1_E8__unwrapB8ue170006ES1_S1_, symObjAddr: 0x19610, symBinAddr: 0x10001C6CC, symSize: 0x58 }
  - { offsetInCU: 0x4A246, offset: 0x4A246, size: 0x8, addend: 0x0, symName: __ZNSt3__14pairIPhS1_EC1B8ue170006IS1_S1_LPv0EEEOT_OT0_, symObjAddr: 0x19668, symBinAddr: 0x10001C724, symSize: 0x3C }
  - { offsetInCU: 0x4A2A4, offset: 0x4A2A4, size: 0x8, addend: 0x0, symName: __ZNSt3__14pairIPhS1_EC2B8ue170006IS1_S1_LPv0EEEOT_OT0_, symObjAddr: 0x196A4, symBinAddr: 0x10001C760, symSize: 0x34 }
  - { offsetInCU: 0x4A30D, offset: 0x4A30D, size: 0x8, addend: 0x0, symName: __ZNKSt3__114__copy_trivialclB8ue170006IhhLi0EEENS_4pairIPT_PT0_EES4_S4_S6_, symObjAddr: 0x19854, symBinAddr: 0x10001C910, symSize: 0x48 }
  - { offsetInCU: 0x4A375, offset: 0x4A375, size: 0x8, addend: 0x0, symName: __ZNSt3__14pairIPhS1_EC1B8ue170006IRS1_S1_LPv0EEEOT_OT0_, symObjAddr: 0x19A14, symBinAddr: 0x10001CAD0, symSize: 0x3C }
  - { offsetInCU: 0x4A3D3, offset: 0x4A3D3, size: 0x8, addend: 0x0, symName: __ZNSt3__14pairIPhS1_EC2B8ue170006IRS1_S1_LPv0EEEOT_OT0_, symObjAddr: 0x19A50, symBinAddr: 0x10001CB0C, symSize: 0x34 }
  - { offsetInCU: 0x4A431, offset: 0x4A431, size: 0x8, addend: 0x0, symName: __ZNSt3__119__unwrap_range_implIPhS1_E8__rewrapB8ue170006ES1_S1_, symObjAddr: 0x19A84, symBinAddr: 0x10001CB40, symSize: 0x2C }
  - { offsetInCU: 0x4A462, offset: 0x4A462, size: 0x8, addend: 0x0, symName: __ZNSt3__118__unwrap_iter_implIPhLb1EE8__unwrapB8ue170006ES1_, symObjAddr: 0x19AB0, symBinAddr: 0x10001CB6C, symSize: 0x24 }
  - { offsetInCU: 0x4A485, offset: 0x4A485, size: 0x8, addend: 0x0, symName: __ZNSt3__118__unwrap_iter_implIPhLb1EE8__rewrapB8ue170006ES1_S1_, symObjAddr: 0x19AD4, symBinAddr: 0x10001CB90, symSize: 0x48 }
  - { offsetInCU: 0x4A4B6, offset: 0x4A4B6, size: 0x8, addend: 0x0, symName: __ZNSt3__16vectorIhNS_9allocatorIhEEE21_ConstructTransactionD2B8ue170006Ev, symObjAddr: 0x19B1C, symBinAddr: 0x10001CBD8, symSize: 0x20 }
  - { offsetInCU: 0x4A4E0, offset: 0x4A4E0, size: 0x8, addend: 0x0, symName: __ZNSt3__128__exception_guard_exceptionsINS_6vectorIhNS_9allocatorIhEEE16__destroy_vectorEED2B8ue170006Ev, symObjAddr: 0x19B3C, symBinAddr: 0x10001CBF8, symSize: 0x48 }
  - { offsetInCU: 0x4A50A, offset: 0x4A50A, size: 0x8, addend: 0x0, symName: __ZNKSt3__117__compressed_pairIPN8nlohmann16json_abi_v3_12_027byte_container_with_subtypeINS_6vectorIhNS_9allocatorIhEEEEEEZNS2_10basic_jsonINS_3mapES4_NS_12basic_stringIcNS_11char_traitsIcEENS5_IcEEEEbxydS5_NS2_14adl_serializerES7_vE6createIS8_JRKS8_EEEPT_DpOT0_EUlS9_E_E5firstB8ue170006Ev, symObjAddr: 0x19B84, symBinAddr: 0x10001CC40, symSize: 0x24 }
